 cio

 Timestamp is 57ea51bf (Tue Sep 27 19:02:23 2016)

 Preferred load address is 0000000180000000

 Start         Length     Name                   Class
 0001:00000000 000001e0H .text$di                CODE
 0001:000001e0 000254f0H .text$mn                CODE
 0001:000256d0 00000020H .text$mn$00             CODE
 0001:000256f0 000004f0H .text$x                 CODE
 0001:00025be0 000001ecH .text$yd                CODE
 0002:00000000 000002a8H .idata$5                DATA
 0002:000002a8 00000010H .00cfg                  DATA
 0002:000002b8 00000008H .CRT$XCA                DATA
 0002:000002c0 00000058H .CRT$XCC                DATA
 0002:00000318 00000010H .CRT$XCL                DATA
 0002:00000328 00000008H .CRT$XCU                DATA
 0002:00000330 00000008H .CRT$XCZ                DATA
 0002:00000338 00000008H .CRT$XIA                DATA
 0002:00000340 00000030H .CRT$XIC                DATA
 0002:00000370 00000008H .CRT$XIZ                DATA
 0002:00000378 00000008H .CRT$XLA                DATA
 0002:00000380 00000008H .CRT$XLZ                DATA
 0002:00000388 00000008H .CRT$XPA                DATA
 0002:00000390 00000010H .CRT$XPX                DATA
 0002:000003a0 00000008H .CRT$XPXA               DATA
 0002:000003a8 00000008H .CRT$XPZ                DATA
 0002:000003b0 00000008H .CRT$XTA                DATA
 0002:000003b8 00000008H .CRT$XTZ                DATA
 0002:000003c0 0000fec8H .rdata                  DATA
 0002:00010288 00000028H .rdata$T                DATA
 0002:000102b0 000010f4H .rdata$r                DATA
 0002:000113a4 0000047cH .rdata$zzzdbg           DATA
 0002:00011820 00000008H .rtc$IAA                DATA
 0002:00011828 00000008H .rtc$IZZ                DATA
 0002:00011830 00000008H .rtc$TAA                DATA
 0002:00011838 00000008H .rtc$TZZ                DATA
 0002:00011840 00001f08H .xdata                  DATA
 0002:00013748 000002a4H .xdata$x                DATA
 0002:000139ec 00000020H .didat$2                DATA
 0002:00013a0c 00000024H .didat$3                DATA
 0002:00013a30 00000068H .didat$4                DATA
 0002:00013a98 000002f0H .didat$6                DATA
 0002:00013d88 00000068H .didat$7                DATA
 0002:00013df0 0000004cH .edata                  DATA
 0002:00013e3c 00000014H .idata$2                DATA
 0002:00013e50 00000018H .idata$3                DATA
 0002:00013e68 000002a8H .idata$4                DATA
 0002:00014110 0000061aH .idata$6                DATA
 0003:00000000 00000ba0H .data                   DATA
 0003:00000ba0 00000670H .data$r                 DATA
 0003:00001210 00000070H .didat$5                DATA
 0003:00001280 00001aacH .bss                    DATA
 0004:00000000 00002034H .pdata                  DATA
 0005:00000000 000000b4H .gfids$x                DATA
 0005:000000b4 00000264H .gfids$y                DATA
 0006:00000000 00000004H .tls                    DATA
 0006:00000004 00000004H .tls$                   DATA
 0006:00000008 00000001H .tls$ZZZ                DATA
 0007:00000000 00000060H .rsrc$01                DATA
 0007:00000060 00000180H .rsrc$02                DATA

  Address         Publics by Value              Rva+Base               Lib:Object

 0000:00000000       __guard_iat_table          0000000000000000     <absolute>
 0000:00000000       __dynamic_value_reloc_table 0000000000000000     <absolute>
 0000:00000000       __guard_iat_count          0000000000000000     <absolute>
 0000:00000000       __guard_longjmp_table      0000000000000000     <absolute>
 0000:00000000       __guard_longjmp_count      0000000000000000     <absolute>
 0000:00000000       __guard_fids_count         0000000000000000     <absolute>
 0000:00000000       ___safe_se_handler_table   0000000000000000     <absolute>
 0000:00000000       ___safe_se_handler_count   0000000000000000     <absolute>
 0000:00000000       __guard_fids_table         0000000000000000     <absolute>
 0000:00000100       __guard_flags              0000000000000100     <absolute>
 0000:00000000       __ImageBase                0000000180000000     <linker-defined>
 0001:000001e0       ?what@exception@stdext@@UEBAPEBDXZ 00000001800011e0 f i cio.obj
 0001:00000200       ?imbue@?$basic_streambuf@DU?$char_traits@D@std@@@std@@MEAAXAEBVlocale@2@@Z 0000000180001200 f i libcpmt:cout.obj
 0001:00000200       _guard_check_icall_nop     0000000180001200 f i LIBCMT:guard_support.obj
 0001:00000200       ?_Unlock@?$basic_streambuf@DU?$char_traits@D@std@@@std@@UEAAXXZ 0000000180001200 f i libcpmt:cout.obj
 0001:00000200       ?_Doraise@exception@stdext@@MEBAXXZ 0000000180001200 f i cio.obj
 0001:00000200       __except_validate_context_record 0000000180001200 f i libvcruntime:jbcxrval.obj
 0001:00000200       ?_Lock@?$basic_streambuf@DU?$char_traits@D@std@@@std@@UEAAXXZ 0000000180001200 f i libcpmt:cout.obj
 0001:00000200       ?Output@cio@@YAXAEBV?$FunctionCallbackInfo@VValue@v8@@@v8@@@Z 0000000180001200 f i cio.obj
 0001:00000210       ??_Eruntime_error@std@@UEAAPEAXI@Z 0000000180001210 f i * CIL library *:* CIL module *
 0001:00000210       ??_Gruntime_error@std@@UEAAPEAXI@Z 0000000180001210 f i cio.obj
 0001:00000210       ??_Eexception@stdext@@UEAAPEAXI@Z 0000000180001210 f i * CIL library *:* CIL module *
 0001:00000210       ??_Gexception@stdext@@UEAAPEAXI@Z 0000000180001210 f i cio.obj
 0001:00000240       ?_Deallocate@std@@YAXPEAX_K1@Z 0000000180001240 f i cio.obj
 0001:000002b0       ??0_Locinfo@std@@QEAA@PEBD@Z 00000001800012b0 f i cio.obj
 0001:00000370       ??1_Locinfo@std@@QEAA@XZ   0000000180001370 f i cio.obj
 0001:00000410       ??_E_Facet_base@std@@UEAAPEAXI@Z 0000000180001410 f i * CIL library *:* CIL module *
 0001:00000410       ??_G_Facet_base@std@@UEAAPEAXI@Z 0000000180001410 f i cio.obj
 0001:00000440       ?_Incref@facet@locale@std@@UEAAXXZ 0000000180001440 f i cio.obj
 0001:00000450       ?_Decref@facet@locale@std@@UEAAPEAV_Facet_base@3@XZ 0000000180001450 f i cio.obj
 0001:00000460       ?_Getcat@?$ctype@D@std@@SA_KPEAPEBVfacet@locale@2@PEBV42@@Z 0000000180001460 f i cio.obj
 0001:00000520       ?do_tolower@?$ctype@D@std@@MEBADD@Z 0000000180001520 f i cio.obj
 0001:00000530       ?do_tolower@?$ctype@D@std@@MEBAPEBDPEADPEBD@Z 0000000180001530 f i cio.obj
 0001:00000590       ?do_toupper@?$ctype@D@std@@MEBADD@Z 0000000180001590 f i cio.obj
 0001:000005a0       ?do_toupper@?$ctype@D@std@@MEBAPEBDPEADPEBD@Z 00000001800015a0 f i cio.obj
 0001:00000600       ?do_widen@?$ctype@D@std@@MEBADD@Z 0000000180001600 f i cio.obj
 0001:00000600       ?do_narrow@?$ctype@D@std@@MEBADDD@Z 0000000180001600 f i cio.obj
 0001:00000610       ?do_widen@?$ctype@D@std@@MEBAPEBDPEBD0PEAD@Z 0000000180001610 f i cio.obj
 0001:00000630       ?do_narrow@?$ctype@D@std@@MEBAPEBDPEBD0DPEAD@Z 0000000180001630 f i cio.obj
 0001:00000650       ??_E?$ctype@D@std@@MEAAPEAXI@Z 0000000180001650 f i * CIL library *:* CIL module *
 0001:00000650       ??_G?$ctype@D@std@@MEAAPEAXI@Z 0000000180001650 f i cio.obj
 0001:000006c0       ??_Gerror_category@std@@UEAAPEAXI@Z 00000001800016c0 f i cio.obj
 0001:000006c0       ??_G_Iostream_error_category@std@@UEAAPEAXI@Z 00000001800016c0 f i cio.obj
 0001:000006c0       ??_E_Iostream_error_category@std@@UEAAPEAXI@Z 00000001800016c0 f i * CIL library *:* CIL module *
 0001:000006c0       ??_Eerror_category@std@@UEAAPEAXI@Z 00000001800016c0 f i * CIL library *:* CIL module *
 0001:000006f0       ?default_error_condition@error_category@std@@UEBA?AVerror_condition@2@H@Z 00000001800016f0 f i cio.obj
 0001:00000700       ?equivalent@error_category@std@@UEBA_NHAEBVerror_condition@2@@Z 0000000180001700 f i cio.obj
 0001:00000760       ?equivalent@error_category@std@@UEBA_NAEBVerror_code@2@H@Z 0000000180001760 f i cio.obj
 0001:00000780       ??0_System_error@std@@IEAA@Verror_code@1@AEBV?$basic_string@DU?$char_traits@D@std@@V?$allocator@D@2@@1@@Z 0000000180001780 f i cio.obj
 0001:000009a0       ??_G_System_error@std@@UEAAPEAXI@Z 00000001800019a0 f i cio.obj
 0001:000009a0       ??_E_System_error@std@@UEAAPEAXI@Z 00000001800019a0 f i * CIL library *:* CIL module *
 0001:000009a0       ??_Efailure@ios_base@std@@UEAAPEAXI@Z 00000001800019a0 f i * CIL library *:* CIL module *
 0001:000009a0       ??_Gfailure@ios_base@std@@UEAAPEAXI@Z 00000001800019a0 f i cio.obj
 0001:000009d0       ?name@_Iostream_error_category@std@@UEBAPEBDXZ 00000001800019d0 f i cio.obj
 0001:000009e0       ?message@_Iostream_error_category@std@@UEBA?AV?$basic_string@DU?$char_traits@D@std@@V?$allocator@D@2@@2@H@Z 00000001800019e0 f i cio.obj
 0001:00000a60       ?clear@ios_base@std@@QEAAXH_N@Z 0000000180001a60 f i cio.obj
 0001:00000de0       ?Input@cio@@YAXAEBV?$FunctionCallbackInfo@VValue@v8@@@v8@@@Z 0000000180001de0 f   cio.obj
 0001:00001210       ?init@cio@@YAXV?$Local@VObject@v8@@@v8@@@Z 0000000180002210 f   cio.obj
 0001:00001390       ??1?$basic_string@DU?$char_traits@D@std@@V?$allocator@D@2@@std@@QEAA@XZ 0000000180002390 f i cio.obj
 0001:00001420       ??5?$basic_istream@DU?$char_traits@D@std@@@std@@QEAAAEAV01@AEAN@Z 0000000180002420 f i cio.obj
 0001:000015c0       ?do_get@?$num_get@DV?$istreambuf_iterator@DU?$char_traits@D@std@@@std@@@std@@MEBA?AV?$istreambuf_iterator@DU?$char_traits@D@std@@@2@V32@0AEAVios_base@2@AEAHAEAPEAX@Z 00000001800025c0 f i cio.obj
 0001:000016e0       ?do_get@?$num_get@DV?$istreambuf_iterator@DU?$char_traits@D@std@@@std@@@std@@MEBA?AV?$istreambuf_iterator@DU?$char_traits@D@std@@@2@V32@0AEAVios_base@2@AEAHAEAO@Z 00000001800026e0 f i cio.obj
 0001:000016e0       ?do_get@?$num_get@DV?$istreambuf_iterator@DU?$char_traits@D@std@@@std@@@std@@MEBA?AV?$istreambuf_iterator@DU?$char_traits@D@std@@@2@V32@0AEAVios_base@2@AEAHAEAN@Z 00000001800026e0 f i cio.obj
 0001:00001830       ?do_get@?$num_get@DV?$istreambuf_iterator@DU?$char_traits@D@std@@@std@@@std@@MEBA?AV?$istreambuf_iterator@DU?$char_traits@D@std@@@2@V32@0AEAVios_base@2@AEAHAEAM@Z 0000000180002830 f i cio.obj
 0001:00001980       ?do_get@?$num_get@DV?$istreambuf_iterator@DU?$char_traits@D@std@@@std@@@std@@MEBA?AV?$istreambuf_iterator@DU?$char_traits@D@std@@@2@V32@0AEAVios_base@2@AEAHAEA_K@Z 0000000180002980 f i cio.obj
 0001:00001aa0       ?do_get@?$num_get@DV?$istreambuf_iterator@DU?$char_traits@D@std@@@std@@@std@@MEBA?AV?$istreambuf_iterator@DU?$char_traits@D@std@@@2@V32@0AEAVios_base@2@AEAHAEA_J@Z 0000000180002aa0 f i cio.obj
 0001:00001bc0       ?do_get@?$num_get@DV?$istreambuf_iterator@DU?$char_traits@D@std@@@std@@@std@@MEBA?AV?$istreambuf_iterator@DU?$char_traits@D@std@@@2@V32@0AEAVios_base@2@AEAHAEAK@Z 0000000180002bc0 f i cio.obj
 0001:00001ce0       ?do_get@?$num_get@DV?$istreambuf_iterator@DU?$char_traits@D@std@@@std@@@std@@MEBA?AV?$istreambuf_iterator@DU?$char_traits@D@std@@@2@V32@0AEAVios_base@2@AEAHAEAJ@Z 0000000180002ce0 f i cio.obj
 0001:00001e00       ?do_get@?$num_get@DV?$istreambuf_iterator@DU?$char_traits@D@std@@@std@@@std@@MEBA?AV?$istreambuf_iterator@DU?$char_traits@D@std@@@2@V32@0AEAVios_base@2@AEAHAEAI@Z 0000000180002e00 f i cio.obj
 0001:00001f30       ?do_get@?$num_get@DV?$istreambuf_iterator@DU?$char_traits@D@std@@@std@@@std@@MEBA?AV?$istreambuf_iterator@DU?$char_traits@D@std@@@2@V32@0AEAVios_base@2@AEAHAEAG@Z 0000000180002f30 f i cio.obj
 0001:00002070       ?do_get@?$num_get@DV?$istreambuf_iterator@DU?$char_traits@D@std@@@std@@@std@@MEBA?AV?$istreambuf_iterator@DU?$char_traits@D@std@@@2@V32@0AEAVios_base@2@AEAHAEA_N@Z 0000000180003070 f i cio.obj
 0001:00002440       ?assign@?$basic_string@DU?$char_traits@D@std@@V?$allocator@D@2@@std@@QEAAAEAV12@_KD@Z 0000000180003440 f i cio.obj
 0001:00002540       ?assign@?$basic_string@DU?$char_traits@D@std@@V?$allocator@D@2@@std@@QEAAAEAV12@PEBD_K@Z 0000000180003540 f i cio.obj
 0001:00002670       ?assign@?$basic_string@DU?$char_traits@D@std@@V?$allocator@D@2@@std@@QEAAAEAV12@AEBV12@_K1@Z 0000000180003670 f i cio.obj
 0001:000027a0       ?append@?$basic_string@DU?$char_traits@D@std@@V?$allocator@D@2@@std@@QEAAAEAV12@PEBD_K@Z 00000001800037a0 f i cio.obj
 0001:000028f0       ?append@?$basic_string@DU?$char_traits@D@std@@V?$allocator@D@2@@std@@QEAAAEAV12@AEBV12@_K1@Z 00000001800038f0 f i cio.obj
 0001:00002a20       ?_Assign_rv@?$basic_string@DU?$char_traits@D@std@@V?$allocator@D@2@@std@@QEAAX$$QEAV12@@Z 0000000180003a20 f i cio.obj
 0001:00002aa0       ??_E?$codecvt@DDU_Mbstatet@@@std@@MEAAPEAXI@Z 0000000180003aa0 f i libcpmt:cout.obj
 0001:00002aa0       ??_G?$num_get@DV?$istreambuf_iterator@DU?$char_traits@D@std@@@std@@@std@@MEAAPEAXI@Z 0000000180003aa0 f i cio.obj
 0001:00002aa0       ??_E?$num_get@DV?$istreambuf_iterator@DU?$char_traits@D@std@@@std@@@std@@MEAAPEAXI@Z 0000000180003aa0 f i * CIL library *:* CIL module *
 0001:00002aa0       ??_G?$codecvt@DDU_Mbstatet@@@std@@MEAAPEAXI@Z 0000000180003aa0 f i libcpmt:cout.obj
 0001:00002ad0       ?do_truename@?$numpunct@D@std@@MEBA?AV?$basic_string@DU?$char_traits@D@std@@V?$allocator@D@2@@2@XZ 0000000180003ad0 f i cio.obj
 0001:00002b20       ?do_falsename@?$numpunct@D@std@@MEBA?AV?$basic_string@DU?$char_traits@D@std@@V?$allocator@D@2@@2@XZ 0000000180003b20 f i cio.obj
 0001:00002b70       ?do_grouping@?$numpunct@D@std@@MEBA?AV?$basic_string@DU?$char_traits@D@std@@V?$allocator@D@2@@2@XZ 0000000180003b70 f i cio.obj
 0001:00002bc0       ?do_thousands_sep@?$numpunct@D@std@@MEBADXZ 0000000180003bc0 f i cio.obj
 0001:00002bd0       ?do_decimal_point@?$numpunct@D@std@@MEBADXZ 0000000180003bd0 f i cio.obj
 0001:00002be0       ?_Getffld@?$num_get@DV?$istreambuf_iterator@DU?$char_traits@D@std@@@std@@@std@@AEBAHPEADAEAV?$istreambuf_iterator@DU?$char_traits@D@std@@@2@1AEAVios_base@2@PEAH@Z 0000000180003be0 f i cio.obj
 0001:00003ac0       ?_Getifld@?$num_get@DV?$istreambuf_iterator@DU?$char_traits@D@std@@@std@@@std@@AEBAHPEADAEAV?$istreambuf_iterator@DU?$char_traits@D@std@@@2@1HAEBVlocale@2@@Z 0000000180004ac0 f i cio.obj
 0001:000041e0       ?erase@?$basic_string@DU?$char_traits@D@std@@V?$allocator@D@2@@std@@QEAAAEAV12@_K0@Z 00000001800051e0 f i cio.obj
 0001:000042b0       ?append@?$basic_string@DU?$char_traits@D@std@@V?$allocator@D@2@@std@@QEAAAEAV12@_KD@Z 00000001800052b0 f i cio.obj
 0001:000043c0       ??Y?$basic_string@DU?$char_traits@D@std@@V?$allocator@D@2@@std@@QEAAAEAV01@D@Z 00000001800053c0 f i cio.obj
 0001:000044b0       ?_Ipfx@?$basic_istream@DU?$char_traits@D@std@@@std@@QEAA_N_N@Z 00000001800054b0 f i cio.obj
 0001:00004600       ??_E?$numpunct@D@std@@MEAAPEAXI@Z 0000000180005600 f i * CIL library *:* CIL module *
 0001:00004600       ??_G?$numpunct@D@std@@MEAAPEAXI@Z 0000000180005600 f i cio.obj
 0001:00004660       ?_Getffldx@?$num_get@DV?$istreambuf_iterator@DU?$char_traits@D@std@@@std@@@std@@AEBAHPEADAEAV?$istreambuf_iterator@DU?$char_traits@D@std@@@2@1AEAVios_base@2@PEAH@Z 0000000180005660 f i cio.obj
 0001:00005600       ??E?$istreambuf_iterator@DU?$char_traits@D@std@@@std@@QEAAAEAV01@XZ 0000000180006600 f i cio.obj
 0001:00005670       ??D?$istreambuf_iterator@DU?$char_traits@D@std@@@std@@QEBADXZ 0000000180006670 f i cio.obj
 0001:000056e0       ?_Copy@?$basic_string@DU?$char_traits@D@std@@V?$allocator@D@2@@std@@QEAAX_K0@Z 00000001800066e0 f i cio.obj
 0001:00005860       ?flush@?$basic_ostream@DU?$char_traits@D@std@@@std@@QEAAAEAV12@XZ 0000000180006860 f i cio.obj
 0001:00005960       ?snextc@?$basic_streambuf@DU?$char_traits@D@std@@@std@@QEAAHXZ 0000000180006960 f i cio.obj
 0001:00005a00       ??$use_facet@V?$ctype@D@std@@@std@@YAAEBV?$ctype@D@0@AEBVlocale@0@@Z 0000000180006a00 f i cio.obj
 0001:00005b30       ??$_Immortalize@V_Iostream_error_category@std@@@std@@YAAEAV_Iostream_error_category@0@XZ 0000000180006b30 f i cio.obj
 0001:00005bb0       ??$?6DU?$char_traits@D@std@@V?$allocator@D@1@@std@@YAAEAV?$basic_ostream@DU?$char_traits@D@std@@@0@AEAV10@AEBV?$basic_string@DU?$char_traits@D@std@@V?$allocator@D@2@@0@@Z 0000000180006bb0 f i cio.obj
 0001:00005e30       ??$use_facet@V?$num_get@DV?$istreambuf_iterator@DU?$char_traits@D@std@@@std@@@std@@@std@@YAAEBV?$num_get@DV?$istreambuf_iterator@DU?$char_traits@D@std@@@std@@@0@AEBVlocale@0@@Z 0000000180006e30 f i cio.obj
 0001:00005fb0       ??$use_facet@V?$numpunct@D@std@@@std@@YAAEBV?$numpunct@D@0@AEBVlocale@0@@Z 0000000180006fb0 f i cio.obj
 0001:000060e0       ??$_Getloctxt@DV?$istreambuf_iterator@DU?$char_traits@D@std@@@std@@@std@@YAHAEAV?$istreambuf_iterator@DU?$char_traits@D@std@@@0@0_KPEBD@Z 00000001800070e0 f i cio.obj
 0001:00006390       ?_Getcat@?$numpunct@D@std@@SA_KPEAPEBVfacet@locale@2@PEBV42@@Z 0000000180007390 f i cio.obj
 0001:00006450       ?equal@?$istreambuf_iterator@DU?$char_traits@D@std@@@std@@QEBA_NAEBV12@@Z 0000000180007450 f i cio.obj
 0001:00006520       ?put@?$basic_ostream@DU?$char_traits@D@std@@@std@@QEAAAEAV12@D@Z 0000000180007520 f i cio.obj
 0001:00006670       ?widen@?$basic_ios@DU?$char_traits@D@std@@@std@@QEBADD@Z 0000000180007670 f i cio.obj
 0001:00006710       ?_Init@?$numpunct@D@std@@IEAAXAEBV_Locinfo@2@_N@Z 0000000180007710 f i cio.obj
 0001:00006890       ??$?5DU?$char_traits@D@std@@V?$allocator@D@1@@std@@YAAEAV?$basic_istream@DU?$char_traits@D@std@@@0@$$QEAV10@AEAV?$basic_string@DU?$char_traits@D@std@@V?$allocator@D@2@@0@@Z 0000000180007890 f i cio.obj
 0001:00006b4c       __imp_load_?GetCurrent@Isolate@v8@@SAPEAV12@XZ 0000000180007b4c f   node:node.exe
 0001:00006b58       __tailMerge_node_exe       0000000180007b58 f i node:node.exe
 0001:00006bd1       __imp_load_??1HandleScope@v8@@QEAA@XZ 0000000180007bd1 f   node:node.exe
 0001:00006bdd       __imp_load_??0HandleScope@v8@@QEAA@PEAVIsolate@1@@Z 0000000180007bdd f   node:node.exe
 0001:00006be9       __imp_load_?GetFunction@FunctionTemplate@v8@@QEAA?AV?$Local@VFunction@v8@@@2@XZ 0000000180007be9 f   node:node.exe
 0001:00006bf5       __imp_load_?New@FunctionTemplate@v8@@SA?AV?$Local@VFunctionTemplate@v8@@@2@PEAVIsolate@2@P6AXAEBV?$FunctionCallbackInfo@VValue@v8@@@2@@ZV?$Local@VValue@v8@@@2@V?$Local@VSignature@v8@@@2@H@Z 0000000180007bf5 f   node:node.exe
 0001:00006c01       __imp_load_??1Utf8Value@String@v8@@QEAA@XZ 0000000180007c01 f   node:node.exe
 0001:00006c0d       __imp_load_??0Utf8Value@String@v8@@QEAA@V?$Local@VValue@v8@@@2@@Z 0000000180007c0d f   node:node.exe
 0001:00006c19       __imp_load_?NewFromUtf8@String@v8@@SA?AV?$Local@VString@v8@@@2@PEAVIsolate@2@PEBDW4NewStringType@12@H@Z 0000000180007c19 f   node:node.exe
 0001:00006c25       __imp_load_?New@Number@v8@@SA?AV?$Local@VNumber@v8@@@2@PEAVIsolate@2@N@Z 0000000180007c25 f   node:node.exe
 0001:00006c31       __imp_load_?Set@Object@v8@@QEAA_NV?$Local@VValue@v8@@@2@0@Z 0000000180007c31 f   node:node.exe
 0001:00006c3d       __imp_load_?SetName@Function@v8@@QEAAXV?$Local@VString@v8@@@2@@Z 0000000180007c3d f   node:node.exe
 0001:00006c49       __imp_load_node_module_register 0000000180007c49 f   node:node.exe
 0001:00006c58       _Stollx                    0000000180007c58 f   libcpmt:xstoll.obj
 0001:00006d4c       _Stolx                     0000000180007d4c f   libcpmt:xstol.obj
 0001:00006e2c       _Stoulx                    0000000180007e2c f   libcpmt:xstoul.obj
 0001:00006ffc       ??0_Init_locks@std@@QEAA@XZ 0000000180007ffc f   libcpmt:xlock.obj
 0001:00007048       ??0_Lockit@std@@QEAA@H@Z   0000000180008048 f   libcpmt:xlock.obj
 0001:00007084       ??1_Init_locks@std@@QEAA@XZ 0000000180008084 f   libcpmt:xlock.obj
 0001:000070c8       ??1_Lockit@std@@QEAA@XZ    00000001800080c8 f   libcpmt:xlock.obj
 0001:000070fc       ??$use_facet@V?$codecvt@DDU_Mbstatet@@@std@@@std@@YAAEBV?$codecvt@DDU_Mbstatet@@@0@AEBVlocale@0@@Z 00000001800080fc f i libcpmt:cout.obj
 0001:00007234       ??0?$basic_ostream@DU?$char_traits@D@std@@@std@@QEAA@PEAV?$basic_streambuf@DU?$char_traits@D@std@@@1@_N@Z 0000000180008234 f i libcpmt:cout.obj
 0001:000072fc       ??0?$basic_streambuf@DU?$char_traits@D@std@@@std@@IEAA@XZ 00000001800082fc f i libcpmt:cout.obj
 0001:000073ac       ??0_Init_cout@std@@QEAA@XZ 00000001800083ac f i libcpmt:cout.obj
 0001:00007418       ??0bad_cast@std@@QEAA@AEBV01@@Z 0000000180008418 f i libcpmt:cout.obj
 0001:00007458       ??0bad_cast@std@@QEAA@XZ   0000000180008458 f i libcpmt:cout.obj
 0001:00007478       ??0exception@std@@QEAA@AEBV01@@Z 0000000180008478 f i libcpmt:cout.obj
 0001:000074b0       ??1?$basic_filebuf@DU?$char_traits@D@std@@@std@@UEAA@XZ 00000001800084b0 f i libcpmt:cout.obj
 0001:0000755c       ??1?$basic_ios@DU?$char_traits@D@std@@@std@@UEAA@XZ 000000018000855c f i libcpmt:cout.obj
 0001:00007580       ??_E?$basic_ostream@DU?$char_traits@D@std@@@std@@$4PPPPPPPM@A@EAAPEAXI@Z 0000000180008580 f i libcpmt:cout.obj
 0001:0000758c       ??_G?$basic_filebuf@DU?$char_traits@D@std@@@std@@UEAAPEAXI@Z 000000018000858c f i libcpmt:cout.obj
 0001:0000758c       ??_E?$basic_filebuf@DU?$char_traits@D@std@@@std@@UEAAPEAXI@Z 000000018000858c f i libcpmt:cout.obj
 0001:000075c0       ??_G?$basic_ios@DU?$char_traits@D@std@@@std@@UEAAPEAXI@Z 00000001800085c0 f i libcpmt:cout.obj
 0001:000075c0       ??_E?$basic_ios@DU?$char_traits@D@std@@@std@@UEAAPEAXI@Z 00000001800085c0 f i libcpmt:cout.obj
 0001:0000760c       ??_G?$basic_ostream@DU?$char_traits@D@std@@@std@@UEAAPEAXI@Z 000000018000860c f i libcpmt:cout.obj
 0001:0000760c       ??_E?$basic_ostream@DU?$char_traits@D@std@@@std@@UEAAPEAXI@Z 000000018000860c f i libcpmt:cout.obj
 0001:0000767c       ??_G?$basic_streambuf@DU?$char_traits@D@std@@@std@@UEAAPEAXI@Z 000000018000867c f i libcpmt:cout.obj
 0001:0000767c       ??_E?$basic_streambuf@DU?$char_traits@D@std@@@std@@UEAAPEAXI@Z 000000018000867c f i libcpmt:cout.obj
 0001:000076cc       ??_Gios_base@std@@UEAAPEAXI@Z 00000001800086cc f i libcpmt:cout.obj
 0001:000076cc       ??_Eios_base@std@@UEAAPEAXI@Z 00000001800086cc f i libcpmt:cout.obj
 0001:00007718       ??_Glocale@std@@QEAAPEAXI@Z 0000000180008718 f i libcpmt:cout.obj
 0001:000077a8       ?_Endwrite@?$basic_filebuf@DU?$char_traits@D@std@@@std@@IEAA_NXZ 00000001800087a8 f i libcpmt:cout.obj
 0001:0000795c       ?_Getcat@?$codecvt@DDU_Mbstatet@@@std@@SA_KPEAPEBVfacet@locale@2@PEBV42@@Z 000000018000895c f i libcpmt:cout.obj
 0001:00007a20       ?_Init@?$basic_filebuf@DU?$char_traits@D@std@@@std@@IEAAXPEAU_iobuf@@W4_Initfl@12@@Z 0000000180008a20 f i libcpmt:cout.obj
 0001:00007b0c       ?_Init@ios_base@std@@IEAAXXZ 0000000180008b0c f i libcpmt:cout.obj
 0001:00007b8c       ?_Initcvt@?$basic_filebuf@DU?$char_traits@D@std@@@std@@IEAAXPEBV?$codecvt@DDU_Mbstatet@@@2@@Z 0000000180008b8c f i libcpmt:cout.obj
 0001:00007c2c       ?_Lock@?$basic_filebuf@DU?$char_traits@D@std@@@std@@UEAAXXZ 0000000180008c2c f i libcpmt:cout.obj
 0001:00007c48       ?_Unlock@?$basic_filebuf@DU?$char_traits@D@std@@@std@@UEAAXXZ 0000000180008c48 f i libcpmt:cout.obj
 0001:00007c64       _get_startup_argv_mode     0000000180008c64 f i LIBCMT:argv_mode.obj
 0001:00007c64       DllMain                    0000000180008c64 f i LIBCMT:dll_dllmain_stub.obj
 0001:00007c64       ?do_max_length@codecvt_base@std@@MEBAHXZ 0000000180008c64 f i libcpmt:cout.obj
 0001:00007c64       ?do_encoding@codecvt_base@std@@MEBAHXZ 0000000180008c64 f i libcpmt:cout.obj
 0001:00007c6c       ?do_in@?$codecvt@DDU_Mbstatet@@@std@@MEBAHAEAU_Mbstatet@@PEBD1AEAPEBDPEAD3AEAPEAD@Z 0000000180008c6c f i libcpmt:cout.obj
 0001:00007c6c       ?do_out@?$codecvt@DDU_Mbstatet@@@std@@MEBAHAEAU_Mbstatet@@PEBD1AEAPEBDPEAD3AEAPEAD@Z 0000000180008c6c f i libcpmt:cout.obj
 0001:00007c88       ?do_length@?$codecvt@DDU_Mbstatet@@@std@@MEBAHAEAU_Mbstatet@@PEBD1_K@Z 0000000180008c88 f i libcpmt:cout.obj
 0001:00007c9c       ?do_unshift@?$codecvt@DDU_Mbstatet@@@std@@MEBAHAEAU_Mbstatet@@PEAD1AEAPEAD@Z 0000000180008c9c f i libcpmt:cout.obj
 0001:00007ca8       ?imbue@?$basic_filebuf@DU?$char_traits@D@std@@@std@@MEAAXAEBVlocale@2@@Z 0000000180008ca8 f i libcpmt:cout.obj
 0001:00007ccc       ?overflow@?$basic_filebuf@DU?$char_traits@D@std@@@std@@MEAAHH@Z 0000000180008ccc f i libcpmt:cout.obj
 0001:00007f2c       ?underflow@?$basic_streambuf@DU?$char_traits@D@std@@@std@@MEAAHXZ 0000000180008f2c f i libcpmt:cout.obj
 0001:00007f2c       ?pbackfail@?$basic_streambuf@DU?$char_traits@D@std@@@std@@MEAAHH@Z 0000000180008f2c f i libcpmt:cout.obj
 0001:00007f2c       ?overflow@?$basic_streambuf@DU?$char_traits@D@std@@@std@@MEAAHH@Z 0000000180008f2c f i libcpmt:cout.obj
 0001:00007f30       ?pbackfail@?$basic_filebuf@DU?$char_traits@D@std@@@std@@MEAAHH@Z 0000000180008f30 f i libcpmt:cout.obj
 0001:00008000       ?seekoff@?$basic_filebuf@DU?$char_traits@D@std@@@std@@MEAA?AV?$fpos@U_Mbstatet@@@2@_JHH@Z 0000000180009000 f i libcpmt:cout.obj
 0001:000080ec       ?seekpos@?$basic_streambuf@DU?$char_traits@D@std@@@std@@MEAA?AV?$fpos@U_Mbstatet@@@2@V32@H@Z 00000001800090ec f i libcpmt:cout.obj
 0001:000080ec       ?seekoff@?$basic_streambuf@DU?$char_traits@D@std@@@std@@MEAA?AV?$fpos@U_Mbstatet@@@2@_JHH@Z 00000001800090ec f i libcpmt:cout.obj
 0001:00008108       ?seekpos@?$basic_filebuf@DU?$char_traits@D@std@@@std@@MEAA?AV?$fpos@U_Mbstatet@@@2@V32@H@Z 0000000180009108 f i libcpmt:cout.obj
 0001:00008208       ?setbuf@?$basic_filebuf@DU?$char_traits@D@std@@@std@@MEAAPEAV?$basic_streambuf@DU?$char_traits@D@std@@@2@PEAD_J@Z 0000000180009208 f i libcpmt:cout.obj
 0001:0000825c       ?setbuf@?$basic_streambuf@DU?$char_traits@D@std@@@std@@MEAAPEAV12@PEAD_J@Z 000000018000925c f i libcpmt:cout.obj
 0001:00008260       ?sync@?$basic_filebuf@DU?$char_traits@D@std@@@std@@MEAAHXZ 0000000180009260 f i libcpmt:cout.obj
 0001:000082c0       ?uflow@?$basic_filebuf@DU?$char_traits@D@std@@@std@@MEAAHXZ 00000001800092c0 f i libcpmt:cout.obj
 0001:00008558       ?uflow@?$basic_streambuf@DU?$char_traits@D@std@@@std@@MEAAHXZ 0000000180009558 f i libcpmt:cout.obj
 0001:000085a4       ?underflow@?$basic_filebuf@DU?$char_traits@D@std@@@std@@MEAAHXZ 00000001800095a4 f i libcpmt:cout.obj
 0001:0000861c       ?what@exception@std@@UEBAPEBDXZ 000000018000961c f i libcpmt:cout.obj
 0001:00008630       ?xsgetn@?$basic_streambuf@DU?$char_traits@D@std@@@std@@MEAA_JPEAD_J@Z 0000000180009630 f i libcpmt:cout.obj
 0001:000086f0       ?xsputn@?$basic_streambuf@DU?$char_traits@D@std@@@std@@MEAA_JPEBD_J@Z 00000001800096f0 f i libcpmt:cout.obj
 0001:000087b4       ??4?$_Yarn@D@std@@QEAAAEAV01@PEBD@Z 00000001800097b4 f i libcpmt:locale0.obj
 0001:0000882c       ??_G_Fac_node@std@@QEAAPEAXI@Z 000000018000982c f i libcpmt:locale0.obj
 0001:000088b8       ??_G_Locimp@locale@std@@MEAAPEAXI@Z 00000001800098b8 f i libcpmt:locale0.obj
 0001:000088b8       ??_E_Locimp@locale@std@@MEAAPEAXI@Z 00000001800098b8 f i libcpmt:locale0.obj
 0001:00008924       ?_Facet_Register@std@@YAXPEAV_Facet_base@1@@Z 0000000180009924 f   libcpmt:locale0.obj
 0001:0000895c       ?_Getgloballocale@locale@std@@CAPEAV_Locimp@12@XZ 000000018000995c f   libcpmt:locale0.obj
 0001:00008964       ?_Init@locale@std@@CAPEAV_Locimp@12@_N@Z 0000000180009964 f   libcpmt:locale0.obj
 0001:00008a20       ?_Locimp_dtor@_Locimp@locale@std@@CAXPEAV123@@Z 0000000180009a20 f   libcpmt:locale0.obj
 0001:00008ac8       ?_Locinfo_ctor@_Locinfo@std@@SAXPEAV12@PEBD@Z 0000000180009ac8 f   libcpmt:locale0.obj
 0001:00008b34       ?_Locinfo_dtor@_Locinfo@std@@SAXPEAV12@@Z 0000000180009b34 f   libcpmt:locale0.obj
 0001:00008b58       ?_New_Locimp@_Locimp@locale@std@@CAPEAV123@_N@Z 0000000180009b58 f   libcpmt:locale0.obj
 0001:00008bc8       ?_Setgloballocale@locale@std@@CAXPEAX@Z 0000000180009bc8 f   libcpmt:locale0.obj
 0001:00008bfc       _Deletegloballocale        0000000180009bfc f   libcpmt:locale0.obj
 0001:00008c84       ??0?$basic_istream@DU?$char_traits@D@std@@@std@@QEAA@PEAV?$basic_streambuf@DU?$char_traits@D@std@@@1@_N@Z 0000000180009c84 f i libcpmt:cin.obj
 0001:00008d50       ??_E?$basic_istream@DU?$char_traits@D@std@@@std@@$4PPPPPPPM@A@EAAPEAXI@Z 0000000180009d50 f i libcpmt:cin.obj
 0001:00008d5c       ??_E?$basic_istream@DU?$char_traits@D@std@@@std@@UEAAPEAXI@Z 0000000180009d5c f i libcpmt:cin.obj
 0001:00008d5c       ??_G?$basic_istream@DU?$char_traits@D@std@@@std@@UEAAPEAXI@Z 0000000180009d5c f i libcpmt:cin.obj
 0001:00008dcc       ??0bad_alloc@std@@QEAA@AEBV01@@Z 0000000180009dcc f i libcpmt:xthrow.obj
 0001:00008e0c       ??0bad_alloc@std@@QEAA@XZ  0000000180009e0c f i libcpmt:xthrow.obj
 0001:00008e2c       ??0length_error@std@@QEAA@AEBV01@@Z 0000000180009e2c f i libcpmt:xthrow.obj
 0001:00008e6c       ??0length_error@std@@QEAA@PEBD@Z 0000000180009e6c f i libcpmt:xthrow.obj
 0001:00008eb8       ??0logic_error@std@@QEAA@AEBV01@@Z 0000000180009eb8 f i libcpmt:xthrow.obj
 0001:00008ef8       ??0out_of_range@std@@QEAA@AEBV01@@Z 0000000180009ef8 f i libcpmt:xthrow.obj
 0001:00008f38       ??0out_of_range@std@@QEAA@PEBD@Z 0000000180009f38 f i libcpmt:xthrow.obj
 0001:00008f84       ??1length_error@std@@UEAA@XZ 0000000180009f84 f i libcpmt:xthrow.obj
 0001:00008f84       ??1bad_cast@std@@UEAA@XZ   0000000180009f84 f i libcpmt:cout.obj
 0001:00008f84       ??1bad_alloc@std@@UEAA@XZ  0000000180009f84 f i libcpmt:xthrow.obj
 0001:00008f84       ??1bad_array_new_length@std@@UEAA@XZ 0000000180009f84 f i LIBCMT:throw_bad_alloc.obj
 0001:00008f84       ??1bad_exception@std@@UEAA@XZ 0000000180009f84 f i libvcruntime:frame.obj
 0001:00008f84       ??1out_of_range@std@@UEAA@XZ 0000000180009f84 f i libcpmt:xthrow.obj
 0001:00008f98       ?__scrt_throw_std_bad_alloc@@YAXXZ 0000000180009f98 f   LIBCMT:throw_bad_alloc.obj
 0001:00008f98       ?_Xbad_alloc@std@@YAXXZ    0000000180009f98 f   libcpmt:xthrow.obj
 0001:00008fb8       ?_Xlength_error@std@@YAXPEBD@Z 0000000180009fb8 f   libcpmt:xthrow.obj
 0001:00008fdc       ?_Xout_of_range@std@@YAXPEBD@Z 0000000180009fdc f   libcpmt:xthrow.obj
 0001:00009000       ?_Syserror_map@std@@YAPEBDH@Z 000000018000a000 f   libcpmt:syserror.obj
 0001:00009028       _Stoullx                   000000018000a028 f   libcpmt:xstoull.obj
 0001:000091f0       _Getctype                  000000018000a1f0 f   libcpmt:_tolower.obj
 0001:000092b0       _Tolower                   000000018000a2b0 f   libcpmt:_tolower.obj
 0001:000093d8       _Getcvt                    000000018000a3d8 f   libcpmt:xwctomb.obj
 0001:00009468       _Toupper                   000000018000a468 f   libcpmt:_toupper.obj
 0001:000095a0       _Mtxdst                    000000018000a5a0 f   libcpmt:xmtx.obj
 0001:000095a8       _Mtxinit                   000000018000a5a8 f   libcpmt:xmtx.obj
 0001:000095b8       _Mtxlock                   000000018000a5b8 f   libcpmt:xmtx.obj
 0001:000095c0       _Mtxunlock                 000000018000a5c0 f   libcpmt:xmtx.obj
 0001:000095c8       ?_Addstd@ios_base@std@@SAXPEAV12@@Z 000000018000a5c8 f   libcpmt:ios.obj
 0001:00009638       ?_Ios_base_dtor@ios_base@std@@CAXPEAV12@@Z 000000018000a638 f   libcpmt:ios.obj
 0001:0000967c       ?_Tidy@ios_base@std@@AEAAXXZ 000000018000a67c f i libcpmt:ios.obj
 0001:0000970c       ?_Atexit@@YAXP6AXXZ@Z      000000018000a70c f   libcpmt:iosptrs.obj
 0001:0000974c       __local_stdio_printf_options 000000018000a74c f i libcpmt:locale.obj
 0001:00009754       __crtLCMapStringA          000000018000a754 f   libcpmt:StlLCMapStringA.obj
 0001:00009f10       __crtInitializeCriticalSectionEx 000000018000af10 f   libcpmt:winapisupp.obj
 0001:00009f70       GetTableIndexFromLocaleName 000000018000af70 f   libcpmt:winapinls.obj
 0001:00009ffc       __crtDownlevelLocaleNameToLCID 000000018000affc f   libcpmt:winapinls.obj
 0001:0000a030       __crtLCMapStringEx         000000018000b030 f   libcpmt:winapinls.obj
 0001:0000a0ec       __wcsnicmp_ascii           000000018000b0ec f   libcpmt:winapinls.obj
 0001:0000a160       __security_check_cookie    000000018000b160 f   LIBCMT:_amdsecgs_.obj
 0001:0000a184       ??_V@YAXPEAX@Z             000000018000b184 f   LIBCMT:delete_array.obj
 0001:0000a184       ??3@YAXPEAX_K@Z            000000018000b184 f   LIBCMT:delete_scalar_size.obj
 0001:0000a2d4       _Init_thread_footer        000000018000b2d4 f   LIBCMT:thread_safe_statics.obj
 0001:0000a334       _Init_thread_header        000000018000b334 f   LIBCMT:thread_safe_statics.obj
 0001:0000a39c       _Init_thread_notify        000000018000b39c f   LIBCMT:thread_safe_statics.obj
 0001:0000a3f8       _Init_thread_wait          000000018000b3f8 f   LIBCMT:thread_safe_statics.obj
 0001:0000a490       ??2@YAPEAX_K@Z             000000018000b490 f   LIBCMT:new_scalar.obj
 0001:0000a4cc       __scrt_acquire_startup_lock 000000018000b4cc f   LIBCMT:utility.obj
 0001:0000a508       __scrt_dllmain_after_initialize_c 000000018000b508 f   LIBCMT:utility.obj
 0001:0000a53c       __scrt_dllmain_before_initialize_c 000000018000b53c f   LIBCMT:utility.obj
 0001:0000a554       __scrt_dllmain_crt_thread_attach 000000018000b554 f   LIBCMT:utility.obj
 0001:0000a57c       __scrt_dllmain_crt_thread_detach 000000018000b57c f   LIBCMT:utility.obj
 0001:0000a594       __scrt_dllmain_exception_filter 000000018000b594 f   LIBCMT:utility.obj
 0001:0000a5f8       __scrt_dllmain_uninitialize_c 000000018000b5f8 f   LIBCMT:utility.obj
 0001:0000a628       __scrt_dllmain_uninitialize_critical 000000018000b628 f   LIBCMT:utility.obj
 0001:0000a63c       __scrt_initialize_crt      000000018000b63c f   LIBCMT:utility.obj
 0001:0000a688       __scrt_initialize_onexit_tables 000000018000b688 f   LIBCMT:utility.obj
 0001:0000a754       __scrt_is_nonwritable_in_current_image 000000018000b754 f   LIBCMT:utility.obj
 0001:0000a7f0       __scrt_release_startup_lock 000000018000b7f0 f   LIBCMT:utility.obj
 0001:0000a814       __scrt_uninitialize_crt    000000018000b814 f   LIBCMT:utility.obj
 0001:0000a840       _onexit                    000000018000b840 f   LIBCMT:utility.obj
 0001:0000a890       atexit                     000000018000b890 f   LIBCMT:utility.obj
 0001:0000a8a8       ??3@YAXPEAX@Z              000000018000b8a8 f   LIBCMT:delete_scalar.obj
 0001:0000abfc       _DllMainCRTStartup         000000018000bbfc f   LIBCMT:dll_dllmain.obj
 0001:0000ac3c       __GSHandlerCheck           000000018000bc3c f   LIBCMT:_gshandler_.obj
 0001:0000ac5c       __GSHandlerCheckCommon     000000018000bc5c f   LIBCMT:_gshandler_.obj
 0001:0000acb8       __GSHandlerCheck_EH        000000018000bcb8 f   LIBCMT:gshandlereh.obj
 0001:0000ad38       _guard_check_icall         000000018000bd38 f i LIBCMT:checkcfg.obj
 0001:0000ad40       ??_Etype_info@@UEAAPEAXI@Z 000000018000bd40 f i LIBCMT:std_type_info_static.obj
 0001:0000ad40       ??_Gtype_info@@UEAAPEAXI@Z 000000018000bd40 f i LIBCMT:std_type_info_static.obj
 0001:0000ad80       _alloca_probe              000000018000bd80 f   LIBCMT:_chkstk_.obj
 0001:0000ad80       __chkstk                   000000018000bd80 f   LIBCMT:_chkstk_.obj
 0001:0000add4       __raise_securityfailure    000000018000bdd4 f   LIBCMT:gs_report.obj
 0001:0000ae08       __report_gsfailure         000000018000be08 f   LIBCMT:gs_report.obj
 0001:0000aedc       __report_rangecheckfailure 000000018000bedc f   LIBCMT:gs_report.obj
 0001:0000aef0       __report_securityfailure   000000018000bef0 f   LIBCMT:gs_report.obj
 0001:0000b070       __crt_debugger_hook        000000018000c070 f   LIBCMT:utility_desktop.obj
 0001:0000b078       __scrt_fastfail            000000018000c078 f   LIBCMT:utility_desktop.obj
 0001:0000b1c0       ??0bad_array_new_length@std@@QEAA@AEBV01@@Z 000000018000c1c0 f i LIBCMT:throw_bad_alloc.obj
 0001:0000b200       ??0bad_array_new_length@std@@QEAA@XZ 000000018000c200 f i LIBCMT:throw_bad_alloc.obj
 0001:0000b220       ?__scrt_throw_std_bad_array_new_length@@YAXXZ 000000018000c220 f   LIBCMT:throw_bad_alloc.obj
 0001:0000b240       __isa_available_init       000000018000c240 f   LIBCMT:_cpu_disp_.obj
 0001:0000b408       __scrt_is_ucrt_dll_in_use  000000018000c408 f   LIBCMT:ucrt_detection.obj
 0001:0000b414       __security_init_cookie     000000018000c414 f   LIBCMT:gs_support.obj
 0001:0000b4c0       ?__scrt_initialize_type_info@@YAXXZ 000000018000c4c0 f   LIBCMT:tncleanup.obj
 0001:0000b4d0       ?__scrt_uninitialize_type_info@@YAXXZ 000000018000c4d0 f   LIBCMT:tncleanup.obj
 0001:0000b4dc       __local_stdio_scanf_options 000000018000c4dc f i LIBCMT:default_local_stdio_options.obj
 0001:0000b4e4       __scrt_initialize_default_local_stdio_options 000000018000c4e4 f   LIBCMT:default_local_stdio_options.obj
 0001:0000b500       __scrt_get_dyn_tls_init_callback 000000018000c500 f   LIBCMT:dyn_tls_init.obj
 0001:0000b508       _RTC_Initialize            000000018000c508 f   LIBCMT:_initsect_.obj
 0001:0000b554       _RTC_Terminate             000000018000c554 f   LIBCMT:_initsect_.obj
 0001:0000b5b0       memmove                    000000018000c5b0 f   libvcruntime:memcpy.obj
 0001:0000b5b0       memcpy                     000000018000c5b0 f   libvcruntime:memcpy.obj
 0001:0000b9e8       _purecall                  000000018000c9e8 f   libvcruntime:purevirt.obj
 0001:0000ba24       memchr                     000000018000ca24 f   libvcruntime:memchr.obj
 0001:0000ba40       __DestructExceptionObject  000000018000ca40 f   libvcruntime:frame.obj
 0001:0000bac8       ??0bad_exception@std@@QEAA@AEBV01@@Z 000000018000cac8 f i libvcruntime:frame.obj
 0001:0000bb08       ??0bad_exception@std@@QEAA@XZ 000000018000cb08 f i libvcruntime:frame.obj
 0001:0000bb28       ??_Ebad_cast@std@@UEAAPEAXI@Z 000000018000cb28 f i libcpmt:cout.obj
 0001:0000bb28       ??_Ebad_array_new_length@std@@UEAAPEAXI@Z 000000018000cb28 f i LIBCMT:throw_bad_alloc.obj
 0001:0000bb28       ??_Glogic_error@std@@UEAAPEAXI@Z 000000018000cb28 f i libcpmt:xthrow.obj
 0001:0000bb28       ??_Eexception@std@@UEAAPEAXI@Z 000000018000cb28 f i libcpmt:cout.obj
 0001:0000bb28       ??_Gbad_cast@std@@UEAAPEAXI@Z 000000018000cb28 f i libcpmt:cout.obj
 0001:0000bb28       ??_Gbad_alloc@std@@UEAAPEAXI@Z 000000018000cb28 f i libcpmt:xthrow.obj
 0001:0000bb28       ??_Elogic_error@std@@UEAAPEAXI@Z 000000018000cb28 f i libcpmt:xthrow.obj
 0001:0000bb28       ??_Gexception@std@@UEAAPEAXI@Z 000000018000cb28 f i libcpmt:cout.obj
 0001:0000bb28       ??_Elength_error@std@@UEAAPEAXI@Z 000000018000cb28 f i libcpmt:xthrow.obj
 0001:0000bb28       ??_Gbad_exception@std@@UEAAPEAXI@Z 000000018000cb28 f i libvcruntime:frame.obj
 0001:0000bb28       ??_Gbad_array_new_length@std@@UEAAPEAXI@Z 000000018000cb28 f i LIBCMT:throw_bad_alloc.obj
 0001:0000bb28       ??_Ebad_alloc@std@@UEAAPEAXI@Z 000000018000cb28 f i libcpmt:xthrow.obj
 0001:0000bb28       ??_Ebad_exception@std@@UEAAPEAXI@Z 000000018000cb28 f i libvcruntime:frame.obj
 0001:0000bb28       ??_Gout_of_range@std@@UEAAPEAXI@Z 000000018000cb28 f i libcpmt:xthrow.obj
 0001:0000bb28       ??_Eout_of_range@std@@UEAAPEAXI@Z 000000018000cb28 f i libcpmt:xthrow.obj
 0001:0000bb28       ??_Glength_error@std@@UEAAPEAXI@Z 000000018000cb28 f i libcpmt:xthrow.obj
 0001:0000c4c8       ?_CallMemberFunction0@@YAXPEAXP6AX0@Z@Z 000000018000d4c8 f i libvcruntime:frame.obj
 0001:0000c4cc       ?_CallMemberFunction1@@YAXPEAXP6AX0@Z0@Z 000000018000d4cc f i libvcruntime:frame.obj
 0001:0000c4d8       ?_CallMemberFunction2@@YAXPEAXP6AX0@Z0H@Z 000000018000d4d8 f i libvcruntime:frame.obj
 0001:0000c4e8       __AdjustPointer            000000018000d4e8 f   libvcruntime:frame.obj
 0001:0000c50c       __BuildCatchObject         000000018000d50c f   libvcruntime:frame.obj
 0001:0000c5d0       __BuildCatchObjectHelper   000000018000d5d0 f   libvcruntime:frame.obj
 0001:0000c7b0       __CxxCallCatchBlock        000000018000d7b0 f   libvcruntime:frame.obj
 0001:0000c99c       __FrameUnwindFilter        000000018000d99c f   libvcruntime:frame.obj
 0001:0000c9e8       __FrameUnwindToState       000000018000d9e8 f   libvcruntime:frame.obj
 0001:0000cb7c       __InternalCxxFrameHandler  000000018000db7c f   libvcruntime:frame.obj
 0001:0000cdd4       __TypeMatch                000000018000ddd4 f   libvcruntime:frame.obj
 0001:0000cf14       __std_terminate            000000018000df14 f   libvcruntime:frame.obj
 0001:0000cf20       __std_exception_copy       000000018000df20 f   libvcruntime:std_exception.obj
 0001:0000cfb0       __std_exception_destroy    000000018000dfb0 f   libvcruntime:std_exception.obj
 0001:0000cfd8       _CxxThrowException         000000018000dfd8 f   libvcruntime:throw.obj
 0001:0000d0b0       ?_ExecutionInCatch@@YAHPEAU_xDISPATCHER_CONTEXT@@PEBU_s_FuncInfo@@@Z 000000018000e0b0 f   libvcruntime:trnsctrl.obj
 0001:0000d124       ?_GetEstablisherFrame@@YAPEA_KPEA_KPEAU_xDISPATCHER_CONTEXT@@PEBU_s_FuncInfo@@0@Z 000000018000e124 f   libvcruntime:trnsctrl.obj
 0001:0000d1f0       ?_GetRangeOfTrysToCheck@@YAPEBU_s_TryBlockMapEntry@@PEA_KPEBU_s_FuncInfo@@HHPEAI2PEAU_xDISPATCHER_CONTEXT@@@Z 000000018000e1f0 f   libvcruntime:trnsctrl.obj
 0001:0000d31c       ?__FrameUnwindToEmptyState@@YAXPEA_KPEAU_xDISPATCHER_CONTEXT@@PEBU_s_FuncInfo@@@Z 000000018000e31c f   libvcruntime:trnsctrl.obj
 0001:0000d3b0       ?__SehTransFilter@@YAHPEAU_EXCEPTION_POINTERS@@PEAUEHExceptionRecord@@PEA_KPEAU_CONTEXT@@PEAU_xDISPATCHER_CONTEXT@@PEBU_s_FuncInfo@@PEAH@Z 000000018000e3b0 f   libvcruntime:trnsctrl.obj
 0001:0000d448       _CallSETranslator          000000018000e448 f   libvcruntime:trnsctrl.obj
 0001:0000d4a0       _CreateFrameInfo           000000018000e4a0 f   libvcruntime:trnsctrl.obj
 0001:0000d4dc       _FindAndUnlinkFrame        000000018000e4dc f   libvcruntime:trnsctrl.obj
 0001:0000d534       _GetImageBase              000000018000e534 f   libvcruntime:trnsctrl.obj
 0001:0000d548       _GetThrowImageBase         000000018000e548 f   libvcruntime:trnsctrl.obj
 0001:0000d55c       _IsExceptionObjectToBeDestroyed 000000018000e55c f   libvcruntime:trnsctrl.obj
 0001:0000d58c       _SetImageBase              000000018000e58c f   libvcruntime:trnsctrl.obj
 0001:0000d5a4       _SetThrowImageBase         000000018000e5a4 f   libvcruntime:trnsctrl.obj
 0001:0000d5bc       _UnwindNestedFrames        000000018000e5bc f   libvcruntime:trnsctrl.obj
 0001:0000d6e0       __CxxFrameHandler3         000000018000e6e0 f   libvcruntime:trnsctrl.obj
 0001:0000d770       memset                     000000018000e770 f   libvcruntime:memset.obj
 0001:0000d920       memcmp                     000000018000e920 f   libvcruntime:memcmp.obj
 0001:0000dbb0       __vcrt_FlsAlloc            000000018000ebb0 f   libvcruntime:winapi_downlevel.obj
 0001:0000dc04       __vcrt_FlsFree             000000018000ec04 f   libvcruntime:winapi_downlevel.obj
 0001:0000dc58       __vcrt_FlsGetValue         000000018000ec58 f   libvcruntime:winapi_downlevel.obj
 0001:0000dcac       __vcrt_FlsSetValue         000000018000ecac f   libvcruntime:winapi_downlevel.obj
 0001:0000dd14       __vcrt_InitializeCriticalSectionEx 000000018000ed14 f   libvcruntime:winapi_downlevel.obj
 0001:0000dd8c       __vcrt_initialize_winapi_thunks 000000018000ed8c f   libvcruntime:winapi_downlevel.obj
 0001:0000ddd8       __vcrt_uninitialize_winapi_thunks 000000018000edd8 f   libvcruntime:winapi_downlevel.obj
 0001:0000de18       __vcrt_initialize          000000018000ee18 f   libvcruntime:initialization.obj
 0001:0000de4c       __vcrt_thread_attach       000000018000ee4c f   libvcruntime:initialization.obj
 0001:0000de60       __vcrt_thread_detach       000000018000ee60 f   libvcruntime:initialization.obj
 0001:0000de74       __vcrt_uninitialize        000000018000ee74 f   libvcruntime:initialization.obj
 0001:0000de94       __vcrt_uninitialize_critical 000000018000ee94 f   libvcruntime:initialization.obj
 0001:0000dea4       __C_specific_handler       000000018000eea4 f   libvcruntime:_chandler_.obj
 0001:0000e0a0       __std_type_info_compare    000000018000f0a0 f   libvcruntime:std_type_info.obj
 0001:0000e0c8       __std_type_info_destroy_list 000000018000f0c8 f   libvcruntime:std_type_info.obj
 0001:0000e0f4       __vcrt_initialize_pure_virtual_call_handler 000000018000f0f4 f   libvcruntime:purevirt_data.obj
 0001:0000e118       __vcrt_freefls             000000018000f118 f   libvcruntime:per_thread_data.obj
 0001:0000e138       __vcrt_freeptd             000000018000f138 f   libvcruntime:per_thread_data.obj
 0001:0000e188       __vcrt_getptd              000000018000f188 f   libvcruntime:per_thread_data.obj
 0001:0000e1a4       __vcrt_getptd_noexit       000000018000f1a4 f   libvcruntime:per_thread_data.obj
 0001:0000e25c       __vcrt_initialize_ptd      000000018000f25c f   libvcruntime:per_thread_data.obj
 0001:0000e29c       __vcrt_uninitialize_ptd    000000018000f29c f   libvcruntime:per_thread_data.obj
 0001:0000e2c0       ?__GetCurrentState@@YAHPEA_KPEAU_xDISPATCHER_CONTEXT@@PEBU_s_FuncInfo@@@Z 000000018000f2c0 f   libvcruntime:ehstate.obj
 0001:0000e2e8       ?__GetUnwindTryBlock@@YAHPEA_KPEAU_xDISPATCHER_CONTEXT@@PEBU_s_FuncInfo@@@Z 000000018000f2e8 f   libvcruntime:ehstate.obj
 0001:0000e314       ?__SetState@@YAXPEA_KPEAU_xDISPATCHER_CONTEXT@@PEBU_s_FuncInfo@@H@Z 000000018000f314 f   libvcruntime:ehstate.obj
 0001:0000e320       ?__SetUnwindTryBlock@@YAXPEA_KPEAU_xDISPATCHER_CONTEXT@@PEBU_s_FuncInfo@@H@Z 000000018000f320 f   libvcruntime:ehstate.obj
 0001:0000e35c       ?__StateFromControlPc@@YAHPEBU_s_FuncInfo@@PEAU_xDISPATCHER_CONTEXT@@@Z 000000018000f35c f   libvcruntime:ehstate.obj
 0001:0000e364       ?__StateFromIp@@YAHPEBU_s_FuncInfo@@PEAU_xDISPATCHER_CONTEXT@@_J@Z 000000018000f364 f   libvcruntime:ehstate.obj
 0001:0000e3e0       _CallSettingFrame          000000018000f3e0 f   libvcruntime:handlers.obj
 0001:0000e430       _local_unwind              000000018000f430 f   libvcruntime:_jmpuwind_.obj
 0001:0000e460       _NLG_Notify                000000018000f460 f   libvcruntime:_jmpuwind_.obj
 0001:0000e480       __NLG_Dispatch2            000000018000f480 f   libvcruntime:_jmpuwind_.obj
 0001:0000e490       __NLG_Return2              000000018000f490 f   libvcruntime:_jmpuwind_.obj
 0001:0000e494       __vcrt_initialize_locks    000000018000f494 f   libvcruntime:locks.obj
 0001:0000e4dc       __vcrt_uninitialize_locks  000000018000f4dc f   libvcruntime:locks.obj
 0001:0000e514       abort                      000000018000f514 f   libucrt:abort.obj
 0001:0000e56c       calloc                     000000018000f56c f   libucrt:calloc.obj
 0001:0000e6bc       ??$parse_floating_point@V?$c_string_character_source@D@__crt_strtox@@M@__crt_strtox@@YA?AW4SLD_STATUS@@QEAU__crt_locale_pointers@@V?$c_string_character_source@D@0@QEAM@Z 000000018000f6bc f i libucrt:strtod.obj
 0001:0000e75c       ??$parse_floating_point@V?$c_string_character_source@D@__crt_strtox@@N@__crt_strtox@@YA?AW4SLD_STATUS@@QEAU__crt_locale_pointers@@V?$c_string_character_source@D@0@QEAN@Z 000000018000f75c f i libucrt:strtod.obj
 0001:0000e7fc       ??$parse_floating_point_from_source@V?$c_string_character_source@D@__crt_strtox@@@__crt_strtox@@YA?AW4floating_point_parse_result@0@QEAU__crt_locale_pointers@@AEAV?$c_string_character_source@D@0@AEAUfloating_point_string@0@@Z 000000018000f7fc f i libucrt:strtod.obj
 0001:0000ece8       ??$parse_floating_point_possible_infinity@DV?$c_string_character_source@D@__crt_strtox@@PEBD@__crt_strtox@@YA?AW4floating_point_parse_result@0@AEADAEAV?$c_string_character_source@D@0@PEBD@Z 000000018000fce8 f i libucrt:strtod.obj
 0001:0000ee00       ??$parse_floating_point_possible_nan@DV?$c_string_character_source@D@__crt_strtox@@PEBD@__crt_strtox@@YA?AW4floating_point_parse_result@0@AEADAEAV?$c_string_character_source@D@0@PEBD@Z 000000018000fe00 f i libucrt:strtod.obj
 0001:0000ef94       ??$parse_floating_point_possible_nan_is_ind@DV?$c_string_character_source@D@__crt_strtox@@@__crt_strtox@@YA_NAEADAEAV?$c_string_character_source@D@0@@Z 000000018000ff94 f i libucrt:strtod.obj
 0001:0000efdc       ??$parse_floating_point_possible_nan_is_snan@DV?$c_string_character_source@D@__crt_strtox@@@__crt_strtox@@YA_NAEADAEAV?$c_string_character_source@D@0@@Z 000000018000ffdc f i libucrt:strtod.obj
 0001:0000f024       ??$parse_floating_point_write_result@M@__crt_strtox@@YA?AW4SLD_STATUS@@W4floating_point_parse_result@0@AEBUfloating_point_string@0@QEAM@Z 0000000180010024 f i libucrt:strtod.obj
 0001:0000f13c       ??$parse_floating_point_write_result@N@__crt_strtox@@YA?AW4SLD_STATUS@@W4floating_point_parse_result@0@AEBUfloating_point_string@0@QEAN@Z 000000018001013c f i libucrt:strtod.obj
 0001:0000f264       ??0_LocaleUpdate@@QEAA@QEAU__crt_locale_pointers@@@Z 0000000180010264 f i libucrt:strtod.obj
 0001:0000f340       ?as_double@floating_point_value@__crt_strtox@@QEBAAEANXZ 0000000180010340 f i libucrt:strtod.obj
 0001:0000f37c       ?as_float@floating_point_value@__crt_strtox@@QEBAAEAMXZ 000000018001037c f i libucrt:strtod.obj
 0001:0000f3b8       ?assemble_floating_point_value@__crt_strtox@@YA?AW4SLD_STATUS@@_KH_N1AEBVfloating_point_value@1@@Z 00000001800103b8 f i libucrt:strtod.obj
 0001:0000f76c       ?assemble_floating_point_value_from_big_integer@__crt_strtox@@YA?AW4SLD_STATUS@@AEBUbig_integer@1@I_N1AEBVfloating_point_value@1@@Z 000000018001076c f i libucrt:strtod.obj
 0001:0000f8f8       ?convert_decimal_string_to_floating_type_common@__crt_strtox@@YA?AW4SLD_STATUS@@AEBUfloating_point_string@1@AEBVfloating_point_value@1@@Z 00000001800108f8 f i libucrt:strtod.obj
 0001:000116bc       ?convert_hexadecimal_string_to_floating_type_common@__crt_strtox@@YA?AW4SLD_STATUS@@AEBUfloating_point_string@1@AEBVfloating_point_value@1@@Z 00000001800126bc f i libucrt:strtod.obj
 0001:00011770       ?divide@__crt_strtox@@YA_KAEAUbig_integer@1@AEBU21@@Z 0000000180012770 f i libucrt:strtod.obj
 0001:00011cc8       strtod                     0000000180012cc8 f   libucrt:strtod.obj
 0001:00011cd0       strtof                     0000000180012cd0 f   libucrt:strtod.obj
 0001:00011cd8       __acrt_call_reportfault    0000000180012cd8 f   libucrt:invalid_parameter.obj
 0001:00011e34       __acrt_initialize_invalid_parameter_handler 0000000180012e34 f   libucrt:invalid_parameter.obj
 0001:00011e3c       _invalid_parameter         0000000180012e3c f   libucrt:invalid_parameter.obj
 0001:00011ee4       _invalid_parameter_noinfo  0000000180012ee4 f   libucrt:invalid_parameter.obj
 0001:00011f04       _invalid_parameter_noinfo_noreturn 0000000180012f04 f   libucrt:invalid_parameter.obj
 0001:00011f34       _invoke_watson             0000000180012f34 f   libucrt:invalid_parameter.obj
 0001:00011f7c       localeconv                 0000000180012f7c f   libucrt:localeconv.obj
 0001:00011fb0       __acrt_errno_from_os_error 0000000180012fb0 f   libucrt:errno.obj
 0001:00011ff8       __acrt_errno_map_os_error  0000000180012ff8 f   libucrt:errno.obj
 0001:00012048       __doserrno                 0000000180013048 f   libucrt:errno.obj
 0001:00012068       _errno                     0000000180013068 f   libucrt:errno.obj
 0001:00012088       ldexp                      0000000180013088 f   libucrt:ldexp.obj
 0001:000121fc       free                       00000001800131fc f   libucrt:free.obj
 0001:00012204       __ascii_stricmp            0000000180013204 f   libucrt:stricmp.obj
 0001:00012240       _stricmp                   0000000180013240 f   libucrt:stricmp.obj
 0001:00012288       _stricmp_l                 0000000180013288 f   libucrt:stricmp.obj
 0001:0001233c       islower                    000000018001333c f i libucrt:_ctype.obj
 0001:000123b0       isspace                    00000001800133b0 f i libucrt:_ctype.obj
 0001:00012424       isupper                    0000000180013424 f i libucrt:_ctype.obj
 0001:000124e8       _tolower_l                 00000001800134e8 f   libucrt:tolower_toupper.obj
 0001:00012628       tolower                    0000000180013628 f   libucrt:tolower_toupper.obj
 0001:00012654       __acrt_initialize_locks    0000000180013654 f   libucrt:locks.obj
 0001:0001269c       __acrt_lock                000000018001369c f   libucrt:locks.obj
 0001:000126b8       __acrt_uninitialize_locks  00000001800136b8 f   libucrt:locks.obj
 0001:000126f0       __acrt_unlock              00000001800136f0 f   libucrt:locks.obj
 0001:0001270c       _lock_locales              000000018001370c f   libucrt:locks.obj
 0001:0001271c       _unlock_locales            000000018001371c f   libucrt:locks.obj
 0001:0001272c       __acrt_initialize_stdio    000000018001372c f   libucrt:_file.obj
 0001:0001284c       __acrt_iob_func            000000018001384c f   libucrt:_file.obj
 0001:00012860       __acrt_uninitialize_stdio  0000000180013860 f   libucrt:_file.obj
 0001:000128bc       _get_stream_buffer_pointers 00000001800138bc f   libucrt:_file.obj
 0001:00012904       _lock_file                 0000000180013904 f   libucrt:_file.obj
 0001:00012910       _unlock_file               0000000180013910 f   libucrt:_file.obj
 0001:0001291c       _fclose_nolock             000000018001391c f   libucrt:fclose.obj
 0001:000129a0       fclose                     00000001800139a0 f   libucrt:fclose.obj
 0001:00012a0c       __acrt_stdio_flush_nolock  0000000180013a0c f   libucrt:fflush.obj
 0001:00012a84       _fflush_nolock             0000000180013a84 f   libucrt:fflush.obj
 0001:00012ad0       _flushall                  0000000180013ad0 f   libucrt:fflush.obj
 0001:00012bc0       fflush                     0000000180013bc0 f   libucrt:fflush.obj
 0001:00012c04       _fgetc_nolock              0000000180013c04 f   libucrt:fgetc.obj
 0001:00012c48       fgetc                      0000000180013c48 f   libucrt:fgetc.obj
 0001:00012d4c       fgetpos                    0000000180013d4c f   libucrt:fgetpos.obj
 0001:00012d98       fputc                      0000000180013d98 f   libucrt:fputc.obj
 0001:00012eb8       fsetpos                    0000000180013eb8 f   libucrt:fsetpos.obj
 0001:00013164       _fseeki64                  0000000180014164 f   libucrt:fseek.obj
 0001:0001316c       ??$?RV<lambda_5d4c3fee44080f75d5d9762853974fe0>@@AEAV<lambda_532e024f4337e6fc7ad266c2bef9f4ed>@@V<lambda_c87bdc10097eb2402edb8ba9bdf0697b>@@@?$__crt_seh_guarded_call@_K@@QEAA_K$$QEAV<lambda_5d4c3fee44080f75d5d9762853974fe0>@@AEAV<lambda_532e024f4337e6fc7ad266c2bef9f4ed>@@$$QEAV<lambda_c87bdc10097eb2402edb8ba9bdf0697b>@@@Z 000000018001416c f i libucrt:fwrite.obj
 0001:00013210       _fwrite_nolock             0000000180014210 f   libucrt:fwrite.obj
 0001:000133ac       fwrite                     00000001800143ac f   libucrt:fwrite.obj
 0001:00013430       ??$?RV<lambda_7a5ef57ff966f610505f1d28a3d40618>@@AEAV<lambda_b721fa326cdb32351d23dfa67958c160>@@V<lambda_5e0fb27672408a07956fe59e48ccb2aa>@@@?$__crt_seh_guarded_call@H@@QEAAH$$QEAV<lambda_7a5ef57ff966f610505f1d28a3d40618>@@AEAV<lambda_b721fa326cdb32351d23dfa67958c160>@@$$QEAV<lambda_5e0fb27672408a07956fe59e48ccb2aa>@@@Z 0000000180014430 f i libucrt:setvbuf.obj
 0001:00013560       setvbuf                    0000000180014560 f   libucrt:setvbuf.obj
 0001:00013600       _ungetc_nolock             0000000180014600 f   libucrt:ungetc.obj
 0001:00013710       ungetc                     0000000180014710 f   libucrt:ungetc.obj
 0001:00013770       malloc                     0000000180014770 f   libucrt:malloc.obj
 0001:00013860       setlocale                  0000000180014860 f   libucrt:setlocale.obj
 0001:00013a2c       _calloc_base               0000000180014a2c f   libucrt:calloc_base.obj
 0001:00013aa4       __pctype_func              0000000180014aa4 f   libucrt:ctype.obj
 0001:00013ad4       _wcsdup                    0000000180014ad4 f   libucrt:wcsdup.obj
 0001:00013b58       ___lc_codepage_func        0000000180014b58 f   libucrt:initctype.obj
 0001:00013b88       ___lc_locale_name_func     0000000180014b88 f   libucrt:initctype.obj
 0001:00013bbc       ___mb_cur_max_func         0000000180014bbc f   libucrt:initctype.obj
 0001:00013bec       __acrt_locale_initialize_ctype 0000000180014bec f   libucrt:initctype.obj
 0001:00014238       _ismbblead                 0000000180015238 f   libucrt:ismbbyte.obj
 0001:0001424c       _malloc_base               000000018001524c f   libucrt:malloc_base.obj
 0001:000142ac       _realloc_base              00000001800152ac f   libucrt:realloc_base.obj
 0001:00014330       pow                        0000000180015330 f   libucrt:pow.obj
 0001:000159d0       powf                       00000001800169d0 f   libucrt:powf.obj
 0001:00016898       __strncnt                  0000000180017898 f   libucrt:strncnt.obj
 0001:000168b0       _free_base                 00000001800178b0 f   libucrt:free_base.obj
 0001:000168f0       wcscpy_s                   00000001800178f0 f   libucrt:wcscpy_s.obj
 0001:00016958       wcsnlen                    0000000180017958 f   libucrt:strnlen.obj
 0001:00016b48       __acrt_initialize_new_handler 0000000180017b48 f   libucrt:new_handler.obj
 0001:00016b50       _callnewh                  0000000180017b50 f   libucrt:new_handler.obj
 0001:00016b90       _query_new_handler         0000000180017b90 f   libucrt:new_handler.obj
 0001:00016bc4       _seh_filter_dll            0000000180017bc4 f   libucrt:exception_filter.obj
 0001:00016bd8       _seh_filter_exe            0000000180017bd8 f   libucrt:exception_filter.obj
 0001:00016f98       __acrt_initialize_thread_local_exit_callback 0000000180017f98 f   libucrt:exit.obj
 0001:00016fa0       _cexit                     0000000180017fa0 f   libucrt:exit.obj
 0001:00016fb0       _exit                      0000000180017fb0 f   libucrt:exit.obj
 0001:00016fbc       _is_c_termination_complete 0000000180017fbc f   libucrt:exit.obj
 0001:00017180       __acrt_allocate_buffer_for_argv 0000000180018180 f   libucrt:argv_parsing.obj
 0001:000171e4       _configure_narrow_argv     00000001800181e4 f   libucrt:argv_parsing.obj
 0001:00017540       __dcrt_uninitialize_environments_nolock 0000000180018540 f   libucrt:environment_initialization.obj
 0001:00017578       _initialize_narrow_environment 0000000180018578 f   libucrt:environment_initialization.obj
 0001:00017580       ??$?RV<lambda_b8c45f8f788dd370798f47cfe8ac3a86>@@AEAV<lambda_4e60a939b0d047cfe11ddc22648dfba9>@@V<lambda_332c3edc96d0294ec56c57d38c1cdfd5>@@@?$__crt_seh_guarded_call@H@@QEAAH$$QEAV<lambda_b8c45f8f788dd370798f47cfe8ac3a86>@@AEAV<lambda_4e60a939b0d047cfe11ddc22648dfba9>@@$$QEAV<lambda_332c3edc96d0294ec56c57d38c1cdfd5>@@@Z 0000000180018580 f i libucrt:onexit.obj
 0001:000175bc       ??$?RV<lambda_e24bbb7b643b32fcea6fa61b31d4c984>@@AEAV<lambda_275893d493268fdec8709772e3fcec0e>@@V<lambda_9d71df4d7cf3f480f8d633942495c3b0>@@@?$__crt_seh_guarded_call@H@@QEAAH$$QEAV<lambda_e24bbb7b643b32fcea6fa61b31d4c984>@@AEAV<lambda_275893d493268fdec8709772e3fcec0e>@@$$QEAV<lambda_9d71df4d7cf3f480f8d633942495c3b0>@@@Z 00000001800185bc f i libucrt:onexit.obj
 0001:00017938       _crt_atexit                0000000180018938 f   libucrt:onexit.obj
 0001:00017948       _execute_onexit_table      0000000180018948 f   libucrt:onexit.obj
 0001:00017984       _initialize_onexit_table   0000000180018984 f   libucrt:onexit.obj
 0001:000179c4       _register_onexit_function  00000001800189c4 f   libucrt:onexit.obj
 0001:00017a44       __acrt_uninitialize_command_line 0000000180018a44 f   libucrt:argv_data.obj
 0001:00017a44       ?do_always_noconv@?$codecvt@DDU_Mbstatet@@@std@@MEBA_NXZ 0000000180018a44 f   libcpmt:cout.obj
 0001:00017b44       __acrt_initialize          0000000180018b44 f   libucrt:initialization.obj
 0001:00017b58       __acrt_thread_attach       0000000180018b58 f   libucrt:initialization.obj
 0001:00017b6c       __acrt_thread_detach       0000000180018b6c f   libucrt:initialization.obj
 0001:00017b7c       __acrt_uninitialize        0000000180018b7c f   libucrt:initialization.obj
 0001:00017b90       __acrt_uninitialize_critical 0000000180018b90 f   libucrt:initialization.obj
 0001:00017ba0       _initterm                  0000000180018ba0 f   libucrt:initterm.obj
 0001:00017c18       _initterm_e                0000000180018c18 f   libucrt:initterm.obj
 0001:00017c64       terminate                  0000000180018c64 f   libucrt:terminate.obj
 0001:00017c8c       strcpy_s                   0000000180018c8c f   libucrt:strcpy_s.obj
 0001:00017cec       ??$is_overflow_condition@K@__crt_strtox@@YA_NIK@Z 0000000180018cec f i libucrt:atox.obj
 0001:00017d18       ??$make_c_string_character_source@DPEAPEAD@__crt_strtox@@YA?AV?$c_string_character_source@D@0@QEBDQEAPEAD@Z 0000000180018d18 f i libucrt:strtod.obj
 0001:00017d18       ??$make_c_string_character_source@_W$$T@__crt_strtox@@YA?AV?$c_string_character_source@_W@0@QEB_W$$T@Z 0000000180018d18 f i libucrt:atox.obj
 0001:00017d2c       ??$parse_integer@KV?$c_string_character_source@_W@__crt_strtox@@@__crt_strtox@@YAKQEAU__crt_locale_pointers@@V?$c_string_character_source@_W@0@H_N@Z 0000000180018d2c f i libucrt:atox.obj
 0001:00018400       _wtol                      0000000180019400 f   libucrt:atox.obj
 0001:0001842c       ??$?RV<lambda_c36588078e9f5dfd39652860aa6b3aaf>@@AEAV<lambda_ec61778202f4f5fc7e7711acc23c3bca>@@V<lambda_dc9d2797ccde5d239b4a0efae8ebd7db>@@@?$__crt_seh_guarded_call@P6AXH@Z@@QEAAP6AXH@Z$$QEAV<lambda_c36588078e9f5dfd39652860aa6b3aaf>@@AEAV<lambda_ec61778202f4f5fc7e7711acc23c3bca>@@$$QEAV<lambda_dc9d2797ccde5d239b4a0efae8ebd7db>@@@Z 000000018001942c f i libucrt:signal.obj
 0001:00018474       __acrt_get_sigabrt_handler 0000000180019474 f   libucrt:signal.obj
 0001:000184a4       __acrt_initialize_signal_handlers 00000001800194a4 f   libucrt:signal.obj
 0001:000184c4       raise                      00000001800194c4 f   libucrt:signal.obj
 0001:00018760       iswctype                   0000000180019760 f   libucrt:iswctype.obj
 0001:000187d0       _isctype_l                 00000001800197d0 f   libucrt:isctype.obj
 0001:000188e0       ??$?RV<lambda_46352004c1216016012b18bd6f87e700>@@AEAV<lambda_3bd07e1a1191394380780325891bf33f>@@V<lambda_334532d3f185bcaa59b5be82d7d22bff>@@@?$__crt_seh_guarded_call@X@@QEAAX$$QEAV<lambda_46352004c1216016012b18bd6f87e700>@@AEAV<lambda_3bd07e1a1191394380780325891bf33f>@@$$QEAV<lambda_334532d3f185bcaa59b5be82d7d22bff>@@@Z 00000001800198e0 f i libucrt:per_thread_data.obj
 0001:00018940       ??$?RV<lambda_5e887d1dcbef67a5eb4283622ba103bf>@@AEAV<lambda_4466841279450cc726390878d4a41900>@@V<lambda_341c25c0346d94847f1f3c463c57e077>@@@?$__crt_seh_guarded_call@X@@QEAAX$$QEAV<lambda_5e887d1dcbef67a5eb4283622ba103bf>@@AEAV<lambda_4466841279450cc726390878d4a41900>@@$$QEAV<lambda_341c25c0346d94847f1f3c463c57e077>@@@Z 0000000180019940 f i libucrt:per_thread_data.obj
 0001:00018988       ??$?RV<lambda_72d1df2b273a38828b1ce30cbf4cdab5>@@AEAV<lambda_876a65b173b8412d3a47c70a915b0cf4>@@V<lambda_41932305e351933ebe8f8be3ed8bb5dc>@@@?$__crt_seh_guarded_call@X@@QEAAX$$QEAV<lambda_72d1df2b273a38828b1ce30cbf4cdab5>@@AEAV<lambda_876a65b173b8412d3a47c70a915b0cf4>@@$$QEAV<lambda_41932305e351933ebe8f8be3ed8bb5dc>@@@Z 0000000180019988 f i libucrt:per_thread_data.obj
 0001:000189c8       ??$?RV<lambda_fb3a7dec4e47f37f22dae91bb15c9095>@@AEAV<lambda_698284760c8add0bfb0756c19673e34b>@@V<lambda_dfb8eca1e75fef3034a8fb18dd509707>@@@?$__crt_seh_guarded_call@X@@QEAAX$$QEAV<lambda_fb3a7dec4e47f37f22dae91bb15c9095>@@AEAV<lambda_698284760c8add0bfb0756c19673e34b>@@$$QEAV<lambda_dfb8eca1e75fef3034a8fb18dd509707>@@@Z 00000001800199c8 f i libucrt:per_thread_data.obj
 0001:00018c58       __acrt_freeptd             0000000180019c58 f   libucrt:per_thread_data.obj
 0001:00018c9c       __acrt_getptd              0000000180019c9c f   libucrt:per_thread_data.obj
 0001:00018d30       __acrt_getptd_noexit       0000000180019d30 f   libucrt:per_thread_data.obj
 0001:00018dd0       __acrt_initialize_ptd      0000000180019dd0 f   libucrt:per_thread_data.obj
 0001:00018e0c       __acrt_uninitialize_ptd    0000000180019e0c f   libucrt:per_thread_data.obj
 0001:00018e30       __acrt_update_locale_info  0000000180019e30 f   libucrt:locale_update.obj
 0001:00018e64       __acrt_update_multibyte_info 0000000180019e64 f   libucrt:locale_update.obj
 0001:00018e98       fegetround                 0000000180019e98 f   libucrt:fegetround.obj
 0001:00018eac       ?showmanyc@?$basic_streambuf@DU?$char_traits@D@std@@@std@@MEAA_JXZ 0000000180019eac f   libcpmt:cout.obj
 0001:00018eac       ?sync@?$basic_streambuf@DU?$char_traits@D@std@@@std@@MEAAHXZ 0000000180019eac f   libcpmt:cout.obj
 0001:00018eb0       ??$?RV<lambda_5df02c53a8f32f81fd64e5bbb78039f1>@@AEAV<lambda_2af78c5f5901b1372d98f9ab3177dfa6>@@AEAV<lambda_f51fe5fd7c79a33db34fc9310f277369>@@@?$__crt_seh_guarded_call@X@@QEAAX$$QEAV<lambda_5df02c53a8f32f81fd64e5bbb78039f1>@@AEAV<lambda_2af78c5f5901b1372d98f9ab3177dfa6>@@AEAV<lambda_f51fe5fd7c79a33db34fc9310f277369>@@@Z 0000000180019eb0 f i libucrt:wsetlocale.obj
 0001:00018edc       ??$?RV<lambda_d67e8342c384adda8f857579ab50b2ae>@@AEAV<lambda_30712929f77e709619002f448b6a9510>@@V<lambda_4525336fd7e478d965fb7ca7a337cad8>@@@?$__crt_seh_guarded_call@X@@QEAAX$$QEAV<lambda_d67e8342c384adda8f857579ab50b2ae>@@AEAV<lambda_30712929f77e709619002f448b6a9510>@@$$QEAV<lambda_4525336fd7e478d965fb7ca7a337cad8>@@@Z 0000000180019edc f i libucrt:wsetlocale.obj
 0001:000190a8       __acrt_copy_locale_name    000000018001a0a8 f   libucrt:wsetlocale.obj
 0001:0001912c       __acrt_set_locale_changed  000000018001a12c f   libucrt:wsetlocale.obj
 0001:00019138       __acrt_uninitialize_locale 000000018001a138 f   libucrt:wsetlocale.obj
 0001:00019180       __lc_lctowcs               000000018001a180 f   libucrt:wsetlocale.obj
 0001:00019224       __lc_wcstolc               000000018001a224 f   libucrt:wsetlocale.obj
 0001:0001949c       _expandlocale              000000018001a49c f   libucrt:wsetlocale.obj
 0001:00019898       _wcscats                   000000018001a898 f   libucrt:wsetlocale.obj
 0001:00019900       _wsetlocale                000000018001a900 f   libucrt:wsetlocale.obj
 0001:0001a14c       _copysign                  000000018001b14c f   libucrt:_copysign.obj
 0001:0001a184       _decomp                    000000018001b184 f   libucrt:util.obj
 0001:0001a2b8       _set_exp                   000000018001b2b8 f   libucrt:util.obj
 0001:0001a2f0       _sptype                    000000018001b2f0 f   libucrt:util.obj
 0001:0001a364       _errcode                   000000018001b364 f   libucrt:fpexcept.obj
 0001:0001a3a8       _except2                   000000018001b3a8 f   libucrt:fpexcept.obj
 0001:0001a4b0       _handle_exc                000000018001b4b0 f   libucrt:fpexcept.obj
 0001:0001a718       _handle_qnan2              000000018001b718 f   libucrt:fpexcept.obj
 0001:0001a720       _raise_exc                 000000018001b720 f   libucrt:fpexcept.obj
 0001:0001a748       _raise_exc_ex              000000018001b748 f   libucrt:fpexcept.obj
 0001:0001aa50       _raise_excf                000000018001ba50 f   libucrt:fpexcept.obj
 0001:0001aa7c       _set_errno_from_matherr    000000018001ba7c f   libucrt:fpexcept.obj
 0001:0001aaac       _umatherr                  000000018001baac f   libucrt:fpexcept.obj
 0001:0001ab80       _clrfp                     000000018001bb80 f   libucrt:fpctrl.obj
 0001:0001aba0       _ctrlfp                    000000018001bba0 f   libucrt:fpctrl.obj
 0001:0001ac1c       _set_statfp                000000018001bc1c f   libucrt:fpctrl.obj
 0001:0001ac3c       _statfp                    000000018001bc3c f   libucrt:fpctrl.obj
 0001:0001ac50       _isleadbyte_l              000000018001bc50 f i libucrt:_wctype.obj
 0001:0001afec       __acrt_LCMapStringA        000000018001bfec f   libucrt:lcmapstringa.obj
 0001:0001b0c8       ??$?RV<lambda_630b2aca97f6d20d5b5ea6529ea6b6af>@@AEAV<lambda_af91936f1d075d609f72d9d8cba980af>@@V<lambda_e82fa975f615b5c7c7b0e4d178fdae67>@@@?$__crt_seh_guarded_call@H@@QEAAH$$QEAV<lambda_630b2aca97f6d20d5b5ea6529ea6b6af>@@AEAV<lambda_af91936f1d075d609f72d9d8cba980af>@@$$QEAV<lambda_e82fa975f615b5c7c7b0e4d178fdae67>@@@Z 000000018001c0c8 f i libucrt:winapi_thunks.obj
 0001:0001b300       __acrt_EnumSystemLocalesEx 000000018001c300 f   libucrt:winapi_thunks.obj
 0001:0001b3a8       __acrt_FlsAlloc            000000018001c3a8 f   libucrt:winapi_thunks.obj
 0001:0001b400       __acrt_FlsFree             000000018001c400 f   libucrt:winapi_thunks.obj
 0001:0001b458       __acrt_FlsGetValue         000000018001c458 f   libucrt:winapi_thunks.obj
 0001:0001b4b0       __acrt_FlsSetValue         000000018001c4b0 f   libucrt:winapi_thunks.obj
 0001:0001b518       __acrt_GetLocaleInfoEx     000000018001c518 f   libucrt:winapi_thunks.obj
 0001:0001b5b0       __acrt_GetUserDefaultLocaleName 000000018001c5b0 f   libucrt:winapi_thunks.obj
 0001:0001b624       __acrt_InitializeCriticalSectionEx 000000018001c624 f   libucrt:winapi_thunks.obj
 0001:0001b69c       __acrt_IsValidLocaleName   000000018001c69c f   libucrt:winapi_thunks.obj
 0001:0001b704       __acrt_LCIDToLocaleName    000000018001c704 f   libucrt:winapi_thunks.obj
 0001:0001b790       __acrt_LCMapStringEx       000000018001c790 f   libucrt:winapi_thunks.obj
 0001:0001b880       __acrt_LocaleNameToLCID    000000018001c880 f   libucrt:winapi_thunks.obj
 0001:0001b8e8       __acrt_can_use_vista_locale_apis 000000018001c8e8 f   libucrt:winapi_thunks.obj
 0001:0001b918       __acrt_initialize_winapi_thunks 000000018001c918 f   libucrt:winapi_thunks.obj
 0001:0001b950       __acrt_is_packaged_app     000000018001c950 f   libucrt:winapi_thunks.obj
 0001:0001b9d8       __acrt_uninitialize_winapi_thunks 000000018001c9d8 f   libucrt:winapi_thunks.obj
 0001:0001ba1c       _fcloseall                 000000018001ca1c f   libucrt:closeall.obj
 0001:0001bad0       __acrt_stdio_free_buffer_nolock 000000018001cad0 f   libucrt:_freebuf.obj
 0001:0001bcf8       __acrt_initialize_lowio    000000018001ccf8 f   libucrt:ioinit.obj
 0001:0001bd34       __acrt_uninitialize_lowio  000000018001cd34 f   libucrt:ioinit.obj
 0001:0001bd74       ??$?RV<lambda_bfedae4ebbf01fab1bb6dcc6a9e276e0>@@AEAV<lambda_2fe9b910cf3cbf4a0ab98a02ba45b3ec>@@V<lambda_237c231691f317818eb88cc1d5d642d6>@@@?$__crt_seh_guarded_call@H@@QEAAH$$QEAV<lambda_bfedae4ebbf01fab1bb6dcc6a9e276e0>@@AEAV<lambda_2fe9b910cf3cbf4a0ab98a02ba45b3ec>@@$$QEAV<lambda_237c231691f317818eb88cc1d5d642d6>@@@Z 000000018001cd74 f i libucrt:close.obj
 0001:0001bde8       _close                     000000018001cde8 f   libucrt:close.obj
 0001:0001be8c       _close_nolock              000000018001ce8c f   libucrt:close.obj
 0001:0001bf48       _fileno                    000000018001cf48 f   libucrt:fileno.obj
 0001:0001bf70       ?__acrt_stdio_free_stream@@YAXV__crt_stdio_stream@@@Z 000000018001cf70 f   libucrt:stream.obj
 0001:0001bfb4       ??$?RV<lambda_b521505b218e5242e90febf6bfebc422>@@AEAV<lambda_6978c1fb23f02e42e1d9e99668cc68aa>@@V<lambda_314360699dd331753a4119843814e9a7>@@@?$__crt_seh_guarded_call@H@@QEAAH$$QEAV<lambda_b521505b218e5242e90febf6bfebc422>@@AEAV<lambda_6978c1fb23f02e42e1d9e99668cc68aa>@@$$QEAV<lambda_314360699dd331753a4119843814e9a7>@@@Z 000000018001cfb4 f i libucrt:commit.obj
 0001:0001c040       _commit                    000000018001d040 f   libucrt:commit.obj
 0001:0001c674       _write                     000000018001d674 f   libucrt:write.obj
 0001:0001c760       _write_nolock              000000018001d760 f   libucrt:write.obj
 0001:0001cbec       __acrt_stdio_refill_and_read_narrow_nolock 000000018001dbec f   libucrt:_filbuf.obj
 0001:0001d0b0       _ftelli64                  000000018001e0b0 f   libucrt:ftell.obj
 0001:0001d0b8       _ftelli64_nolock           000000018001e0b8 f   libucrt:ftell.obj
 0001:0001d1c4       __acrt_stdio_flush_and_write_narrow_nolock 000000018001e1c4 f   libucrt:_flsbuf.obj
 0001:0001d438       _lseeki64                  000000018001e438 f   libucrt:lseek.obj
 0001:0001d440       _lseeki64_nolock           000000018001e440 f   libucrt:lseek.obj
 0001:0001d448       __acrt_stdio_begin_temporary_buffering_nolock 000000018001e448 f   libucrt:_sftbuf.obj
 0001:0001d518       __acrt_stdio_end_temporary_buffering_nolock 000000018001e518 f   libucrt:_sftbuf.obj
 0001:0001d554       __acrt_stdio_allocate_buffer_nolock 000000018001e554 f   libucrt:_getbuf.obj
 0001:0001d794       _mbstowcs_s_l              000000018001e794 f   libucrt:mbstowcs.obj
 0001:0001d8c4       mbstowcs_s                 000000018001e8c4 f   libucrt:mbstowcs.obj
 0001:0001dc18       _wcstombs_s_l              000000018001ec18 f   libucrt:wcstombs.obj
 0001:0001dd04       _query_new_mode            000000018001ed04 f   libucrt:new_mode.obj
 0001:0001dd0c       __acrt_initialize_heap     000000018001ed0c f   libucrt:heap_handle.obj
 0001:0001dd28       __acrt_uninitialize_heap   000000018001ed28 f   libucrt:heap_handle.obj
 0001:0001ded4       __acrt_GetLocaleInfoA      000000018001eed4 f   libucrt:getlocaleinfoa.obj
 0001:0001e09c       __acrt_GetStringTypeA      000000018001f09c f   libucrt:getstringtypea.obj
 0001:0001e250       _mbtowc_l                  000000018001f250 f   libucrt:mbtowc.obj
 0001:0001e398       mbtowc                     000000018001f398 f   libucrt:mbtowc.obj
 0001:0001e3a0       __acrt_initialize_fma3     000000018001f3a0 f   libucrt:fma3_available.obj
 0001:0001e410       _pow_special               000000018001f410 f   libucrt:pow_special.obj
 0001:0001e534       _powf_special              000000018001f534 f   libucrt:pow_special.obj
 0001:0001e6c0       _wcsicmp                   000000018001f6c0 f   libucrt:wcsicmp.obj
 0001:0001e748       _wcsicmp_l                 000000018001f748 f   libucrt:wcsicmp.obj
 0001:0001e838       __acrt_initialize_timeset  000000018001f838 f   libucrt:timeset.obj
 0001:0001ed44       ?expand_if_necessary@?$argument_list@D@?A0xca0879c4@@AEAAHXZ 000000018001fd44 f i libucrt:argv_wildcards.obj
 0001:0001ee0c       __acrt_expand_narrow_argv_wildcards 000000018001fe0c f   libucrt:argv_wildcards.obj
 0001:0001ee14       ??$?RV<lambda_99476a1ad63dd22509b5d3e65b0ffc95>@@AEAV<lambda_ad1ced32f4ac17aa236e5ef05d6b3b7c>@@V<lambda_f7424dd8d45958661754dc4f2697e9c3>@@@?$__crt_seh_guarded_call@X@@QEAAX$$QEAV<lambda_99476a1ad63dd22509b5d3e65b0ffc95>@@AEAV<lambda_ad1ced32f4ac17aa236e5ef05d6b3b7c>@@$$QEAV<lambda_f7424dd8d45958661754dc4f2697e9c3>@@@Z 000000018001fe14 f i libucrt:mbctype.obj
 0001:0001f510       __acrt_initialize_multibyte 0000000180020510 f   libucrt:mbctype.obj
 0001:0001f538       __acrt_update_thread_multibyte_data 0000000180020538 f   libucrt:mbctype.obj
 0001:0001f5f8       _setmbcp_nolock            00000001800205f8 f   libucrt:mbctype.obj
 0001:0001f8a0       __acrt_initialize_command_line 00000001800208a0 f   libucrt:argv_data.obj
 0001:0001f8c8       __dcrt_get_narrow_environment_from_os 00000001800208c8 f   libucrt:get_environment_from_os.obj
 0001:0001f9cc       _recalloc                  00000001800209cc f   libucrt:recalloc.obj
 0001:0001f9d4       _recalloc_base             00000001800209d4 f   libucrt:recalloc.obj
 0001:0001fa6c       __acrt_execute_initializers 0000000180020a6c f   libucrt:shared_initialization.obj
 0001:0001fb00       __acrt_execute_uninitializers 0000000180020b00 f   libucrt:shared_initialization.obj
 0001:0001fb50       __acrt_has_user_matherr    0000000180020b50 f   libucrt:matherr.obj
 0001:0001fb70       __acrt_initialize_user_matherr 0000000180020b70 f   libucrt:matherr.obj
 0001:0001fb78       __acrt_invoke_user_matherr 0000000180020b78 f   libucrt:matherr.obj
 0001:0001fbc0       __acrt_add_locale_ref      0000000180020bc0 f   libucrt:locale_refcounting.obj
 0001:0001fc4c       __acrt_free_locale         0000000180020c4c f   libucrt:locale_refcounting.obj
 0001:0001fdc4       __acrt_locale_add_lc_time_reference 0000000180020dc4 f   libucrt:locale_refcounting.obj
 0001:0001fdec       __acrt_locale_free_lc_time_if_unreferenced 0000000180020dec f   libucrt:locale_refcounting.obj
 0001:0001fe24       __acrt_locale_release_lc_time_reference 0000000180020e24 f   libucrt:locale_refcounting.obj
 0001:0001fe4c       __acrt_release_locale_ref  0000000180020e4c f   libucrt:locale_refcounting.obj
 0001:0001fef4       __acrt_update_thread_locale_data 0000000180020ef4 f   libucrt:locale_refcounting.obj
 0001:0001ff64       _updatetlocinfoEx_nolock   0000000180020f64 f   libucrt:locale_refcounting.obj
 0001:0001ffcc       _getfpcontrolword          0000000180020fcc f   libucrt:_fenvutils.obj
 0001:0001ffe4       __acrt_locale_free_monetary 0000000180020fe4 f   libucrt:initmon.obj
 0001:000200f0       __acrt_locale_initialize_monetary 00000001800210f0 f   libucrt:initmon.obj
 0001:00020628       __acrt_locale_free_numeric 0000000180021628 f   libucrt:initnum.obj
 0001:00020694       __acrt_locale_initialize_numeric 0000000180021694 f   libucrt:initnum.obj
 0001:00020d18       __acrt_locale_free_time    0000000180021d18 f   libucrt:inittime.obj
 0001:00020e20       __acrt_locale_initialize_time 0000000180021e20 f   libucrt:inittime.obj
 0001:00020eb4       wcscat_s                   0000000180021eb4 f   libucrt:wcscat_s.obj
 0001:00020f34       wcsncpy_s                  0000000180021f34 f   libucrt:wcsncpy_s.obj
 0001:00021018       wcscspn                    0000000180022018 f   libucrt:wcscspn.obj
 0001:00021058       wcsncmp                    0000000180022058 f   libucrt:wcsncmp.obj
 0001:00021084       wcspbrk                    0000000180022084 f   libucrt:wcspbrk.obj
 0001:00021928       __acrt_get_qualified_locale 0000000180022928 f   libucrt:get_qualified_locale.obj
 0001:00022314       __acrt_get_qualified_locale_downlevel 0000000180023314 f   libucrt:getqloc_downlevel.obj
 0001:000225c0       _get_fpsr                  00000001800235c0 f   libucrt:fpsr.obj
 0001:000225d0       _set_fpsr                  00000001800235d0 f   libucrt:fpsr.obj
 0001:000225da       _fclrf                     00000001800235da f   libucrt:fpsr.obj
 0001:000225ee       _frnd                      00000001800235ee f   libucrt:fpsr.obj
 0001:000226d8       __acrt_DownlevelLCIDToLocaleName 00000001800236d8 f   libucrt:lcidtoname_downlevel.obj
 0001:000227bc       __acrt_DownlevelLocaleNameToLCID 00000001800237bc f   libucrt:lcidtoname_downlevel.obj
 0001:000227f0       __acrt_lowio_create_handle_array 00000001800237f0 f   libucrt:osfinfo.obj
 0001:00022888       __acrt_lowio_destroy_handle_array 0000000180023888 f   libucrt:osfinfo.obj
 0001:000228d8       __acrt_lowio_ensure_fh_exists 00000001800238d8 f   libucrt:osfinfo.obj
 0001:00022990       __acrt_lowio_lock_fh       0000000180023990 f   libucrt:osfinfo.obj
 0001:000229b4       __acrt_lowio_unlock_fh     00000001800239b4 f   libucrt:osfinfo.obj
 0001:000229d8       _free_osfhnd               00000001800239d8 f   libucrt:osfinfo.obj
 0001:00022a94       _get_osfhandle             0000000180023a94 f   libucrt:osfinfo.obj
 0001:00022b0c       _isatty                    0000000180023b0c f   libucrt:isatty.obj
 0001:00022b6c       _putwch_nolock             0000000180023b6c f   libucrt:putwch.obj
 0001:000230f8       _read                      00000001800240f8 f   libucrt:read.obj
 0001:00023210       _read_nolock               0000000180024210 f   libucrt:read.obj
 0001:00023678       strncpy_s                  0000000180024678 f   libucrt:strncpy_s.obj
 0001:00023870       _handle_error              0000000180024870 f   libucrt:libm_error.obj
 0001:00023998       _handle_errorf             0000000180024998 f   libucrt:libm_error.obj
 0001:00023acc       _handle_nan                0000000180024acc f   libucrt:libm_error.obj
 0001:00023ae8       _handle_nanf               0000000180024ae8 f   libucrt:libm_error.obj
 0001:00023af8       _towlower_l                0000000180024af8 f   libucrt:towlower.obj
 0001:00023c90       qsort                      0000000180024c90 f   libucrt:qsort.obj
 0001:00023fc4       strpbrk                    0000000180024fc4 f   libucrt:strpbrk.obj
 0001:00024064       _mbsdec                    0000000180025064 f   libucrt:mbsdec.obj
 0001:0002406c       _mbsdec_l                  000000018002506c f   libucrt:mbsdec.obj
 0001:0002411c       _msize                     000000018002511c f   libucrt:msize.obj
 0001:00024158       _controlfp                 0000000180025158 f   libucrt:ieee.obj
 0001:00024524       _itow_s                    0000000180025524 f   libucrt:xtoa.obj
 0001:00024544       _wcsnicmp                  0000000180025544 f   libucrt:wcsnicmp.obj
 0001:000245e0       _wcsnicmp_l                00000001800255e0 f   libucrt:wcsnicmp.obj
 0001:000246f8       wcscmp                     00000001800256f8 f   libucrt:wcscmp.obj
 0001:00024730       _query_app_type            0000000180025730 f   libucrt:report_runtime_error.obj
 0001:00024738       __dcrt_lowio_initialize_console_output 0000000180025738 f   libucrt:initcon.obj
 0001:00024774       __dcrt_terminate_console_output 0000000180025774 f   libucrt:initcon.obj
 0001:000247a0       log10                      00000001800257a0 f   libucrt:log10.obj
 0001:00024d4c       __acrt_LCMapStringW        0000000180025d4c f   libucrt:lcmapstringw.obj
 0001:00024de0       _log10_special             0000000180025de0 f   libucrt:log_special.obj
 0001:00024e96       IsProcessorFeaturePresent  0000000180025e96 f   kernel32:KERNEL32.dll
 0001:00024e9c       RtlUnwindEx                0000000180025e9c f   kernel32:KERNEL32.dll
 0001:00024ea4       ?DloadAcquireSectionWriteAccess@@YAXXZ 0000000180025ea4 f i DelayImp:delayhlp.obj
 0001:00024f60       ?DloadGetSRWLockFunctionPointers@@YAEXZ 0000000180025f60 f i DelayImp:delayhlp.obj
 0001:00024ffc       ?DloadMakePermanentImageCommit@@YAXPEAX_K@Z 0000000180025ffc f i DelayImp:delayhlp.obj
 0001:00025094       ?DloadObtainSection@@YAPEAXPEAK0@Z 0000000180026094 f i DelayImp:delayhlp.obj
 0001:0002512c       ?DloadProtectSection@@YAXKPEAK@Z 000000018002612c f i DelayImp:delayhlp.obj
 0001:000251bc       ?DloadReleaseSectionWriteAccess@@YAXXZ 00000001800261bc f i DelayImp:delayhlp.obj
 0001:00025260       __delayLoadHelper2         0000000180026260 f   DelayImp:delayhlp.obj
 0001:00025560       _FindPESection             0000000180026560 f   LIBCMT:pesect.obj
 0001:000255b0       _IsNonwritableInCurrentImage 00000001800265b0 f   LIBCMT:pesect.obj
 0001:00025600       _ValidateImageBase         0000000180026600 f   LIBCMT:pesect.obj
 0001:00025630       wcschr                     0000000180026630 f   libvcruntime:wcschr.obj
 0001:000256e0       _guard_dispatch_icall_nop  00000001800266e0 f   LIBCMT:_guard_dispatch_.obj
 0001:00025be0       ??__F_Static@?1???$_Immortalize@V_Iostream_error_category@std@@@std@@YAAEAV_Iostream_error_category@0@XZ@YAXXZ 0000000180026be0 f i cio.obj
 0002:00000000       __imp_GetModuleHandleA     0000000180027000     kernel32:KERNEL32.dll
 0002:00000008       __imp_WideCharToMultiByte  0000000180027008     kernel32:KERNEL32.dll
 0002:00000010       __imp_EnterCriticalSection 0000000180027010     kernel32:KERNEL32.dll
 0002:00000018       __imp_LeaveCriticalSection 0000000180027018     kernel32:KERNEL32.dll
 0002:00000020       __imp_DeleteCriticalSection 0000000180027020     kernel32:KERNEL32.dll
 0002:00000028       __imp_EncodePointer        0000000180027028     kernel32:KERNEL32.dll
 0002:00000030       __imp_DecodePointer        0000000180027030     kernel32:KERNEL32.dll
 0002:00000038       __imp_MultiByteToWideChar  0000000180027038     kernel32:KERNEL32.dll
 0002:00000040       __imp_SetLastError         0000000180027040     kernel32:KERNEL32.dll
 0002:00000048       __imp_InitializeCriticalSectionAndSpinCount 0000000180027048     kernel32:KERNEL32.dll
 0002:00000050       __imp_CreateEventW         0000000180027050     kernel32:KERNEL32.dll
 0002:00000058       __imp_TlsAlloc             0000000180027058     kernel32:KERNEL32.dll
 0002:00000060       __imp_TlsGetValue          0000000180027060     kernel32:KERNEL32.dll
 0002:00000068       __imp_TlsSetValue          0000000180027068     kernel32:KERNEL32.dll
 0002:00000070       __imp_TlsFree              0000000180027070     kernel32:KERNEL32.dll
 0002:00000078       __imp_GetSystemTimeAsFileTime 0000000180027078     kernel32:KERNEL32.dll
 0002:00000080       __imp_GetModuleHandleW     0000000180027080     kernel32:KERNEL32.dll
 0002:00000088       __imp_GetProcAddress       0000000180027088     kernel32:KERNEL32.dll
 0002:00000090       __imp_LCMapStringW         0000000180027090     kernel32:KERNEL32.dll
 0002:00000098       __imp_GetLocaleInfoW       0000000180027098     kernel32:KERNEL32.dll
 0002:000000a0       __imp_GetStringTypeW       00000001800270a0     kernel32:KERNEL32.dll
 0002:000000a8       __imp_GetCPInfo            00000001800270a8     kernel32:KERNEL32.dll
 0002:000000b0       __imp_CloseHandle          00000001800270b0     kernel32:KERNEL32.dll
 0002:000000b8       __imp_SetEvent             00000001800270b8     kernel32:KERNEL32.dll
 0002:000000c0       __imp_ResetEvent           00000001800270c0     kernel32:KERNEL32.dll
 0002:000000c8       __imp_WaitForSingleObjectEx 00000001800270c8     kernel32:KERNEL32.dll
 0002:000000d0       __imp_RtlCaptureContext    00000001800270d0     kernel32:KERNEL32.dll
 0002:000000d8       __imp_RtlLookupFunctionEntry 00000001800270d8     kernel32:KERNEL32.dll
 0002:000000e0       __imp_RtlVirtualUnwind     00000001800270e0     kernel32:KERNEL32.dll
 0002:000000e8       __imp_UnhandledExceptionFilter 00000001800270e8     kernel32:KERNEL32.dll
 0002:000000f0       __imp_SetUnhandledExceptionFilter 00000001800270f0     kernel32:KERNEL32.dll
 0002:000000f8       __imp_GetCurrentProcess    00000001800270f8     kernel32:KERNEL32.dll
 0002:00000100       __imp_TerminateProcess     0000000180027100     kernel32:KERNEL32.dll
 0002:00000108       __imp_IsProcessorFeaturePresent 0000000180027108     kernel32:KERNEL32.dll
 0002:00000110       __imp_IsDebuggerPresent    0000000180027110     kernel32:KERNEL32.dll
 0002:00000118       __imp_GetStartupInfoW      0000000180027118     kernel32:KERNEL32.dll
 0002:00000120       __imp_QueryPerformanceCounter 0000000180027120     kernel32:KERNEL32.dll
 0002:00000128       __imp_GetCurrentProcessId  0000000180027128     kernel32:KERNEL32.dll
 0002:00000130       __imp_GetCurrentThreadId   0000000180027130     kernel32:KERNEL32.dll
 0002:00000138       __imp_InitializeSListHead  0000000180027138     kernel32:KERNEL32.dll
 0002:00000140       __imp_RtlPcToFileHeader    0000000180027140     kernel32:KERNEL32.dll
 0002:00000148       __imp_RaiseException       0000000180027148     kernel32:KERNEL32.dll
 0002:00000150       __imp_RtlUnwindEx          0000000180027150     kernel32:KERNEL32.dll
 0002:00000158       __imp_GetLastError         0000000180027158     kernel32:KERNEL32.dll
 0002:00000160       __imp_FreeLibrary          0000000180027160     kernel32:KERNEL32.dll
 0002:00000168       __imp_LoadLibraryExW       0000000180027168     kernel32:KERNEL32.dll
 0002:00000170       __imp_InterlockedFlushSList 0000000180027170     kernel32:KERNEL32.dll
 0002:00000178       __imp_HeapAlloc            0000000180027178     kernel32:KERNEL32.dll
 0002:00000180       __imp_HeapReAlloc          0000000180027180     kernel32:KERNEL32.dll
 0002:00000188       __imp_HeapFree             0000000180027188     kernel32:KERNEL32.dll
 0002:00000190       __imp_ExitProcess          0000000180027190     kernel32:KERNEL32.dll
 0002:00000198       __imp_GetModuleHandleExW   0000000180027198     kernel32:KERNEL32.dll
 0002:000001a0       __imp_GetModuleFileNameA   00000001800271a0     kernel32:KERNEL32.dll
 0002:000001a8       __imp_GetACP               00000001800271a8     kernel32:KERNEL32.dll
 0002:000001b0       __imp_IsValidLocale        00000001800271b0     kernel32:KERNEL32.dll
 0002:000001b8       __imp_GetUserDefaultLCID   00000001800271b8     kernel32:KERNEL32.dll
 0002:000001c0       __imp_EnumSystemLocalesW   00000001800271c0     kernel32:KERNEL32.dll
 0002:000001c8       __imp_GetStdHandle         00000001800271c8     kernel32:KERNEL32.dll
 0002:000001d0       __imp_GetFileType          00000001800271d0     kernel32:KERNEL32.dll
 0002:000001d8       __imp_FlushFileBuffers     00000001800271d8     kernel32:KERNEL32.dll
 0002:000001e0       __imp_WriteFile            00000001800271e0     kernel32:KERNEL32.dll
 0002:000001e8       __imp_GetConsoleCP         00000001800271e8     kernel32:KERNEL32.dll
 0002:000001f0       __imp_GetConsoleMode       00000001800271f0     kernel32:KERNEL32.dll
 0002:000001f8       __imp_ReadFile             00000001800271f8     kernel32:KERNEL32.dll
 0002:00000200       __imp_SetFilePointerEx     0000000180027200     kernel32:KERNEL32.dll
 0002:00000208       __imp_GetProcessHeap       0000000180027208     kernel32:KERNEL32.dll
 0002:00000210       __imp_FindClose            0000000180027210     kernel32:KERNEL32.dll
 0002:00000218       __imp_FindFirstFileExA     0000000180027218     kernel32:KERNEL32.dll
 0002:00000220       __imp_FindNextFileA        0000000180027220     kernel32:KERNEL32.dll
 0002:00000228       __imp_IsValidCodePage      0000000180027228     kernel32:KERNEL32.dll
 0002:00000230       __imp_GetOEMCP             0000000180027230     kernel32:KERNEL32.dll
 0002:00000238       __imp_GetCommandLineA      0000000180027238     kernel32:KERNEL32.dll
 0002:00000240       __imp_GetCommandLineW      0000000180027240     kernel32:KERNEL32.dll
 0002:00000248       __imp_GetEnvironmentStringsW 0000000180027248     kernel32:KERNEL32.dll
 0002:00000250       __imp_FreeEnvironmentStringsW 0000000180027250     kernel32:KERNEL32.dll
 0002:00000258       __imp_SetStdHandle         0000000180027258     kernel32:KERNEL32.dll
 0002:00000260       __imp_WriteConsoleW        0000000180027260     kernel32:KERNEL32.dll
 0002:00000268       __imp_ReadConsoleW         0000000180027268     kernel32:KERNEL32.dll
 0002:00000270       __imp_HeapSize             0000000180027270     kernel32:KERNEL32.dll
 0002:00000278       __imp_CreateFileW          0000000180027278     kernel32:KERNEL32.dll
 0002:00000280       __imp_GetSystemInfo        0000000180027280     kernel32:KERNEL32.dll
 0002:00000288       __imp_VirtualProtect       0000000180027288     kernel32:KERNEL32.dll
 0002:00000290       __imp_VirtualQuery         0000000180027290     kernel32:KERNEL32.dll
 0002:00000298       __imp_LoadLibraryExA       0000000180027298     kernel32:KERNEL32.dll
 0002:000002a0       \177KERNEL32_NULL_THUNK_DATA 00000001800272a0     kernel32:KERNEL32.dll
 0002:000002a8       __guard_check_icall_fptr   00000001800272a8     LIBCMT:guard_support.obj
 0002:000002b0       __guard_dispatch_icall_fptr 00000001800272b0     LIBCMT:guard_support.obj
 0002:000002b8       __xc_a                     00000001800272b8     LIBCMT:initializers.obj
 0002:00000328       _register_cio_             0000000180027328     cio.obj
 0002:00000330       __xc_z                     0000000180027330     LIBCMT:initializers.obj
 0002:00000338       __xi_a                     0000000180027338     LIBCMT:initializers.obj
 0002:00000350       __acrt_stdio_initializer   0000000180027350     libucrt:stdio_initializer.obj
 0002:00000358       __acrt_tran_fma3_initializer 0000000180027358     libucrt:fma3_initializer.obj
 0002:00000360       __acrt_timeset_initializer 0000000180027360     libucrt:timeset_initializer.obj
 0002:00000368       __acrt_multibyte_initializer 0000000180027368     libucrt:multibyte_initializer.obj
 0002:00000370       __xi_z                     0000000180027370     LIBCMT:initializers.obj
 0002:00000378       __xl_a                     0000000180027378     LIBCMT:tlssup.obj
 0002:00000380       __xl_z                     0000000180027380     LIBCMT:tlssup.obj
 0002:00000388       __xp_a                     0000000180027388     LIBCMT:initializers.obj
 0002:00000390       __acrt_locale_terminator   0000000180027390     libucrt:locale_initializer.obj
 0002:00000398       __dcrt_console_output_terminator 0000000180027398     libucrt:console_output_initializer.obj
 0002:000003a0       __acrt_stdio_terminator    00000001800273a0     libucrt:stdio_initializer.obj
 0002:000003a8       __xp_z                     00000001800273a8     LIBCMT:initializers.obj
 0002:000003b0       __xt_a                     00000001800273b0     LIBCMT:initializers.obj
 0002:000003b8       __xt_z                     00000001800273b8     LIBCMT:initializers.obj
 0002:000003c0       __sz_node_exe              00000001800273c0     node:node.exe
 0002:00000680       ??_7exception@std@@6B@     0000000180027680     libcpmt:cout.obj
 0002:00000690       ??_C@_0BC@EOODALEL@Unknown?5exception?$AA@ 0000000180027690     libcpmt:cout.obj
 0002:000006b0       ??_7runtime_error@std@@6B@ 00000001800276b0     libcpmt:cout.obj
 0002:000006c8       ??_7bad_cast@std@@6B@      00000001800276c8     libcpmt:cout.obj
 0002:000006d8       ??_C@_08EPJLHIJG@bad?5cast?$AA@ 00000001800276d8     libcpmt:cout.obj
 0002:000006f0       ??_7_Facet_base@std@@6B@   00000001800276f0     libcpmt:cout.obj
 0002:00000710       ??_7?$ctype@D@std@@6B@     0000000180027710     libcpmt:cout.obj
 0002:00000770       ??_7error_category@std@@6B@ 0000000180027770     libcpmt:cout.obj
 0002:000007a8       ??_7_System_error@std@@6B@ 00000001800277a8     libcpmt:cout.obj
 0002:000007c0       ??_7_Iostream_error_category@std@@6B@ 00000001800277c0     libcpmt:cout.obj
 0002:000007f8       ??_7failure@ios_base@std@@6B@ 00000001800277f8     libcpmt:cout.obj
 0002:00000810       ??_7ios_base@std@@6B@      0000000180027810     libcpmt:cout.obj
 0002:00000820       ??_7?$basic_streambuf@DU?$char_traits@D@std@@@std@@6B@ 0000000180027820     libcpmt:cout.obj
 0002:000008a0       ??_7?$basic_filebuf@DU?$char_traits@D@std@@@std@@6B@ 00000001800278a0     libcpmt:cout.obj
 0002:00000920       ??_7?$basic_ios@DU?$char_traits@D@std@@@std@@6B@ 0000000180027920     libcpmt:cout.obj
 0002:00000930       ??_7?$basic_ostream@DU?$char_traits@D@std@@@std@@6B@ 0000000180027930     libcpmt:cout.obj
 0002:00000938       ??_8?$basic_ostream@DU?$char_traits@D@std@@@std@@7B@ 0000000180027938     libcpmt:cout.obj
 0002:00000948       ??_7?$codecvt@DDU_Mbstatet@@@std@@6B@ 0000000180027948     libcpmt:cout.obj
 0002:00000a68       ??_7_Locimp@locale@std@@6B@ 0000000180027a68     libcpmt:locale0.obj
 0002:00000a80       ??_C@_01NBENCBCI@?$CK?$AA@ 0000000180027a80     libcpmt:locale0.obj
 0002:00000a84       ??_C@_01GFHCPBMG@C?$AA@    0000000180027a84     libcpmt:locale0.obj
 0002:00000b08       ??_7?$basic_istream@DU?$char_traits@D@std@@@std@@6B@ 0000000180027b08     libcpmt:cin.obj
 0002:00000b10       ??_8?$basic_istream@DU?$char_traits@D@std@@@std@@7B@ 0000000180027b10     libcpmt:cin.obj
 0002:00000b20       ??_7bad_alloc@std@@6B@     0000000180027b20     libcpmt:xthrow.obj
 0002:00000b30       ??_C@_0P@GHFPNOJB@bad?5allocation?$AA@ 0000000180027b30     libcpmt:xthrow.obj
 0002:00000b48       ??_7logic_error@std@@6B@   0000000180027b48     libcpmt:xthrow.obj
 0002:00000b60       ??_7length_error@std@@6B@  0000000180027b60     libcpmt:xthrow.obj
 0002:00000b78       ??_7out_of_range@std@@6B@  0000000180027b78     libcpmt:xthrow.obj
 0002:000012c0       ??_C@_0BN@LKKBCCDB@address?5family?5not?5supported?$AA@ 00000001800282c0     libcpmt:syserror.obj
 0002:000012e0       ??_C@_0P@LDMLAFHI@address?5in?5use?$AA@ 00000001800282e0     libcpmt:syserror.obj
 0002:000012f0       ??_C@_0BG@DHPCNBJB@address?5not?5available?$AA@ 00000001800282f0     libcpmt:syserror.obj
 0002:00001308       ??_C@_0BC@DFIBIBIL@already?5connected?$AA@ 0000000180028308     libcpmt:syserror.obj
 0002:00001320       ??_C@_0BH@CAKOHOMI@argument?5list?5too?5long?$AA@ 0000000180028320     libcpmt:syserror.obj
 0002:00001338       ??_C@_0BH@CGIMPKIM@argument?5out?5of?5domain?$AA@ 0000000180028338     libcpmt:syserror.obj
 0002:00001350       ??_C@_0M@KGHGGJGL@bad?5address?$AA@ 0000000180028350     libcpmt:syserror.obj
 0002:00001360       ??_C@_0BE@MPJPGCEO@bad?5file?5descriptor?$AA@ 0000000180028360     libcpmt:syserror.obj
 0002:00001378       ??_C@_0M@PMMIEFCP@bad?5message?$AA@ 0000000180028378     libcpmt:syserror.obj
 0002:00001388       ??_C@_0M@KPHOFDBE@broken?5pipe?$AA@ 0000000180028388     libcpmt:syserror.obj
 0002:00001398       ??_C@_0BD@MGNDDEGM@connection?5aborted?$AA@ 0000000180028398     libcpmt:syserror.obj
 0002:000013b0       ??_C@_0BP@KAIHPOGN@connection?5already?5in?5progress?$AA@ 00000001800283b0     libcpmt:syserror.obj
 0002:000013d0       ??_C@_0BD@PJLIIJEL@connection?5refused?$AA@ 00000001800283d0     libcpmt:syserror.obj
 0002:000013e8       ??_C@_0BB@IECNJNOI@connection?5reset?$AA@ 00000001800283e8     libcpmt:syserror.obj
 0002:00001400       ??_C@_0BC@PPHBOELF@cross?5device?5link?$AA@ 0000000180028400     libcpmt:syserror.obj
 0002:00001418       ??_C@_0BN@KDMIFEIP@destination?5address?5required?$AA@ 0000000180028418     libcpmt:syserror.obj
 0002:00001438       ??_C@_0BI@NGCEHDD@device?5or?5resource?5busy?$AA@ 0000000180028438     libcpmt:syserror.obj
 0002:00001450       ??_C@_0BE@JIDOCPHM@directory?5not?5empty?$AA@ 0000000180028450     libcpmt:syserror.obj
 0002:00001468       ??_C@_0BI@BNCLIGPB@executable?5format?5error?$AA@ 0000000180028468     libcpmt:syserror.obj
 0002:00001480       ??_C@_0M@MIDIAGJP@file?5exists?$AA@ 0000000180028480     libcpmt:syserror.obj
 0002:00001490       ??_C@_0P@DNAJLBJK@file?5too?5large?$AA@ 0000000180028490     libcpmt:syserror.obj
 0002:000014a0       ??_C@_0BC@EJHOMAAK@filename?5too?5long?$AA@ 00000001800284a0     libcpmt:syserror.obj
 0002:000014b8       ??_C@_0BH@KEFGLDAF@function?5not?5supported?$AA@ 00000001800284b8     libcpmt:syserror.obj
 0002:000014d0       ??_C@_0BB@DHFDFGDM@host?5unreachable?$AA@ 00000001800284d0     libcpmt:syserror.obj
 0002:000014e8       ??_C@_0BD@JPHBMONG@identifier?5removed?$AA@ 00000001800284e8     libcpmt:syserror.obj
 0002:00001500       ??_C@_0BG@CDNPAGJK@illegal?5byte?5sequence?$AA@ 0000000180028500     libcpmt:syserror.obj
 0002:00001518       ??_C@_0CD@BNPLBMNA@inappropriate?5io?5control?5operati@ 0000000180028518     libcpmt:syserror.obj
 0002:00001540       ??_C@_0M@EGEKIIMP@interrupted?$AA@ 0000000180028540     libcpmt:syserror.obj
 0002:00001550       ??_C@_0BB@FCMFBGOM@invalid?5argument?$AA@ 0000000180028550     libcpmt:syserror.obj
 0002:00001568       ??_C@_0N@OHAFKDEK@invalid?5seek?$AA@ 0000000180028568     libcpmt:syserror.obj
 0002:00001578       ??_C@_08GLNPIFBN@io?5error?$AA@ 0000000180028578     libcpmt:syserror.obj
 0002:00001588       ??_C@_0P@FLLDBIDK@is?5a?5directory?$AA@ 0000000180028588     libcpmt:syserror.obj
 0002:00001598       ??_C@_0N@IFLPBIOP@message?5size?$AA@ 0000000180028598     libcpmt:syserror.obj
 0002:000015a8       ??_C@_0N@KIIEAAIO@network?5down?$AA@ 00000001800285a8     libcpmt:syserror.obj
 0002:000015b8       ??_C@_0O@FNPDBHEE@network?5reset?$AA@ 00000001800285b8     libcpmt:syserror.obj
 0002:000015c8       ??_C@_0BE@IFNCKGE@network?5unreachable?$AA@ 00000001800285c8     libcpmt:syserror.obj
 0002:000015e0       ??_C@_0BA@PFFCAOFK@no?5buffer?5space?$AA@ 00000001800285e0     libcpmt:syserror.obj
 0002:000015f0       ??_C@_0BB@IEPBLJHK@no?5child?5process?$AA@ 00000001800285f0     libcpmt:syserror.obj
 0002:00001608       ??_C@_07PLECNNKG@no?5link?$AA@ 0000000180028608     libcpmt:syserror.obj
 0002:00001610       ??_C@_0BC@NJECKMKE@no?5lock?5available?$AA@ 0000000180028610     libcpmt:syserror.obj
 0002:00001628       ??_C@_0BF@PBGGPKKE@no?5message?5available?$AA@ 0000000180028628     libcpmt:syserror.obj
 0002:00001640       ??_C@_0L@EDOLMPAK@no?5message?$AA@ 0000000180028640     libcpmt:syserror.obj
 0002:00001650       ??_C@_0BD@EAMBFIDF@no?5protocol?5option?$AA@ 0000000180028650     libcpmt:syserror.obj
 0002:00001668       ??_C@_0BD@IJDJKDEA@no?5space?5on?5device?$AA@ 0000000180028668     libcpmt:syserror.obj
 0002:00001680       ??_C@_0BE@MKFDAFMP@no?5stream?5resources?$AA@ 0000000180028680     libcpmt:syserror.obj
 0002:00001698       ??_C@_0BK@IMCPHCBI@no?5such?5device?5or?5address?$AA@ 0000000180028698     libcpmt:syserror.obj
 0002:000016b8       ??_C@_0P@FDINDDOK@no?5such?5device?$AA@ 00000001800286b8     libcpmt:syserror.obj
 0002:000016c8       ??_C@_0BK@NDOCBPGE@no?5such?5file?5or?5directory?$AA@ 00000001800286c8     libcpmt:syserror.obj
 0002:000016e8       ??_C@_0BA@ENLPPKBN@no?5such?5process?$AA@ 00000001800286e8     libcpmt:syserror.obj
 0002:000016f8       ??_C@_0BA@DOCPFFJG@not?5a?5directory?$AA@ 00000001800286f8     libcpmt:syserror.obj
 0002:00001708       ??_C@_0N@POEIPGGF@not?5a?5socket?$AA@ 0000000180028708     libcpmt:syserror.obj
 0002:00001718       ??_C@_0N@LGAPMMPI@not?5a?5stream?$AA@ 0000000180028718     libcpmt:syserror.obj
 0002:00001728       ??_C@_0O@GLMIBBEG@not?5connected?$AA@ 0000000180028728     libcpmt:syserror.obj
 0002:00001738       ??_C@_0BC@ENOOLCNF@not?5enough?5memory?$AA@ 0000000180028738     libcpmt:syserror.obj
 0002:00001750       ??_C@_0O@NHEDABJP@not?5supported?$AA@ 0000000180028750     libcpmt:syserror.obj
 0002:00001760       ??_C@_0BD@MOLBPMEA@operation?5canceled?$AA@ 0000000180028760     libcpmt:syserror.obj
 0002:00001778       ??_C@_0BG@KDKHOPCO@operation?5in?5progress?$AA@ 0000000180028778     libcpmt:syserror.obj
 0002:00001790       ??_C@_0BI@OHIEJAAB@operation?5not?5permitted?$AA@ 0000000180028790     libcpmt:syserror.obj
 0002:000017a8       ??_C@_0BI@LNEGIFLN@operation?5not?5supported?$AA@ 00000001800287a8     libcpmt:syserror.obj
 0002:000017c0       ??_C@_0BG@OEMDKMEE@operation?5would?5block?$AA@ 00000001800287c0     libcpmt:syserror.obj
 0002:000017d8       ??_C@_0L@BLPOFLNJ@owner?5dead?$AA@ 00000001800287d8     libcpmt:syserror.obj
 0002:000017e8       ??_C@_0BC@CIJDGCDI@permission?5denied?$AA@ 00000001800287e8     libcpmt:syserror.obj
 0002:00001800       ??_C@_0P@FNPOCJBE@protocol?5error?$AA@ 0000000180028800     libcpmt:syserror.obj
 0002:00001810       ??_C@_0BH@JPPPLHJB@protocol?5not?5supported?$AA@ 0000000180028810     libcpmt:syserror.obj
 0002:00001828       ??_C@_0BG@EICBIHDP@read?5only?5file?5system?$AA@ 0000000180028828     libcpmt:syserror.obj
 0002:00001840       ??_C@_0BO@BJBOMOEJ@resource?5deadlock?5would?5occur?$AA@ 0000000180028840     libcpmt:syserror.obj
 0002:00001860       ??_C@_0BP@LKNGHENJ@resource?5unavailable?5try?5again?$AA@ 0000000180028860     libcpmt:syserror.obj
 0002:00001880       ??_C@_0BE@GOIPJJHG@result?5out?5of?5range?$AA@ 0000000180028880     libcpmt:syserror.obj
 0002:00001898       ??_C@_0BG@MPLKFPAE@state?5not?5recoverable?$AA@ 0000000180028898     libcpmt:syserror.obj
 0002:000018b0       ??_C@_0P@DIIFGFCG@stream?5timeout?$AA@ 00000001800288b0     libcpmt:syserror.obj
 0002:000018c0       ??_C@_0P@IPFDMIFL@text?5file?5busy?$AA@ 00000001800288c0     libcpmt:syserror.obj
 0002:000018d0       ??_C@_09KJPPMAOI@timed?5out?$AA@ 00000001800288d0     libcpmt:syserror.obj
 0002:000018e0       ??_C@_0BO@HACHBEKI@too?5many?5files?5open?5in?5system?$AA@ 00000001800288e0     libcpmt:syserror.obj
 0002:00001900       ??_C@_0BE@GHAFMPAH@too?5many?5files?5open?$AA@ 0000000180028900     libcpmt:syserror.obj
 0002:00001918       ??_C@_0P@HCOMKFCC@too?5many?5links?$AA@ 0000000180028918     libcpmt:syserror.obj
 0002:00001928       ??_C@_0BO@EFGOJEF@too?5many?5symbolic?5link?5levels?$AA@ 0000000180028928     libcpmt:syserror.obj
 0002:00001948       ??_C@_0BA@KGKGOOJA@value?5too?5large?$AA@ 0000000180028948     libcpmt:syserror.obj
 0002:00001958       ??_C@_0BE@MIEJDDNH@wrong?5protocol?5type?$AA@ 0000000180028958     libcpmt:syserror.obj
 0002:00001970       ??_C@_0O@BFJCFAAK@unknown?5error?$AA@ 0000000180028970     libcpmt:syserror.obj
 0002:000019d0       ?_BADOFF@std@@3_JB         00000001800289d0     libcpmt:ios.obj
 0002:00001a08       ??_7?$num_get@DV?$istreambuf_iterator@DU?$char_traits@D@std@@@std@@@std@@6B@ 0000000180028a08     libcpmt:locale.obj
 0002:00001a80       ??_7?$numpunct@D@std@@6B@  0000000180028a80     libcpmt:locale.obj
 0002:00001ac0       ??_C@_1BK@MGMFAEKH@?$AAk?$AAe?$AAr?$AAn?$AAe?$AAl?$AA3?$AA2?$AA?4?$AAd?$AAl?$AAl?$AA?$AA@ 0000000180028ac0     libcpmt:winapisupp.obj
 0002:00001ae0       ??_C@_08KNHFBNJ@FlsAlloc?$AA@ 0000000180028ae0     libcpmt:winapisupp.obj
 0002:00001af0       ??_C@_07PEJMOBNF@FlsFree?$AA@ 0000000180028af0     libcpmt:winapisupp.obj
 0002:00001af8       ??_C@_0M@GDNOONDI@FlsGetValue?$AA@ 0000000180028af8     libcpmt:winapisupp.obj
 0002:00001b08       ??_C@_0M@JCPCPOEF@FlsSetValue?$AA@ 0000000180028b08     libcpmt:winapisupp.obj
 0002:00001b18       ??_C@_0BM@HCFOFFN@InitializeCriticalSectionEx?$AA@ 0000000180028b18     libcpmt:winapisupp.obj
 0002:00001b38       ??_C@_0BE@GPLMMCMH@InitOnceExecuteOnce?$AA@ 0000000180028b38     libcpmt:winapisupp.obj
 0002:00001b50       ??_C@_0P@DLHPPCNH@CreateEventExW?$AA@ 0000000180028b50     libcpmt:winapisupp.obj
 0002:00001b60       ??_C@_0BB@MEFPJLHN@CreateSemaphoreW?$AA@ 0000000180028b60     libcpmt:winapisupp.obj
 0002:00001b78       ??_C@_0BD@KIEEOEEH@CreateSemaphoreExW?$AA@ 0000000180028b78     libcpmt:winapisupp.obj
 0002:00001b90       ??_C@_0BG@OGFAJCKC@CreateThreadpoolTimer?$AA@ 0000000180028b90     libcpmt:winapisupp.obj
 0002:00001ba8       ??_C@_0BD@LPLEMMDI@SetThreadpoolTimer?$AA@ 0000000180028ba8     libcpmt:winapisupp.obj
 0002:00001bc0       ??_C@_0CA@FMNJENH@WaitForThreadpoolTimerCallbacks?$AA@ 0000000180028bc0     libcpmt:winapisupp.obj
 0002:00001be0       ??_C@_0BF@DCFCCNOC@CloseThreadpoolTimer?$AA@ 0000000180028be0     libcpmt:winapisupp.obj
 0002:00001bf8       ??_C@_0BF@FLABGKKM@CreateThreadpoolWait?$AA@ 0000000180028bf8     libcpmt:winapisupp.obj
 0002:00001c10       ??_C@_0BC@MGCOHNA@SetThreadpoolWait?$AA@ 0000000180028c10     libcpmt:winapisupp.obj
 0002:00001c28       ??_C@_0BE@OCIOMIMP@CloseThreadpoolWait?$AA@ 0000000180028c28     libcpmt:winapisupp.obj
 0002:00001c40       ??_C@_0BJ@LKGHFHBO@FlushProcessWriteBuffers?$AA@ 0000000180028c40     libcpmt:winapisupp.obj
 0002:00001c60       ??_C@_0BP@KALKKPMO@FreeLibraryWhenCallbackReturns?$AA@ 0000000180028c60     libcpmt:winapisupp.obj
 0002:00001c80       ??_C@_0BK@DFNBACLA@GetCurrentProcessorNumber?$AA@ 0000000180028c80     libcpmt:winapisupp.obj
 0002:00001ca0       ??_C@_0BE@FKKLLFLM@CreateSymbolicLinkW?$AA@ 0000000180028ca0     libcpmt:winapisupp.obj
 0002:00001cb8       ??_C@_0BE@JOGNEJCI@GetCurrentPackageId?$AA@ 0000000180028cb8     libcpmt:winapisupp.obj
 0002:00001cd0       ??_C@_0P@CDHHOHKP@GetTickCount64?$AA@ 0000000180028cd0     libcpmt:winapisupp.obj
 0002:00001ce0       ??_C@_0BN@NEEHBBPO@GetFileInformationByHandleEx?$AA@ 0000000180028ce0     libcpmt:winapisupp.obj
 0002:00001d00       ??_C@_0BL@KBBHGKCM@SetFileInformationByHandle?$AA@ 0000000180028d00     libcpmt:winapisupp.obj
 0002:00001d20       ??_C@_0BP@FPNJPEJC@GetSystemTimePreciseAsFileTime?$AA@ 0000000180028d20     libcpmt:winapisupp.obj
 0002:00001d40       ??_C@_0BM@HLJJNPAH@InitializeConditionVariable?$AA@ 0000000180028d40     libcpmt:winapisupp.obj
 0002:00001d60       ??_C@_0BG@BFNILBLN@WakeConditionVariable?$AA@ 0000000180028d60     libcpmt:winapisupp.obj
 0002:00001d78       ??_C@_0BJ@PGPPEPCC@WakeAllConditionVariable?$AA@ 0000000180028d78     libcpmt:winapisupp.obj
 0002:00001d98       ??_C@_0BJ@JEBJOJFJ@SleepConditionVariableCS?$AA@ 0000000180028d98     libcpmt:winapisupp.obj
 0002:00001db8       ??_C@_0BC@MMLHEBPB@InitializeSRWLock?$AA@ 0000000180028db8     libcpmt:winapisupp.obj
 0002:00001dd0       ??_C@_0BI@OMNLIJDB@AcquireSRWLockExclusive?$AA@ 0000000180028dd0     libcpmt:winapisupp.obj
 0002:00001de8       ??_C@_0BL@OGHFEMNA@TryAcquireSRWLockExclusive?$AA@ 0000000180028de8     libcpmt:winapisupp.obj
 0002:00001e08       ??_C@_0BI@HMIEPCNJ@ReleaseSRWLockExclusive?$AA@ 0000000180028e08     libcpmt:winapisupp.obj
 0002:00001e20       ??_C@_0BK@LGACAGIC@SleepConditionVariableSRW?$AA@ 0000000180028e20     libcpmt:winapisupp.obj
 0002:00001e40       ??_C@_0BF@GGPHFPJA@CreateThreadpoolWork?$AA@ 0000000180028e40     libcpmt:winapisupp.obj
 0002:00001e58       ??_C@_0BF@NHDAIMMO@SubmitThreadpoolWork?$AA@ 0000000180028e58     libcpmt:winapisupp.obj
 0002:00001e70       ??_C@_0BE@NPHIPNPD@CloseThreadpoolWork?$AA@ 0000000180028e70     libcpmt:winapisupp.obj
 0002:00001e88       ??_C@_0BA@IHGNDAEB@CompareStringEx?$AA@ 0000000180028e88     libcpmt:winapisupp.obj
 0002:00001e98       ??_C@_0BA@ONOKGCMP@GetLocaleInfoEx?$AA@ 0000000180028e98     libcpmt:winapisupp.obj
 0002:00001ea8       ??_C@_0O@KKBNKAPF@LCMapStringEx?$AA@ 0000000180028ea8     libcpmt:winapisupp.obj
 0002:00001eb8       ??_C@_11LOCGONAA@?$AA?$AA@ 0000000180028eb8     libcpmt:wlocale.obj
 0002:00001ebc       ??_C@_01JOAMLHOP@?9?$AA@   0000000180028ebc     libcpmt:wlocale.obj
 0002:00001ec0       __xmm@80000000000000008000000000000000 0000000180028ec0     libcpmt:wlocale.obj
 0002:00001ed0       ??_C@_1M@JKFFICHJ@?$AAe?$AAs?$AA?9?$AAv?$AAe?$AA?$AA@ 0000000180028ed0     libcpmt:winapinls.obj
 0002:00001ee0       ??_C@_1M@PNMLOJDF@?$AAe?$AAt?$AA?9?$AAe?$AAe?$AA?$AA@ 0000000180028ee0     libcpmt:winapinls.obj
 0002:00001ef0       ??_C@_1M@GHHLIKEI@?$AAe?$AAu?$AA?9?$AAe?$AAs?$AA?$AA@ 0000000180028ef0     libcpmt:winapinls.obj
 0002:00001f00       ??_C@_1M@PBNONODE@?$AAf?$AAa?$AA?9?$AAi?$AAr?$AA?$AA@ 0000000180028f00     libcpmt:winapinls.obj
 0002:00001f10       ??_C@_1M@JEEHPMIL@?$AAf?$AAi?$AA?9?$AAf?$AAi?$AA?$AA@ 0000000180028f10     libcpmt:winapinls.obj
 0002:00001f20       ??_C@_1M@LMDCNDBA@?$AAf?$AAo?$AA?9?$AAf?$AAo?$AA?$AA@ 0000000180028f20     libcpmt:winapinls.obj
 0002:00001f30       ??_C@_1M@JKEOHLDK@?$AAf?$AAr?$AA?9?$AAb?$AAe?$AA?$AA@ 0000000180028f30     libcpmt:winapinls.obj
 0002:00001f40       ??_C@_1M@NOHADPMI@?$AAf?$AAr?$AA?9?$AAc?$AAa?$AA?$AA@ 0000000180028f40     libcpmt:winapinls.obj
 0002:00001f50       ??_C@_1M@KDHIHAEC@?$AAf?$AAr?$AA?9?$AAc?$AAh?$AA?$AA@ 0000000180028f50     libcpmt:winapinls.obj
 0002:00001f60       ??_C@_1M@MMBBFGAK@?$AAf?$AAr?$AA?9?$AAf?$AAr?$AA?$AA@ 0000000180028f60     libcpmt:winapinls.obj
 0002:00001f70       ??_C@_1M@PAFNENNF@?$AAf?$AAr?$AA?9?$AAl?$AAu?$AA?$AA@ 0000000180028f70     libcpmt:winapinls.obj
 0002:00001f80       ??_C@_1M@EOHDJGDD@?$AAf?$AAr?$AA?9?$AAm?$AAc?$AA?$AA@ 0000000180028f80     libcpmt:winapinls.obj
 0002:00001f90       ??_C@_1M@FAPLLOPF@?$AAg?$AAl?$AA?9?$AAe?$AAs?$AA?$AA@ 0000000180028f90     libcpmt:winapinls.obj
 0002:00001fa0       ??_C@_1M@FOPBFLOO@?$AAg?$AAu?$AA?9?$AAi?$AAn?$AA?$AA@ 0000000180028fa0     libcpmt:winapinls.obj
 0002:00001fb0       ??_C@_1M@KBMCINPM@?$AAh?$AAe?$AA?9?$AAi?$AAl?$AA?$AA@ 0000000180028fb0     libcpmt:winapinls.obj
 0002:00001fc0       ??_C@_1M@BBPHKFPJ@?$AAh?$AAi?$AA?9?$AAi?$AAn?$AA?$AA@ 0000000180028fc0     libcpmt:winapinls.obj
 0002:00001fd0       ??_C@_1M@PMBNDPHD@?$AAh?$AAr?$AA?9?$AAb?$AAa?$AA?$AA@ 0000000180028fd0     libcpmt:winapinls.obj
 0002:00001fe0       ??_C@_1M@BPCKOEGE@?$AAh?$AAr?$AA?9?$AAh?$AAr?$AA?$AA@ 0000000180028fe0     libcpmt:winapinls.obj
 0002:00001ff0       ??_C@_1M@GACBMHKE@?$AAh?$AAu?$AA?9?$AAh?$AAu?$AA?$AA@ 0000000180028ff0     libcpmt:winapinls.obj
 0002:00002000       ??_C@_1M@MILPAJJC@?$AAh?$AAy?$AA?9?$AAa?$AAm?$AA?$AA@ 0000000180029000     libcpmt:winapinls.obj
 0002:00002010       ??_C@_1M@BABBICEC@?$AAi?$AAd?$AA?9?$AAi?$AAd?$AA?$AA@ 0000000180029010     libcpmt:winapinls.obj
 0002:00002020       ??_C@_1M@BIKNHHPF@?$AAi?$AAs?$AA?9?$AAi?$AAs?$AA?$AA@ 0000000180029020     libcpmt:winapinls.obj
 0002:00002030       ??_C@_1M@NMPCJPHE@?$AAi?$AAt?$AA?9?$AAc?$AAh?$AA?$AA@ 0000000180029030     libcpmt:winapinls.obj
 0002:00002040       ??_C@_1M@GHKGFEDF@?$AAi?$AAt?$AA?9?$AAi?$AAt?$AA?$AA@ 0000000180029040     libcpmt:winapinls.obj
 0002:00002050       ??_C@_1M@NIEJCJJA@?$AAj?$AAa?$AA?9?$AAj?$AAp?$AA?$AA@ 0000000180029050     libcpmt:winapinls.obj
 0002:00002060       ??_C@_1M@JILFNBIM@?$AAk?$AAa?$AA?9?$AAg?$AAe?$AA?$AA@ 0000000180029060     libcpmt:winapinls.obj
 0002:00002070       ??_C@_1M@PACPMGPH@?$AAk?$AAk?$AA?9?$AAk?$AAz?$AA?$AA@ 0000000180029070     libcpmt:winapinls.obj
 0002:00002080       ??_C@_1M@IELFGMHA@?$AAk?$AAn?$AA?9?$AAi?$AAn?$AA?$AA@ 0000000180029080     libcpmt:winapinls.obj
 0002:00002090       ??_C@_1M@DMHAEOGC@?$AAk?$AAo?$AA?9?$AAk?$AAr?$AA?$AA@ 0000000180029090     libcpmt:winapinls.obj
 0002:000020a0       ??_C@_1O@IBBJHCH@?$AAk?$AAo?$AAk?$AA?9?$AAi?$AAn?$AA?$AA@ 00000001800290a0     libcpmt:winapinls.obj
 0002:000020b0       ??_C@_1M@HBAHBIGA@?$AAk?$AAy?$AA?9?$AAk?$AAg?$AA?$AA@ 00000001800290b0     libcpmt:winapinls.obj
 0002:000020c0       ??_C@_1M@KPMILCJG@?$AAl?$AAt?$AA?9?$AAl?$AAt?$AA?$AA@ 00000001800290c0     libcpmt:winapinls.obj
 0002:000020d0       ??_C@_1M@BDEKKCA@?$AAl?$AAv?$AA?9?$AAl?$AAv?$AA?$AA@ 00000001800290d0     libcpmt:winapinls.obj
 0002:000020e0       ??_C@_1M@ELCKCCJJ@?$AAm?$AAi?$AA?9?$AAn?$AAz?$AA?$AA@ 00000001800290e0     libcpmt:winapinls.obj
 0002:000020f0       ??_C@_1M@CBOOLAPA@?$AAm?$AAk?$AA?9?$AAm?$AAk?$AA?$AA@ 00000001800290f0     libcpmt:winapinls.obj
 0002:00002100       ??_C@_1M@GPHNBJKN@?$AAm?$AAl?$AA?9?$AAi?$AAn?$AA?$AA@ 0000000180029100     libcpmt:winapinls.obj
 0002:00002110       ??_C@_1M@PABJILIG@?$AAm?$AAn?$AA?9?$AAm?$AAn?$AA?$AA@ 0000000180029110     libcpmt:winapinls.obj
 0002:00002120       ??_C@_1M@FGBKKIPG@?$AAm?$AAr?$AA?9?$AAi?$AAn?$AA?$AA@ 0000000180029120     libcpmt:winapinls.obj
 0002:00002130       ??_C@_1M@NDBPDDAL@?$AAm?$AAs?$AA?9?$AAb?$AAn?$AA?$AA@ 0000000180029130     libcpmt:winapinls.obj
 0002:00002140       ??_C@_1M@OPIHOOPI@?$AAm?$AAs?$AA?9?$AAm?$AAy?$AA?$AA@ 0000000180029140     libcpmt:winapinls.obj
 0002:00002150       ??_C@_1M@PPDBCNFM@?$AAm?$AAt?$AA?9?$AAm?$AAt?$AA?$AA@ 0000000180029150     libcpmt:winapinls.obj
 0002:00002160       ??_C@_1M@KDJDKMDD@?$AAn?$AAb?$AA?9?$AAn?$AAo?$AA?$AA@ 0000000180029160     libcpmt:winapinls.obj
 0002:00002170       ??_C@_1M@KFCFLMJP@?$AAn?$AAl?$AA?9?$AAb?$AAe?$AA?$AA@ 0000000180029170     libcpmt:winapinls.obj
 0002:00002180       ??_C@_1M@KPOPDDGO@?$AAn?$AAl?$AA?9?$AAn?$AAl?$AA?$AA@ 0000000180029180     libcpmt:winapinls.obj
 0002:00002190       ??_C@_1M@LJKPEMLN@?$AAn?$AAn?$AA?9?$AAn?$AAo?$AA?$AA@ 0000000180029190     libcpmt:winapinls.obj
 0002:000021a0       ??_C@_1M@BDGHHBFL@?$AAn?$AAs?$AA?9?$AAz?$AAa?$AA?$AA@ 00000001800291a0     libcpmt:winapinls.obj
 0002:000021b0       ??_C@_1M@IDEHOAP@?$AAp?$AAa?$AA?9?$AAi?$AAn?$AA?$AA@ 00000001800291b0     libcpmt:winapinls.obj
 0002:000021c0       ??_C@_1M@HDBKGOGH@?$AAp?$AAl?$AA?9?$AAp?$AAl?$AA?$AA@ 00000001800291c0     libcpmt:winapinls.obj
 0002:000021d0       ??_C@_1M@LJLLCMEH@?$AAp?$AAt?$AA?9?$AAb?$AAr?$AA?$AA@ 00000001800291d0     libcpmt:winapinls.obj
 0002:000021e0       ??_C@_1M@NCMONAAL@?$AAp?$AAt?$AA?9?$AAp?$AAt?$AA?$AA@ 00000001800291e0     libcpmt:winapinls.obj
 0002:000021f0       ??_C@_1O@EAKMAJDN@?$AAq?$AAu?$AAz?$AA?9?$AAb?$AAo?$AA?$AA@ 00000001800291f0     libcpmt:winapinls.obj
 0002:00002200       ??_C@_1O@BHHPIGDN@?$AAq?$AAu?$AAz?$AA?9?$AAe?$AAc?$AA?$AA@ 0000000180029200     libcpmt:winapinls.obj
 0002:00002210       ??_C@_1O@GBAPEKMJ@?$AAq?$AAu?$AAz?$AA?9?$AAp?$AAe?$AA?$AA@ 0000000180029210     libcpmt:winapinls.obj
 0002:00002220       ??_C@_1M@CLGLEFBO@?$AAr?$AAo?$AA?9?$AAr?$AAo?$AA?$AA@ 0000000180029220     libcpmt:winapinls.obj
 0002:00002230       ??_C@_1M@CEEDODME@?$AAr?$AAu?$AA?9?$AAr?$AAu?$AA?$AA@ 0000000180029230     libcpmt:winapinls.obj
 0002:00002240       ??_C@_1M@HPKKKMPP@?$AAs?$AAa?$AA?9?$AAi?$AAn?$AA?$AA@ 0000000180029240     libcpmt:winapinls.obj
 0002:00002250       ??_C@_1M@BKMAIGOJ@?$AAs?$AAe?$AA?9?$AAf?$AAi?$AA?$AA@ 0000000180029250     libcpmt:winapinls.obj
 0002:00002260       ??_C@_1M@NDPIFLFI@?$AAs?$AAe?$AA?9?$AAn?$AAo?$AA?$AA@ 0000000180029260     libcpmt:winapinls.obj
 0002:00002270       ??_C@_1M@DANKKHJ@?$AAs?$AAe?$AA?9?$AAs?$AAe?$AA?$AA@ 0000000180029270     libcpmt:winapinls.obj
 0002:00002280       ??_C@_1M@PNBLONPJ@?$AAs?$AAk?$AA?9?$AAs?$AAk?$AA?$AA@ 0000000180029280     libcpmt:winapinls.obj
 0002:00002290       ??_C@_1M@LFMODOAL@?$AAs?$AAl?$AA?9?$AAs?$AAi?$AA?$AA@ 0000000180029290     libcpmt:winapinls.obj
 0002:000022a0       ??_C@_1O@DFKOMPG@?$AAs?$AAm?$AAa?$AA?9?$AAn?$AAo?$AA?$AA@ 00000001800292a0     libcpmt:winapinls.obj
 0002:000022b0       ??_C@_1O@NDKPBNNH@?$AAs?$AAm?$AAa?$AA?9?$AAs?$AAe?$AA?$AA@ 00000001800292b0     libcpmt:winapinls.obj
 0002:000022c0       ??_C@_1O@PLLKBHAB@?$AAs?$AAm?$AAj?$AA?9?$AAn?$AAo?$AA?$AA@ 00000001800292c0     libcpmt:winapinls.obj
 0002:000022d0       ??_C@_1O@CLEPOGCA@?$AAs?$AAm?$AAj?$AA?9?$AAs?$AAe?$AA?$AA@ 00000001800292d0     libcpmt:winapinls.obj
 0002:000022e0       ??_C@_1O@DLGJGKMK@?$AAs?$AAm?$AAn?$AA?9?$AAf?$AAi?$AA?$AA@ 00000001800292e0     libcpmt:winapinls.obj
 0002:000022f0       ??_C@_1O@OJDJGAJC@?$AAs?$AAm?$AAs?$AA?9?$AAf?$AAi?$AA?$AA@ 00000001800292f0     libcpmt:winapinls.obj
 0002:00002300       ??_C@_1M@BOFOGHPB@?$AAs?$AAq?$AA?9?$AAa?$AAl?$AA?$AA@ 0000000180029300     libcpmt:winapinls.obj
 0002:00002310       ??_C@_1BG@LJBBIPGB@?$AAs?$AAr?$AA?9?$AAb?$AAa?$AA?9?$AAc?$AAy?$AAr?$AAl?$AA?$AA@ 0000000180029310     libcpmt:winapinls.obj
 0002:00002328       ??_C@_1BG@JLBENFOE@?$AAs?$AAr?$AA?9?$AAb?$AAa?$AA?9?$AAl?$AAa?$AAt?$AAn?$AA?$AA@ 0000000180029328     libcpmt:winapinls.obj
 0002:00002340       ??_C@_1BG@KODPNHE@?$AAs?$AAr?$AA?9?$AAs?$AAp?$AA?9?$AAc?$AAy?$AAr?$AAl?$AA?$AA@ 0000000180029340     libcpmt:winapinls.obj
 0002:00002358       ??_C@_1BG@CIOGKHPB@?$AAs?$AAr?$AA?9?$AAs?$AAp?$AA?9?$AAl?$AAa?$AAt?$AAn?$AA?$AA@ 0000000180029358     libcpmt:winapinls.obj
 0002:00002370       ??_C@_1M@NGFJLMAC@?$AAs?$AAv?$AA?9?$AAf?$AAi?$AA?$AA@ 0000000180029370     libcpmt:winapinls.obj
 0002:00002380       ??_C@_1M@MPJEJAJC@?$AAs?$AAv?$AA?9?$AAs?$AAe?$AA?$AA@ 0000000180029380     libcpmt:winapinls.obj
 0002:00002390       ??_C@_1M@MPNDHLFK@?$AAs?$AAw?$AA?9?$AAk?$AAe?$AA?$AA@ 0000000180029390     libcpmt:winapinls.obj
 0002:000023a0       ??_C@_1O@KOHBJJI@?$AAs?$AAy?$AAr?$AA?9?$AAs?$AAy?$AA?$AA@ 00000001800293a0     libcpmt:winapinls.obj
 0002:000023b0       ??_C@_1M@LDCEFHA@?$AAt?$AAa?$AA?9?$AAi?$AAn?$AA?$AA@ 00000001800293b0     libcpmt:winapinls.obj
 0002:000023c0       ??_C@_1M@CNJOFAK@?$AAt?$AAe?$AA?9?$AAi?$AAn?$AA?$AA@ 00000001800293c0     libcpmt:winapinls.obj
 0002:000023d0       ??_C@_1M@GNAECACD@?$AAt?$AAh?$AA?9?$AAt?$AAh?$AA?$AA@ 00000001800293d0     libcpmt:winapinls.obj
 0002:000023e0       ??_C@_1M@CHBIHOJO@?$AAt?$AAn?$AA?9?$AAz?$AAa?$AA?$AA@ 00000001800293e0     libcpmt:winapinls.obj
 0002:000023f0       ??_C@_1M@GCCMIGPJ@?$AAt?$AAr?$AA?9?$AAt?$AAr?$AA?$AA@ 00000001800293f0     libcpmt:winapinls.obj
 0002:00002400       ??_C@_1M@CELMCNBK@?$AAt?$AAt?$AA?9?$AAr?$AAu?$AA?$AA@ 0000000180029400     libcpmt:winapinls.obj
 0002:00002410       ??_C@_1M@KLMCELGA@?$AAu?$AAk?$AA?9?$AAu?$AAa?$AA?$AA@ 0000000180029410     libcpmt:winapinls.obj
 0002:00002420       ??_C@_1M@EPAJJAJF@?$AAu?$AAr?$AA?9?$AAp?$AAk?$AA?$AA@ 0000000180029420     libcpmt:winapinls.obj
 0002:00002430       ??_C@_1BG@GEGPMCDJ@?$AAu?$AAz?$AA?9?$AAu?$AAz?$AA?9?$AAc?$AAy?$AAr?$AAl?$AA?$AA@ 0000000180029430     libcpmt:winapinls.obj
 0002:00002448       ??_C@_1BG@EGGKJILM@?$AAu?$AAz?$AA?9?$AAu?$AAz?$AA?9?$AAl?$AAa?$AAt?$AAn?$AA?$AA@ 0000000180029448     libcpmt:winapinls.obj
 0002:00002460       ??_C@_1M@GFOCLFF@?$AAv?$AAi?$AA?9?$AAv?$AAn?$AA?$AA@ 0000000180029460     libcpmt:winapinls.obj
 0002:00002470       ??_C@_1M@CPAMEDFI@?$AAx?$AAh?$AA?9?$AAz?$AAa?$AA?$AA@ 0000000180029470     libcpmt:winapinls.obj
 0002:00002480       ??_C@_1O@EBKIFIGN@?$AAz?$AAh?$AA?9?$AAc?$AAh?$AAs?$AA?$AA@ 0000000180029480     libcpmt:winapinls.obj
 0002:00002490       ??_C@_1O@NMHPGANE@?$AAz?$AAh?$AA?9?$AAc?$AAh?$AAt?$AA?$AA@ 0000000180029490     libcpmt:winapinls.obj
 0002:000024a0       ??_C@_1M@LPINJOMC@?$AAz?$AAh?$AA?9?$AAc?$AAn?$AA?$AA@ 00000001800294a0     libcpmt:winapinls.obj
 0002:000024b0       ??_C@_1M@OCJEJODD@?$AAz?$AAh?$AA?9?$AAh?$AAk?$AA?$AA@ 00000001800294b0     libcpmt:winapinls.obj
 0002:000024c0       ??_C@_1M@DNDLJINH@?$AAz?$AAh?$AA?9?$AAm?$AAo?$AA?$AA@ 00000001800294c0     libcpmt:winapinls.obj
 0002:000024d0       ??_C@_1M@MBFDNDND@?$AAz?$AAh?$AA?9?$AAs?$AAg?$AA?$AA@ 00000001800294d0     libcpmt:winapinls.obj
 0002:000024e0       ??_C@_1M@IMEPLEPE@?$AAz?$AAh?$AA?9?$AAt?$AAw?$AA?$AA@ 00000001800294e0     libcpmt:winapinls.obj
 0002:000024f0       ??_C@_1M@BBGHNHJP@?$AAz?$AAu?$AA?9?$AAz?$AAa?$AA?$AA@ 00000001800294f0     libcpmt:winapinls.obj
 0002:00004180       ??_C@_15EMKDOKLE@?$AAa?$AAr?$AA?$AA@ 000000018002b180     libcpmt:winapinls.obj
 0002:00004188       ??_C@_15KNPADPLH@?$AAb?$AAg?$AA?$AA@ 000000018002b188     libcpmt:winapinls.obj
 0002:00004190       ??_C@_15EDMHLDMO@?$AAc?$AAa?$AA?$AA@ 000000018002b190     libcpmt:winapinls.obj
 0002:00004198       ??_C@_1O@BPEAJADD@?$AAz?$AAh?$AA?9?$AAC?$AAH?$AAS?$AA?$AA@ 000000018002b198     libcpmt:winapinls.obj
 0002:000041a8       ??_C@_15LJNHCMNK@?$AAc?$AAs?$AA?$AA@ 000000018002b1a8     libcpmt:winapinls.obj
 0002:000041b0       ??_C@_15FOMCIDHG@?$AAd?$AAa?$AA?$AA@ 000000018002b1b0     libcpmt:winapinls.obj
 0002:000041b8       ??_C@_15NBKABECB@?$AAd?$AAe?$AA?$AA@ 000000018002b1b8     libcpmt:winapinls.obj
 0002:000041c0       ??_C@_15GHPEIIAO@?$AAe?$AAl?$AA?$AA@ 000000018002b1c0     libcpmt:winapinls.obj
 0002:000041c8       ??_C@_15MNPNEAIF@?$AAe?$AAn?$AA?$AA@ 000000018002b1c8     libcpmt:winapinls.obj
 0002:000041d0       ??_C@_15GPIOMPMH@?$AAe?$AAs?$AA?$AA@ 000000018002b1d0     libcpmt:winapinls.obj
 0002:000041d8       ??_C@_15NGLOAKJC@?$AAf?$AAi?$AA?$AA@ 000000018002b1d8     libcpmt:winapinls.obj
 0002:000041e0       ??_C@_15FBKGNKAM@?$AAf?$AAr?$AA?$AA@ 000000018002b1e0     libcpmt:winapinls.obj
 0002:000041e8       ??_C@_15KGGCNEFK@?$AAh?$AAe?$AA?$AA@ 000000018002b1e8     libcpmt:winapinls.obj
 0002:000041f0       ??_C@_15PGHLIDMF@?$AAh?$AAu?$AA?$AA@ 000000018002b1f0     libcpmt:winapinls.obj
 0002:000041f8       ??_C@_15BIEMAPLM@?$AAi?$AAs?$AA?$AA@ 000000018002b1f8     libcpmt:winapinls.obj
 0002:00004200       ??_C@_15IFJLDHAF@?$AAi?$AAt?$AA?$AA@ 000000018002b200     libcpmt:winapinls.obj
 0002:00004208       ??_C@_15GEMIOCAG@?$AAj?$AAa?$AA?$AA@ 000000018002b208     libcpmt:winapinls.obj
 0002:00004210       ??_C@_15EPELEGJA@?$AAk?$AAo?$AA?$AA@ 000000018002b210     libcpmt:winapinls.obj
 0002:00004218       ??_C@_15NDDHIMN@?$AAn?$AAl?$AA?$AA@ 000000018002b218     libcpmt:winapinls.obj
 0002:00004220       ??_C@_15BPIGNHCD@?$AAn?$AAo?$AA?$AA@ 000000018002b220     libcpmt:winapinls.obj
 0002:00004228       ??_C@_15DEOPBLCG@?$AAp?$AAl?$AA?$AA@ 000000018002b228     libcpmt:winapinls.obj
 0002:00004230       ??_C@_15KBECGEFG@?$AAp?$AAt?$AA?$AA@ 000000018002b230     libcpmt:winapinls.obj
 0002:00004238       ??_C@_15GLJCBFMD@?$AAr?$AAo?$AA?$AA@ 000000018002b238     libcpmt:winapinls.obj
 0002:00004240       ??_C@_15FEDGKCDI@?$AAr?$AAu?$AA?$AA@ 000000018002b240     libcpmt:winapinls.obj
 0002:00004248       ??_C@_15GLKMLLHM@?$AAh?$AAr?$AA?$AA@ 000000018002b248     libcpmt:winapinls.obj
 0002:00004250       ??_C@_15CPKMFBDB@?$AAs?$AAk?$AA?$AA@ 000000018002b250     libcpmt:winapinls.obj
 0002:00004258       ??_C@_15BAAIOGMK@?$AAs?$AAq?$AA?$AA@ 000000018002b258     libcpmt:winapinls.obj
 0002:00004260       ??_C@_15INNPNOHD@?$AAs?$AAv?$AA?$AA@ 000000018002b260     libcpmt:winapinls.obj
 0002:00004268       ??_C@_15CABMMOGH@?$AAt?$AAh?$AA?$AA@ 000000018002b268     libcpmt:winapinls.obj
 0002:00004270       ??_C@_15BPLIHJJM@?$AAt?$AAr?$AA?$AA@ 000000018002b270     libcpmt:winapinls.obj
 0002:00004278       ??_C@_15NEOEKKDJ@?$AAu?$AAr?$AA?$AA@ 000000018002b278     libcpmt:winapinls.obj
 0002:00004280       ??_C@_15NFICGAJK@?$AAi?$AAd?$AA?$AA@ 000000018002b280     libcpmt:winapinls.obj
 0002:00004288       ??_C@_15PJPFLCCM@?$AAu?$AAk?$AA?$AA@ 000000018002b288     libcpmt:winapinls.obj
 0002:00004290       ??_C@_15HPJPHDM@?$AAb?$AAe?$AA?$AA@ 000000018002b290     libcpmt:winapinls.obj
 0002:00004298       ??_C@_15LCHLGJII@?$AAs?$AAl?$AA?$AA@ 000000018002b298     libcpmt:winapinls.obj
 0002:000042a0       ??_C@_15PCFJPHHO@?$AAe?$AAt?$AA?$AA@ 000000018002b2a0     libcpmt:winapinls.obj
 0002:000042a8       ??_C@_15HPFPGODN@?$AAl?$AAv?$AA?$AA@ 000000018002b2a8     libcpmt:winapinls.obj
 0002:000042b0       ??_C@_15NFFGKGLG@?$AAl?$AAt?$AA?$AA@ 000000018002b2b0     libcpmt:winapinls.obj
 0002:000042b8       ??_C@_15BDAKCCHN@?$AAf?$AAa?$AA?$AA@ 000000018002b2b8     libcpmt:winapinls.obj
 0002:000042c0       ??_C@_15NFGIAIAJ@?$AAv?$AAi?$AA?$AA@ 000000018002b2c0     libcpmt:winapinls.obj
 0002:000042c8       ??_C@_15LMKNDMHN@?$AAh?$AAy?$AA?$AA@ 000000018002b2c8     libcpmt:winapinls.obj
 0002:000042d0       ??_C@_15IJBHMCFL@?$AAa?$AAz?$AA?$AA@ 000000018002b2d0     libcpmt:winapinls.obj
 0002:000042d8       ??_C@_15EKOFJABL@?$AAe?$AAu?$AA?$AA@ 000000018002b2d8     libcpmt:winapinls.obj
 0002:000042e0       ??_C@_15BGHADCNK@?$AAm?$AAk?$AA?$AA@ 000000018002b2e0     libcpmt:winapinls.obj
 0002:000042e8       ??_C@_15JDNICKHM@?$AAa?$AAf?$AA?$AA@ 000000018002b2e8     libcpmt:winapinls.obj
 0002:000042f0       ??_C@_15KPJEDBKD@?$AAk?$AAa?$AA?$AA@ 000000018002b2f0     libcpmt:winapinls.obj
 0002:000042f8       ??_C@_15PDNFFFEO@?$AAf?$AAo?$AA?$AA@ 000000018002b2f8     libcpmt:winapinls.obj
 0002:00004300       ??_C@_15OMLEGLOC@?$AAh?$AAi?$AA?$AA@ 000000018002b300     libcpmt:winapinls.obj
 0002:00004308       ??_C@_15IDNNENKK@?$AAm?$AAs?$AA?$AA@ 000000018002b308     libcpmt:winapinls.obj
 0002:00004310       ??_C@_15MACJNBMH@?$AAk?$AAk?$AA?$AA@ 000000018002b310     libcpmt:winapinls.obj
 0002:00004318       ??_C@_15DKDJEOND@?$AAk?$AAy?$AA?$AA@ 000000018002b318     libcpmt:winapinls.obj
 0002:00004320       ??_C@_15DFGDLJBG@?$AAs?$AAw?$AA?$AA@ 000000018002b320     libcpmt:winapinls.obj
 0002:00004328       ??_C@_15BBFAICNG@?$AAu?$AAz?$AA?$AA@ 000000018002b328     libcpmt:winapinls.obj
 0002:00004330       ??_C@_15DKNDCGEA@?$AAt?$AAt?$AA?$AA@ 000000018002b330     libcpmt:winapinls.obj
 0002:00004338       ??_C@_15MGIFMDPL@?$AAp?$AAa?$AA?$AA@ 000000018002b338     libcpmt:winapinls.obj
 0002:00004340       ??_C@_15HCNDBBA@?$AAg?$AAu?$AA?$AA@ 000000018002b340     libcpmt:winapinls.obj
 0002:00004348       ??_C@_15FNBEIBON@?$AAt?$AAa?$AA?$AA@ 000000018002b348     libcpmt:winapinls.obj
 0002:00004350       ??_C@_15NCHGBGLK@?$AAt?$AAe?$AA?$AA@ 000000018002b350     libcpmt:winapinls.obj
 0002:00004358       ??_C@_15PHPHCBPF@?$AAk?$AAn?$AA?$AA@ 000000018002b358     libcpmt:winapinls.obj
 0002:00004360       ??_C@_15DLGBCKMP@?$AAm?$AAr?$AA?$AA@ 000000018002b360     libcpmt:winapinls.obj
 0002:00004368       ??_C@_15EABBLBFF@?$AAs?$AAa?$AA?$AA@ 000000018002b368     libcpmt:winapinls.obj
 0002:00004370       ??_C@_15CBKOMCOI@?$AAm?$AAn?$AA?$AA@ 000000018002b370     libcpmt:winapinls.obj
 0002:00004378       ??_C@_15CKDMCJAF@?$AAg?$AAl?$AA?$AA@ 000000018002b378     libcpmt:winapinls.obj
 0002:00004380       ??_C@_17CNJFBPG@?$AAk?$AAo?$AAk?$AA?$AA@ 000000018002b380     libcpmt:winapinls.obj
 0002:00004388       ??_C@_17FFBJICPL@?$AAs?$AAy?$AAr?$AA?$AA@ 000000018002b388     libcpmt:winapinls.obj
 0002:00004390       ??_C@_17KPNDCPAF@?$AAd?$AAi?$AAv?$AA?$AA@ 000000018002b390     libcpmt:winapinls.obj
 0002:00004398       ??_C@_1M@OKAHONE@?$AAa?$AAr?$AA?9?$AAS?$AAA?$AA?$AA@ 000000018002b398     libcpmt:winapinls.obj
 0002:000043a8       ??_C@_1M@FFFIGIGK@?$AAb?$AAg?$AA?9?$AAB?$AAG?$AA?$AA@ 000000018002b3a8     libcpmt:winapinls.obj
 0002:000043b8       ??_C@_1M@BJNKEDC@?$AAc?$AAa?$AA?9?$AAE?$AAS?$AA?$AA@ 000000018002b3b8     libcpmt:winapinls.obj
 0002:000043c8       ??_C@_1M@CLNBBOPM@?$AAz?$AAh?$AA?9?$AAT?$AAW?$AA?$AA@ 000000018002b3c8     libcpmt:winapinls.obj
 0002:000043d8       ??_C@_1M@IJJHFJHA@?$AAc?$AAs?$AA?9?$AAC?$AAZ?$AA?$AA@ 000000018002b3d8     libcpmt:winapinls.obj
 0002:000043e8       ??_C@_1M@CLPEOBGI@?$AAd?$AAa?$AA?9?$AAD?$AAK?$AA?$AA@ 000000018002b3e8     libcpmt:winapinls.obj
 0002:000043f8       ??_C@_1M@MCMADGCB@?$AAd?$AAe?$AA?9?$AAD?$AAE?$AA?$AA@ 000000018002b3f8     libcpmt:winapinls.obj
 0002:00004408       ??_C@_1M@OOCKEMAM@?$AAe?$AAl?$AA?9?$AAG?$AAR?$AA?$AA@ 000000018002b408     libcpmt:winapinls.obj
 0002:00004418       ??_C@_1M@BMHNFIME@?$AAe?$AAn?$AA?9?$AAU?$AAS?$AA?$AA@ 000000018002b418     libcpmt:winapinls.obj
 0002:00004428       ??_C@_1M@DDNJFGID@?$AAf?$AAi?$AA?9?$AAF?$AAI?$AA?$AA@ 000000018002b428     libcpmt:winapinls.obj
 0002:00004438       ??_C@_1M@GLIPPMAC@?$AAf?$AAr?$AA?9?$AAF?$AAR?$AA?$AA@ 000000018002b438     libcpmt:winapinls.obj
 0002:00004448       ??_C@_1M@GFMCHPE@?$AAh?$AAe?$AA?9?$AAI?$AAL?$AA?$AA@ 000000018002b448     libcpmt:winapinls.obj
 0002:00004458       ??_C@_1M@MHLPGNKM@?$AAh?$AAu?$AA?9?$AAH?$AAU?$AA?$AA@ 000000018002b458     libcpmt:winapinls.obj
 0002:00004468       ??_C@_1M@LPDDNNPN@?$AAi?$AAs?$AA?9?$AAI?$AAS?$AA?$AA@ 000000018002b468     libcpmt:winapinls.obj
 0002:00004478       ??_C@_1M@MADIPODN@?$AAi?$AAt?$AA?9?$AAI?$AAT?$AA?$AA@ 000000018002b478     libcpmt:winapinls.obj
 0002:00004488       ??_C@_1M@HPNHIDJI@?$AAj?$AAa?$AA?9?$AAJ?$AAP?$AA?$AA@ 000000018002b488     libcpmt:winapinls.obj
 0002:00004498       ??_C@_1M@JLOOOEGK@?$AAk?$AAo?$AA?9?$AAK?$AAR?$AA?$AA@ 000000018002b498     libcpmt:winapinls.obj
 0002:000044a8       ??_C@_1M@IHBJJGG@?$AAn?$AAl?$AA?9?$AAN?$AAL?$AA?$AA@ 000000018002b4a8     libcpmt:winapinls.obj
 0002:000044b8       ??_C@_1M@EANAGDL@?$AAn?$AAb?$AA?9?$AAN?$AAO?$AA?$AA@ 000000018002b4b8     libcpmt:winapinls.obj
 0002:000044c8       ??_C@_1M@NEIEMEGP@?$AAp?$AAl?$AA?9?$AAP?$AAL?$AA?$AA@ 000000018002b4c8     libcpmt:winapinls.obj
 0002:000044d8       ??_C@_1M@BOCFIGEP@?$AAp?$AAt?$AA?9?$AAB?$AAR?$AA?$AA@ 000000018002b4d8     libcpmt:winapinls.obj
 0002:000044e8       ??_C@_1M@IMPFOPBG@?$AAr?$AAo?$AA?9?$AAR?$AAO?$AA?$AA@ 000000018002b4e8     libcpmt:winapinls.obj
 0002:000044f8       ??_C@_1M@IDNNEJMM@?$AAr?$AAu?$AA?9?$AAR?$AAU?$AA?$AA@ 000000018002b4f8     libcpmt:winapinls.obj
 0002:00004508       ??_C@_1M@LILEEOGM@?$AAh?$AAr?$AA?9?$AAH?$AAR?$AA?$AA@ 000000018002b508     libcpmt:winapinls.obj
 0002:00004518       ??_C@_1M@FKIFEHPB@?$AAs?$AAk?$AA?9?$AAS?$AAK?$AA?$AA@ 000000018002b518     libcpmt:winapinls.obj
 0002:00004528       ??_C@_1M@LJMAMNPJ@?$AAs?$AAq?$AA?9?$AAA?$AAL?$AA?$AA@ 000000018002b528     libcpmt:winapinls.obj
 0002:00004538       ??_C@_1M@GIAKDKJK@?$AAs?$AAv?$AA?9?$AAS?$AAE?$AA?$AA@ 000000018002b538     libcpmt:winapinls.obj
 0002:00004548       ??_C@_1M@MKJKIKCL@?$AAt?$AAh?$AA?9?$AAT?$AAH?$AA?$AA@ 000000018002b548     libcpmt:winapinls.obj
 0002:00004558       ??_C@_1M@MFLCCMPB@?$AAt?$AAr?$AA?9?$AAT?$AAR?$AA?$AA@ 000000018002b558     libcpmt:winapinls.obj
 0002:00004568       ??_C@_1M@OIJHDKJN@?$AAu?$AAr?$AA?9?$AAP?$AAK?$AA?$AA@ 000000018002b568     libcpmt:winapinls.obj
 0002:00004578       ??_C@_1M@LHIPCIEK@?$AAi?$AAd?$AA?9?$AAI?$AAD?$AA?$AA@ 000000018002b578     libcpmt:winapinls.obj
 0002:00004588       ??_C@_1M@MFMOBGI@?$AAu?$AAk?$AA?9?$AAU?$AAA?$AA?$AA@ 000000018002b588     libcpmt:winapinls.obj
 0002:00004598       ??_C@_1M@OBGLJIPL@?$AAb?$AAe?$AA?9?$AAB?$AAY?$AA?$AA@ 000000018002b598     libcpmt:winapinls.obj
 0002:000045a8       ??_C@_1M@BCFAJEAD@?$AAs?$AAl?$AA?9?$AAS?$AAI?$AA?$AA@ 000000018002b5a8     libcpmt:winapinls.obj
 0002:000045b8       ??_C@_1M@FKFFEDDN@?$AAe?$AAt?$AA?9?$AAE?$AAE?$AA?$AA@ 000000018002b5b8     libcpmt:winapinls.obj
 0002:000045c8       ??_C@_1M@KGKKAACI@?$AAl?$AAv?$AA?9?$AAL?$AAV?$AA?$AA@ 000000018002b5c8     libcpmt:winapinls.obj
 0002:000045d8       ??_C@_1M@IFGBIJO@?$AAl?$AAt?$AA?9?$AAL?$AAT?$AA?$AA@ 000000018002b5d8     libcpmt:winapinls.obj
 0002:000045e8       ??_C@_1M@FGEAHEDM@?$AAf?$AAa?$AA?9?$AAI?$AAR?$AA?$AA@ 000000018002b5e8     libcpmt:winapinls.obj
 0002:000045f8       ??_C@_1M@KBMAIBFN@?$AAv?$AAi?$AA?9?$AAV?$AAN?$AA?$AA@ 000000018002b5f8     libcpmt:winapinls.obj
 0002:00004608       ??_C@_1M@GPCBKDJK@?$AAh?$AAy?$AA?9?$AAA?$AAM?$AA?$AA@ 000000018002b608     libcpmt:winapinls.obj
 0002:00004618       ??_C@_1BG@BECMDDJB@?$AAa?$AAz?$AA?9?$AAA?$AAZ?$AA?9?$AAL?$AAa?$AAt?$AAn?$AA?$AA@ 000000018002b618     libcpmt:winapinls.obj
 0002:00004630       ??_C@_1M@MAOFCAEA@?$AAe?$AAu?$AA?9?$AAE?$AAS?$AA?$AA@ 000000018002b630     libcpmt:winapinls.obj
 0002:00004640       ??_C@_1M@IGHABKPI@?$AAm?$AAk?$AA?9?$AAM?$AAK?$AA?$AA@ 000000018002b640     libcpmt:winapinls.obj
 0002:00004650       ??_C@_1M@IAIGNEJG@?$AAt?$AAn?$AA?9?$AAZ?$AAA?$AA?$AA@ 000000018002b650     libcpmt:winapinls.obj
 0002:00004660       ??_C@_1M@IIJCOJFA@?$AAx?$AAh?$AA?9?$AAZ?$AAA?$AA?$AA@ 000000018002b660     libcpmt:winapinls.obj
 0002:00004670       ??_C@_1M@LGPJHNJH@?$AAz?$AAu?$AA?9?$AAZ?$AAA?$AA?$AA@ 000000018002b670     libcpmt:winapinls.obj
 0002:00004680       ??_C@_1M@HOKAOIO@?$AAa?$AAf?$AA?9?$AAZ?$AAA?$AA?$AA@ 000000018002b680     libcpmt:winapinls.obj
 0002:00004690       ??_C@_1M@DPCLHLIE@?$AAk?$AAa?$AA?9?$AAG?$AAE?$AA?$AA@ 000000018002b690     libcpmt:winapinls.obj
 0002:000046a0       ??_C@_1M@BLKMHJBI@?$AAf?$AAo?$AA?9?$AAF?$AAO?$AA?$AA@ 000000018002b6a0     libcpmt:winapinls.obj
 0002:000046b0       ??_C@_1M@LGGJAPPB@?$AAh?$AAi?$AA?9?$AAI?$AAN?$AA?$AA@ 000000018002b6b0     libcpmt:winapinls.obj
 0002:000046c0       ??_C@_1M@FIKPIHFE@?$AAm?$AAt?$AA?9?$AAM?$AAT?$AA?$AA@ 000000018002b6c0     libcpmt:winapinls.obj
 0002:000046d0       ??_C@_1M@HEGGPBFA@?$AAs?$AAe?$AA?9?$AAN?$AAO?$AA?$AA@ 000000018002b6d0     libcpmt:winapinls.obj
 0002:000046e0       ??_C@_1M@EIBJEEPA@?$AAm?$AAs?$AA?9?$AAM?$AAY?$AA?$AA@ 000000018002b6e0     libcpmt:winapinls.obj
 0002:000046f0       ??_C@_1M@FHLBGMPP@?$AAk?$AAk?$AA?9?$AAK?$AAZ?$AA?$AA@ 000000018002b6f0     libcpmt:winapinls.obj
 0002:00004700       ??_C@_1M@NGJJLCGI@?$AAk?$AAy?$AA?9?$AAK?$AAG?$AA?$AA@ 000000018002b700     libcpmt:winapinls.obj
 0002:00004710       ??_C@_1M@GIENNBFC@?$AAs?$AAw?$AA?9?$AAK?$AAE?$AA?$AA@ 000000018002b710     libcpmt:winapinls.obj
 0002:00004720       ??_C@_1BG@NDGMJIMJ@?$AAu?$AAz?$AA?9?$AAU?$AAZ?$AA?9?$AAL?$AAa?$AAt?$AAn?$AA?$AA@ 000000018002b720     libcpmt:winapinls.obj
 0002:00004738       ??_C@_1M@IDCCIHBC@?$AAt?$AAt?$AA?9?$AAR?$AAU?$AA?$AA@ 000000018002b738     libcpmt:winapinls.obj
 0002:00004748       ??_C@_1M@LOICPMOJ@?$AAb?$AAn?$AA?9?$AAI?$AAN?$AA?$AA@ 000000018002b748     libcpmt:winapinls.obj
 0002:00004758       ??_C@_1M@KPKKNEAH@?$AAp?$AAa?$AA?9?$AAI?$AAN?$AA?$AA@ 000000018002b758     libcpmt:winapinls.obj
 0002:00004768       ??_C@_1M@PJGPPBOG@?$AAg?$AAu?$AA?9?$AAI?$AAN?$AA?$AA@ 000000018002b768     libcpmt:winapinls.obj
 0002:00004778       ??_C@_1M@KMKMOPHI@?$AAt?$AAa?$AA?9?$AAI?$AAN?$AA?$AA@ 000000018002b778     libcpmt:winapinls.obj
 0002:00004788       ??_C@_1M@KFEHEPAC@?$AAt?$AAe?$AA?9?$AAI?$AAN?$AA?$AA@ 000000018002b788     libcpmt:winapinls.obj
 0002:00004798       ??_C@_1M@CDCLMGHI@?$AAk?$AAn?$AA?9?$AAI?$AAN?$AA?$AA@ 000000018002b798     libcpmt:winapinls.obj
 0002:000047a8       ??_C@_1M@MIODLDKF@?$AAm?$AAl?$AA?9?$AAI?$AAN?$AA?$AA@ 000000018002b7a8     libcpmt:winapinls.obj
 0002:000047b8       ??_C@_1M@PBIEACPO@?$AAm?$AAr?$AA?9?$AAI?$AAN?$AA?$AA@ 000000018002b7b8     libcpmt:winapinls.obj
 0002:000047c8       ??_C@_1M@NIDEAGPH@?$AAs?$AAa?$AA?9?$AAI?$AAN?$AA?$AA@ 000000018002b7c8     libcpmt:winapinls.obj
 0002:000047d8       ??_C@_1M@FHIHCBIO@?$AAm?$AAn?$AA?9?$AAM?$AAN?$AA?$AA@ 000000018002b7d8     libcpmt:winapinls.obj
 0002:000047e8       ??_C@_1M@JAIJPENP@?$AAc?$AAy?$AA?9?$AAG?$AAB?$AA?$AA@ 000000018002b7e8     libcpmt:winapinls.obj
 0002:000047f8       ??_C@_1M@PHGFBEPN@?$AAg?$AAl?$AA?9?$AAE?$AAS?$AA?$AA@ 000000018002b7f8     libcpmt:winapinls.obj
 0002:00004808       ??_C@_1O@KPIPDNCP@?$AAk?$AAo?$AAk?$AA?9?$AAI?$AAN?$AA?$AA@ 000000018002b808     libcpmt:winapinls.obj
 0002:00004818       ??_C@_1O@KNHJLDJA@?$AAs?$AAy?$AAr?$AA?9?$AAS?$AAY?$AA?$AA@ 000000018002b818     libcpmt:winapinls.obj
 0002:00004828       ??_C@_1O@MKEKBLAH@?$AAd?$AAi?$AAv?$AA?9?$AAM?$AAV?$AA?$AA@ 000000018002b828     libcpmt:winapinls.obj
 0002:00004838       ??_C@_1O@OHDCKDDF@?$AAq?$AAu?$AAz?$AA?9?$AAB?$AAO?$AA?$AA@ 000000018002b838     libcpmt:winapinls.obj
 0002:00004848       ??_C@_1M@LEPJNLFD@?$AAn?$AAs?$AA?9?$AAZ?$AAA?$AA?$AA@ 000000018002b848     libcpmt:winapinls.obj
 0002:00004858       ??_C@_1M@OMLEIIJB@?$AAm?$AAi?$AA?9?$AAN?$AAZ?$AA?$AA@ 000000018002b858     libcpmt:winapinls.obj
 0002:00004868       ??_C@_1M@PMPEAILG@?$AAa?$AAr?$AA?9?$AAI?$AAQ?$AA?$AA@ 000000018002b868     libcpmt:winapinls.obj
 0002:00004878       ??_C@_1M@BIBDDEMK@?$AAz?$AAh?$AA?9?$AAC?$AAN?$AA?$AA@ 000000018002b878     libcpmt:winapinls.obj
 0002:00004888       ??_C@_1M@CNKPNOEE@?$AAd?$AAe?$AA?9?$AAC?$AAH?$AA?$AA@ 000000018002b888     libcpmt:winapinls.obj
 0002:00004898       ??_C@_1M@LKMGMLKO@?$AAe?$AAn?$AA?9?$AAG?$AAB?$AA?$AA@ 000000018002b898     libcpmt:winapinls.obj
 0002:000048a8       ??_C@_1M@PGKJFFGL@?$AAe?$AAs?$AA?9?$AAM?$AAX?$AA?$AA@ 000000018002b8a8     libcpmt:winapinls.obj
 0002:000048b8       ??_C@_1M@DNNANBDC@?$AAf?$AAr?$AA?9?$AAB?$AAE?$AA?$AA@ 000000018002b8b8     libcpmt:winapinls.obj
 0002:000048c8       ??_C@_1M@HLGMDFHM@?$AAi?$AAt?$AA?9?$AAC?$AAH?$AA?$AA@ 000000018002b8c8     libcpmt:winapinls.obj
 0002:000048d8       ??_C@_1M@CLLBGJH@?$AAn?$AAl?$AA?9?$AAB?$AAE?$AA?$AA@ 000000018002b8d8     libcpmt:winapinls.obj
 0002:000048e8       ??_C@_1M@BODBOGLF@?$AAn?$AAn?$AA?9?$AAN?$AAO?$AA?$AA@ 000000018002b8e8     libcpmt:winapinls.obj
 0002:000048f8       ??_C@_1M@HFFAHKAD@?$AAp?$AAt?$AA?9?$AAP?$AAT?$AA?$AA@ 000000018002b8f8     libcpmt:winapinls.obj
 0002:00004908       ??_C@_1BG@LNOAKHIE@?$AAs?$AAr?$AA?9?$AAS?$AAP?$AA?9?$AAL?$AAa?$AAt?$AAn?$AA?$AA@ 000000018002b908     libcpmt:winapinls.obj
 0002:00004920       ??_C@_1M@HBMHBGAK@?$AAs?$AAv?$AA?9?$AAF?$AAI?$AA?$AA@ 000000018002b920     libcpmt:winapinls.obj
 0002:00004930       ??_C@_1BG@DGCJGJBE@?$AAa?$AAz?$AA?9?$AAA?$AAZ?$AA?9?$AAC?$AAy?$AAr?$AAl?$AA?$AA@ 000000018002b930     libcpmt:winapinls.obj
 0002:00004948       ??_C@_1M@KEJDAAHB@?$AAs?$AAe?$AA?9?$AAS?$AAE?$AA?$AA@ 000000018002b948     libcpmt:winapinls.obj
 0002:00004958       ??_C@_1M@HEIBJJAD@?$AAm?$AAs?$AA?9?$AAB?$AAN?$AA?$AA@ 000000018002b958     libcpmt:winapinls.obj
 0002:00004968       ??_C@_1BG@PBGJMCEM@?$AAu?$AAz?$AA?9?$AAU?$AAZ?$AA?9?$AAC?$AAy?$AAr?$AAl?$AA?$AA@ 000000018002b968     libcpmt:winapinls.obj
 0002:00004980       ??_C@_1O@LAOBCMDF@?$AAq?$AAu?$AAz?$AA?9?$AAE?$AAC?$AA?$AA@ 000000018002b980     libcpmt:winapinls.obj
 0002:00004990       ??_C@_1M@POEEMAIO@?$AAa?$AAr?$AA?9?$AAE?$AAG?$AA?$AA@ 000000018002b990     libcpmt:winapinls.obj
 0002:000049a0       ??_C@_1M@EFAKDEDL@?$AAz?$AAh?$AA?9?$AAH?$AAK?$AA?$AA@ 000000018002b9a0     libcpmt:winapinls.obj
 0002:000049b0       ??_C@_1M@HKKIJHGI@?$AAd?$AAe?$AA?9?$AAA?$AAT?$AA?$AA@ 000000018002b9b0     libcpmt:winapinls.obj
 0002:000049c0       ??_C@_1M@KBFBEHJF@?$AAe?$AAn?$AA?9?$AAA?$AAU?$AA?$AA@ 000000018002b9c0     libcpmt:winapinls.obj
 0002:000049d0       ??_C@_1M@MNPLFAAH@?$AAe?$AAs?$AA?9?$AAE?$AAS?$AA?$AA@ 000000018002b9d0     libcpmt:winapinls.obj
 0002:000049e0       ??_C@_1M@HJOOJFMA@?$AAf?$AAr?$AA?9?$AAC?$AAA?$AA?$AA@ 000000018002b9e0     libcpmt:winapinls.obj
 0002:000049f0       ??_C@_1BG@JPOFPNAB@?$AAs?$AAr?$AA?9?$AAS?$AAP?$AA?9?$AAC?$AAy?$AAr?$AAl?$AA?$AA@ 000000018002b9f0     libcpmt:winapinls.obj
 0002:00004a08       ??_C@_1M@LNFOCMOB@?$AAs?$AAe?$AA?9?$AAF?$AAI?$AA?$AA@ 000000018002ba08     libcpmt:winapinls.obj
 0002:00004a18       ??_C@_1O@MGJBOAMB@?$AAq?$AAu?$AAz?$AA?9?$AAP?$AAE?$AA?$AA@ 000000018002ba18     libcpmt:winapinls.obj
 0002:00004a28       ??_C@_1M@GJINLBOK@?$AAa?$AAr?$AA?9?$AAL?$AAY?$AA?$AA@ 000000018002ba28     libcpmt:winapinls.obj
 0002:00004a38       ??_C@_1M@GGMNHJNL@?$AAz?$AAh?$AA?9?$AAS?$AAG?$AA?$AA@ 000000018002ba38     libcpmt:winapinls.obj
 0002:00004a48       ??_C@_1M@HOIKODND@?$AAd?$AAe?$AA?9?$AAL?$AAU?$AA?$AA@ 000000018002ba48     libcpmt:winapinls.obj
 0002:00004a58       ??_C@_1M@DDOCCGFG@?$AAe?$AAn?$AA?9?$AAC?$AAA?$AA?$AA@ 000000018002ba58     libcpmt:winapinls.obj
 0002:00004a68       ??_C@_1M@BNOEMJLF@?$AAe?$AAs?$AA?9?$AAG?$AAT?$AA?$AA@ 000000018002ba68     libcpmt:winapinls.obj
 0002:00004a78       ??_C@_1M@EOGNKEK@?$AAf?$AAr?$AA?9?$AAC?$AAH?$AA?$AA@ 000000018002ba78     libcpmt:winapinls.obj
 0002:00004a88       ??_C@_1M@FLIDJFHL@?$AAh?$AAr?$AA?9?$AAB?$AAA?$AA?$AA@ 000000018002ba88     libcpmt:winapinls.obj
 0002:00004a98       ??_C@_1O@FMCELNAJ@?$AAs?$AAm?$AAj?$AA?9?$AAN?$AAO?$AA?$AA@ 000000018002ba98     libcpmt:winapinls.obj
 0002:00004aa8       ??_C@_1M@JHGLJMGJ@?$AAa?$AAr?$AA?9?$AAD?$AAZ?$AA?$AA@ 000000018002baa8     libcpmt:winapinls.obj
 0002:00004ab8       ??_C@_1M@JKKFDCNP@?$AAz?$AAh?$AA?9?$AAM?$AAO?$AA?$AA@ 000000018002bab8     libcpmt:winapinls.obj
 0002:00004ac8       ??_C@_1M@GEEFALPE@?$AAd?$AAe?$AA?9?$AAL?$AAI?$AA?$AA@ 000000018002bac8     libcpmt:winapinls.obj
 0002:00004ad8       ??_C@_1M@IGEOFBG@?$AAe?$AAn?$AA?9?$AAN?$AAZ?$AA?$AA@ 000000018002bad8     libcpmt:winapinls.obj
 0002:00004ae8       ??_C@_1M@KDBONEHP@?$AAe?$AAs?$AA?9?$AAC?$AAR?$AA?$AA@ 000000018002bae8     libcpmt:winapinls.obj
 0002:00004af8       ??_C@_1M@FHMDOHNN@?$AAf?$AAr?$AA?9?$AAL?$AAU?$AA?$AA@ 000000018002baf8     libcpmt:winapinls.obj
 0002:00004b08       ??_C@_1BG@NFKKMAFG@?$AAb?$AAs?$AA?9?$AAB?$AAA?$AA?9?$AAL?$AAa?$AAt?$AAn?$AA?$AA@ 000000018002bb08     libcpmt:winapinls.obj
 0002:00004b20       ??_C@_1O@IMNBEMCI@?$AAs?$AAm?$AAj?$AA?9?$AAS?$AAE?$AA?$AA@ 000000018002bb20     libcpmt:winapinls.obj
 0002:00004b30       ??_C@_1M@DHHMBNDP@?$AAa?$AAr?$AA?9?$AAM?$AAA?$AA?$AA@ 000000018002bb30     libcpmt:winapinls.obj
 0002:00004b40       ??_C@_1M@BNBLJCGH@?$AAe?$AAn?$AA?9?$AAI?$AAE?$AA?$AA@ 000000018002bb40     libcpmt:winapinls.obj
 0002:00004b50       ??_C@_1M@GEPAFMDL@?$AAe?$AAs?$AA?9?$AAP?$AAA?$AA?$AA@ 000000018002bb50     libcpmt:winapinls.obj
 0002:00004b60       ??_C@_1M@OJONDMDL@?$AAf?$AAr?$AA?9?$AAM?$AAC?$AA?$AA@ 000000018002bb60     libcpmt:winapinls.obj
 0002:00004b70       ??_C@_1BG@OBCNFJB@?$AAs?$AAr?$AA?9?$AAB?$AAA?$AA?9?$AAL?$AAa?$AAt?$AAn?$AA?$AA@ 000000018002bb70     libcpmt:winapinls.obj
 0002:00004b88       ??_C@_1O@KEMEEGPO@?$AAs?$AAm?$AAa?$AA?9?$AAN?$AAO?$AA?$AA@ 000000018002bb88     libcpmt:winapinls.obj
 0002:00004b98       ??_C@_1M@ELMGFODK@?$AAa?$AAr?$AA?9?$AAT?$AAN?$AA?$AA@ 000000018002bb98     libcpmt:winapinls.obj
 0002:00004ba8       ??_C@_1M@BHDLHFAF@?$AAe?$AAn?$AA?9?$AAZ?$AAA?$AA?$AA@ 000000018002bba8     libcpmt:winapinls.obj
 0002:00004bb8       ??_C@_1M@BMGIGLIF@?$AAe?$AAs?$AA?9?$AAD?$AAO?$AA?$AA@ 000000018002bbb8     libcpmt:winapinls.obj
 0002:00004bc8       ??_C@_1BG@CMBHIPBE@?$AAs?$AAr?$AA?9?$AAB?$AAA?$AA?9?$AAC?$AAy?$AAr?$AAl?$AA?$AA@ 000000018002bbc8     libcpmt:winapinls.obj
 0002:00004be0       ??_C@_1O@HEDBLHNP@?$AAs?$AAm?$AAa?$AA?9?$AAS?$AAE?$AA?$AA@ 000000018002bbe0     libcpmt:winapinls.obj
 0002:00004bf0       ??_C@_1M@DAGCADIM@?$AAa?$AAr?$AA?9?$AAO?$AAM?$AA?$AA@ 000000018002bbf0     libcpmt:winapinls.obj
 0002:00004c00       ??_C@_1M@FODLMICG@?$AAe?$AAn?$AA?9?$AAJ?$AAM?$AA?$AA@ 000000018002bc00     libcpmt:winapinls.obj
 0002:00004c10       ??_C@_1M@DNMLCIHB@?$AAe?$AAs?$AA?9?$AAV?$AAE?$AA?$AA@ 000000018002bc10     libcpmt:winapinls.obj
 0002:00004c20       ??_C@_1O@EOKHMKJK@?$AAs?$AAm?$AAs?$AA?9?$AAF?$AAI?$AA?$AA@ 000000018002bc20     libcpmt:winapinls.obj
 0002:00004c30       ??_C@_1M@CAFJMKOF@?$AAa?$AAr?$AA?9?$AAY?$AAE?$AA?$AA@ 000000018002bc30     libcpmt:winapinls.obj
 0002:00004c40       ??_C@_1M@CBFHIJLI@?$AAe?$AAn?$AA?9?$AAC?$AAB?$AA?$AA@ 000000018002bc40     libcpmt:winapinls.obj
 0002:00004c50       ??_C@_1M@BGNFLDN@?$AAe?$AAs?$AA?9?$AAC?$AAO?$AA?$AA@ 000000018002bc50     libcpmt:winapinls.obj
 0002:00004c60       ??_C@_1O@JMPHMAMC@?$AAs?$AAm?$AAn?$AA?9?$AAF?$AAI?$AA?$AA@ 000000018002bc60     libcpmt:winapinls.obj
 0002:00004c70       ??_C@_1M@JLANABKE@?$AAa?$AAr?$AA?9?$AAS?$AAY?$AA?$AA@ 000000018002bc70     libcpmt:winapinls.obj
 0002:00004c80       ??_C@_1M@HPKGCFGN@?$AAe?$AAn?$AA?9?$AAB?$AAZ?$AA?$AA@ 000000018002bc80     libcpmt:winapinls.obj
 0002:00004c90       ??_C@_1M@OLJCMLGM@?$AAe?$AAs?$AA?9?$AAP?$AAE?$AA?$AA@ 000000018002bc90     libcpmt:winapinls.obj
 0002:00004ca0       ??_C@_1M@MKKGFKLE@?$AAa?$AAr?$AA?9?$AAJ?$AAO?$AA?$AA@ 000000018002bca0     libcpmt:winapinls.obj
 0002:00004cb0       ??_C@_1M@EKPGLDNI@?$AAe?$AAn?$AA?9?$AAT?$AAT?$AA?$AA@ 000000018002bcb0     libcpmt:winapinls.obj
 0002:00004cc0       ??_C@_1M@OONGHFHE@?$AAe?$AAs?$AA?9?$AAA?$AAR?$AA?$AA@ 000000018002bcc0     libcpmt:winapinls.obj
 0002:00004cd0       ??_C@_1M@OOJFGBHE@?$AAa?$AAr?$AA?9?$AAL?$AAB?$AA?$AA@ 000000018002bcd0     libcpmt:winapinls.obj
 0002:00004ce0       ??_C@_1M@GCEJHNEG@?$AAe?$AAn?$AA?9?$AAZ?$AAW?$AA?$AA@ 000000018002bce0     libcpmt:winapinls.obj
 0002:00004cf0       ??_C@_1M@JNOCAHJI@?$AAe?$AAs?$AA?9?$AAE?$AAC?$AA?$AA@ 000000018002bcf0     libcpmt:winapinls.obj
 0002:00004d00       ??_C@_1M@JEFHPGGB@?$AAa?$AAr?$AA?9?$AAK?$AAW?$AA?$AA@ 000000018002bd00     libcpmt:winapinls.obj
 0002:00004d10       ??_C@_1M@MLKIBJOJ@?$AAe?$AAn?$AA?9?$AAP?$AAH?$AA?$AA@ 000000018002bd10     libcpmt:winapinls.obj
 0002:00004d20       ??_C@_1M@BDNIPEND@?$AAe?$AAs?$AA?9?$AAC?$AAL?$AA?$AA@ 000000018002bd20     libcpmt:winapinls.obj
 0002:00004d30       ??_C@_1M@MPNMEKBD@?$AAa?$AAr?$AA?9?$AAA?$AAE?$AA?$AA@ 000000018002bd30     libcpmt:winapinls.obj
 0002:00004d40       ??_C@_1M@KBJALCPI@?$AAe?$AAs?$AA?9?$AAU?$AAY?$AA?$AA@ 000000018002bd40     libcpmt:winapinls.obj
 0002:00004d50       ??_C@_1M@LLCCOAGA@?$AAa?$AAr?$AA?9?$AAB?$AAH?$AA?$AA@ 000000018002bd50     libcpmt:winapinls.obj
 0002:00004d60       ??_C@_1M@PBFNCDEL@?$AAe?$AAs?$AA?9?$AAP?$AAY?$AA?$AA@ 000000018002bd60     libcpmt:winapinls.obj
 0002:00004d70       ??_C@_1M@EDGINPNP@?$AAa?$AAr?$AA?9?$AAQ?$AAA?$AA?$AA@ 000000018002bd70     libcpmt:winapinls.obj
 0002:00004d80       ??_C@_1M@MKDBIIJI@?$AAe?$AAs?$AA?9?$AAB?$AAO?$AA?$AA@ 000000018002bd80     libcpmt:winapinls.obj
 0002:00004d90       ??_C@_1M@CPKKEBLD@?$AAe?$AAs?$AA?9?$AAS?$AAV?$AA?$AA@ 000000018002bd90     libcpmt:winapinls.obj
 0002:00004da0       ??_C@_1M@NDBGMMJL@?$AAe?$AAs?$AA?9?$AAH?$AAN?$AA?$AA@ 000000018002bda0     libcpmt:winapinls.obj
 0002:00004db0       ??_C@_1M@JIJIBHDP@?$AAe?$AAs?$AA?9?$AAN?$AAI?$AA?$AA@ 000000018002bdb0     libcpmt:winapinls.obj
 0002:00004dc0       ??_C@_1M@CGFMKEEK@?$AAe?$AAs?$AA?9?$AAP?$AAR?$AA?$AA@ 000000018002bdc0     libcpmt:winapinls.obj
 0002:00004dd0       ??_C@_1O@ICJHKIIK@?$AAz?$AAh?$AA?9?$AAC?$AAH?$AAT?$AA?$AA@ 000000018002bdd0     libcpmt:winapinls.obj
 0002:00004de0       ??_C@_15CLNEJCE@?$AAs?$AAr?$AA?$AA@ 000000018002bde0     libcpmt:winapinls.obj
 0002:00004de8       ??_C@_1M@KAHEKEIG@?$AAa?$AAf?$AA?9?$AAz?$AAa?$AA?$AA@ 000000018002bde8     libcpmt:winapinls.obj
 0002:00004df8       ??_C@_1M@GIECOABL@?$AAa?$AAr?$AA?9?$AAa?$AAe?$AA?$AA@ 000000018002bdf8     libcpmt:winapinls.obj
 0002:00004e08       ??_C@_1M@BMLMEKGI@?$AAa?$AAr?$AA?9?$AAb?$AAh?$AA?$AA@ 000000018002be08     libcpmt:winapinls.obj
 0002:00004e18       ??_C@_1M@DAPFDGGB@?$AAa?$AAr?$AA?9?$AAd?$AAz?$AA?$AA@ 000000018002be18     libcpmt:winapinls.obj
 0002:00004e28       ??_C@_1M@FJNKGKIG@?$AAa?$AAr?$AA?9?$AAe?$AAg?$AA?$AA@ 000000018002be28     libcpmt:winapinls.obj
 0002:00004e38       ??_C@_1M@FLGKKCLO@?$AAa?$AAr?$AA?9?$AAi?$AAq?$AA?$AA@ 000000018002be38     libcpmt:winapinls.obj
 0002:00004e48       ??_C@_1M@GNDIPALM@?$AAa?$AAr?$AA?9?$AAj?$AAo?$AA?$AA@ 000000018002be48     libcpmt:winapinls.obj
 0002:00004e58       ??_C@_1M@DDMJFMGJ@?$AAa?$AAr?$AA?9?$AAk?$AAw?$AA?$AA@ 000000018002be58     libcpmt:winapinls.obj
 0002:00004e68       ??_C@_1M@EJALMLHM@?$AAa?$AAr?$AA?9?$AAl?$AAb?$AA?$AA@ 000000018002be68     libcpmt:winapinls.obj
 0002:00004e78       ??_C@_1M@MOBDBLOC@?$AAa?$AAr?$AA?9?$AAl?$AAy?$AA?$AA@ 000000018002be78     libcpmt:winapinls.obj
 0002:00004e88       ??_C@_1M@JAOCLHDH@?$AAa?$AAr?$AA?9?$AAm?$AAa?$AA?$AA@ 000000018002be88     libcpmt:winapinls.obj
 0002:00004e98       ??_C@_1M@JHPMKJIE@?$AAa?$AAr?$AA?9?$AAo?$AAm?$AA?$AA@ 000000018002be98     libcpmt:winapinls.obj
 0002:00004ea8       ??_C@_1M@OEPGHFNH@?$AAa?$AAr?$AA?9?$AAq?$AAa?$AA?$AA@ 000000018002bea8     libcpmt:winapinls.obj
 0002:00004eb8       ??_C@_1M@KJDONENM@?$AAa?$AAr?$AA?9?$AAs?$AAa?$AA?$AA@ 000000018002beb8     libcpmt:winapinls.obj
 0002:00004ec8       ??_C@_1M@DMJDKLKM@?$AAa?$AAr?$AA?9?$AAs?$AAy?$AA?$AA@ 000000018002bec8     libcpmt:winapinls.obj
 0002:00004ed8       ??_C@_1M@OMFIPEDC@?$AAa?$AAr?$AA?9?$AAt?$AAn?$AA?$AA@ 000000018002bed8     libcpmt:winapinls.obj
 0002:00004ee8       ??_C@_1M@IHMHGAON@?$AAa?$AAr?$AA?9?$AAy?$AAe?$AA?$AA@ 000000018002bee8     libcpmt:winapinls.obj
 0002:00004ef8       ??_C@_1BG@KDCPGJGB@?$AAa?$AAz?$AA?9?$AAa?$AAz?$AA?9?$AAc?$AAy?$AAr?$AAl?$AA?$AA@ 000000018002bef8     libcpmt:winapinls.obj
 0002:00004f10       ??_C@_1BG@IBCKDDOE@?$AAa?$AAz?$AA?9?$AAa?$AAz?$AA?9?$AAl?$AAa?$AAt?$AAn?$AA?$AA@ 000000018002bf10     libcpmt:winapinls.obj
 0002:00004f28       ??_C@_1M@EGPFDCPD@?$AAb?$AAe?$AA?9?$AAb?$AAy?$AA?$AA@ 000000018002bf28     libcpmt:winapinls.obj
 0002:00004f38       ??_C@_1M@PCMGMCGC@?$AAb?$AAg?$AA?9?$AAb?$AAg?$AA?$AA@ 000000018002bf38     libcpmt:winapinls.obj
 0002:00004f48       ??_C@_1M@BJBMFGOB@?$AAb?$AAn?$AA?9?$AAi?$AAn?$AA?$AA@ 000000018002bf48     libcpmt:winapinls.obj
 0002:00004f58       ??_C@_1BG@EAKMMACD@?$AAb?$AAs?$AA?9?$AAb?$AAa?$AA?9?$AAl?$AAa?$AAt?$AAn?$AA?$AA@ 000000018002bf58     libcpmt:winapinls.obj
 0002:00004f70       ??_C@_1M@KGADAODK@?$AAc?$AAa?$AA?9?$AAe?$AAs?$AA?$AA@ 000000018002bf70     libcpmt:winapinls.obj
 0002:00004f80       ??_C@_1M@COAJPDHI@?$AAc?$AAs?$AA?9?$AAc?$AAz?$AA?$AA@ 000000018002bf80     libcpmt:winapinls.obj
 0002:00004f90       ??_C@_1M@DHBHFONH@?$AAc?$AAy?$AA?9?$AAg?$AAb?$AA?$AA@ 000000018002bf90     libcpmt:winapinls.obj
 0002:00004fa0       ??_C@_1M@IMGKELGA@?$AAd?$AAa?$AA?9?$AAd?$AAk?$AA?$AA@ 000000018002bfa0     libcpmt:winapinls.obj
 0002:00004fb0       ??_C@_1M@NNDGDNGA@?$AAd?$AAe?$AA?9?$AAa?$AAt?$AA?$AA@ 000000018002bfb0     libcpmt:winapinls.obj
 0002:00004fc0       ??_C@_1M@IKDBHEEM@?$AAd?$AAe?$AA?9?$AAc?$AAh?$AA?$AA@ 000000018002bfc0     libcpmt:winapinls.obj
 0002:00004fd0       ??_C@_1M@GFFOJMCJ@?$AAd?$AAe?$AA?9?$AAd?$AAe?$AA?$AA@ 000000018002bfd0     libcpmt:winapinls.obj
 0002:00004fe0       ??_C@_1M@MDNLKBPM@?$AAd?$AAe?$AA?9?$AAl?$AAi?$AA?$AA@ 000000018002bfe0     libcpmt:winapinls.obj
 0002:00004ff0       ??_C@_1M@NJBEEJNL@?$AAd?$AAe?$AA?9?$AAl?$AAu?$AA?$AA@ 000000018002bff0     libcpmt:winapinls.obj
 0002:00005000       ??_C@_1O@GNNELBAP@?$AAd?$AAi?$AAv?$AA?9?$AAm?$AAv?$AA?$AA@ 000000018002c000     libcpmt:winapinls.obj
 0002:00005010       ??_C@_1M@EJLEOGAE@?$AAe?$AAl?$AA?9?$AAg?$AAr?$AA?$AA@ 000000018002c010     libcpmt:winapinls.obj
 0002:00005020       ??_C@_1M@GMPONJN@?$AAe?$AAn?$AA?9?$AAa?$AAu?$AA?$AA@ 000000018002c020     libcpmt:winapinls.obj
 0002:00005030       ??_C@_1M@NIDIIPGF@?$AAe?$AAn?$AA?9?$AAb?$AAz?$AA?$AA@ 000000018002c030     libcpmt:winapinls.obj
 0002:00005040       ??_C@_1M@JEHMIMFO@?$AAe?$AAn?$AA?9?$AAc?$AAa?$AA?$AA@ 000000018002c040     libcpmt:winapinls.obj
 0002:00005050       ??_C@_1M@IGMJCDLA@?$AAe?$AAn?$AA?9?$AAc?$AAb?$AA?$AA@ 000000018002c050     libcpmt:winapinls.obj
 0002:00005060       ??_C@_1M@BNFIGBKG@?$AAe?$AAn?$AA?9?$AAg?$AAb?$AA?$AA@ 000000018002c060     libcpmt:winapinls.obj
 0002:00005070       ??_C@_1M@LKIFDIGP@?$AAe?$AAn?$AA?9?$AAi?$AAe?$AA?$AA@ 000000018002c070     libcpmt:winapinls.obj
 0002:00005080       ??_C@_1M@PJKFGCCO@?$AAe?$AAn?$AA?9?$AAj?$AAm?$AA?$AA@ 000000018002c080     libcpmt:winapinls.obj
 0002:00005090       ??_C@_1M@KPPKEPBO@?$AAe?$AAn?$AA?9?$AAn?$AAz?$AA?$AA@ 000000018002c090     libcpmt:winapinls.obj
 0002:000050a0       ??_C@_1M@GMDGLDOB@?$AAe?$AAn?$AA?9?$AAp?$AAh?$AA?$AA@ 000000018002c0a0     libcpmt:winapinls.obj
 0002:000050b0       ??_C@_1M@ONGIBJNA@?$AAe?$AAn?$AA?9?$AAt?$AAt?$AA?$AA@ 000000018002c0b0     libcpmt:winapinls.obj
 0002:000050c0       ??_C@_1M@LLODPCMM@?$AAe?$AAn?$AA?9?$AAu?$AAs?$AA?$AA@ 000000018002c0c0     libcpmt:winapinls.obj
 0002:000050d0       ??_C@_1M@LAKFNPAN@?$AAe?$AAn?$AA?9?$AAz?$AAa?$AA?$AA@ 000000018002c0d0     libcpmt:winapinls.obj
 0002:000050e0       ??_C@_1M@MFNHNHEO@?$AAe?$AAn?$AA?9?$AAz?$AAw?$AA?$AA@ 000000018002c0e0     libcpmt:winapinls.obj
 0002:000050f0       ??_C@_1M@EJEINPHM@?$AAe?$AAs?$AA?9?$AAa?$AAr?$AA?$AA@ 000000018002c0f0     libcpmt:winapinls.obj
 0002:00005100       ??_C@_1M@GNKPCCJA@?$AAe?$AAs?$AA?9?$AAb?$AAo?$AA?$AA@ 000000018002c100     libcpmt:winapinls.obj
 0002:00005110       ??_C@_1M@LEEGFONL@?$AAe?$AAs?$AA?9?$AAc?$AAl?$AA?$AA@ 000000018002c110     libcpmt:winapinls.obj
 0002:00005120       ??_C@_1M@KGPDPBDF@?$AAe?$AAs?$AA?9?$AAc?$AAo?$AA?$AA@ 000000018002c120     libcpmt:winapinls.obj
 0002:00005130       ??_C@_1M@EIAHOHH@?$AAe?$AAs?$AA?9?$AAc?$AAr?$AA?$AA@ 000000018002c130     libcpmt:winapinls.obj
 0002:00005140       ??_C@_1M@LLPGMBIN@?$AAe?$AAs?$AA?9?$AAd?$AAo?$AA?$AA@ 000000018002c140     libcpmt:winapinls.obj
 0002:00005150       ??_C@_1M@DKHMKNJA@?$AAe?$AAs?$AA?9?$AAe?$AAc?$AA?$AA@ 000000018002c150     libcpmt:winapinls.obj
 0002:00005160       ??_C@_1M@GKGFPKAP@?$AAe?$AAs?$AA?9?$AAe?$AAs?$AA?$AA@ 000000018002c160     libcpmt:winapinls.obj
 0002:00005170       ??_C@_1M@LKHKGDLN@?$AAe?$AAs?$AA?9?$AAg?$AAt?$AA?$AA@ 000000018002c170     libcpmt:winapinls.obj
 0002:00005180       ??_C@_1M@HEIIGGJD@?$AAe?$AAs?$AA?9?$AAh?$AAn?$AA?$AA@ 000000018002c180     libcpmt:winapinls.obj
 0002:00005190       ??_C@_1M@FBDHPPGD@?$AAe?$AAs?$AA?9?$AAm?$AAx?$AA?$AA@ 000000018002c190     libcpmt:winapinls.obj
 0002:000051a0       ??_C@_1M@DPAGLNDH@?$AAe?$AAs?$AA?9?$AAn?$AAi?$AA?$AA@ 000000018002c1a0     libcpmt:winapinls.obj
 0002:000051b0       ??_C@_1M@MDGOPGDD@?$AAe?$AAs?$AA?9?$AAp?$AAa?$AA?$AA@ 000000018002c1b0     libcpmt:winapinls.obj
 0002:000051c0       ??_C@_1M@EMAMGBGE@?$AAe?$AAs?$AA?9?$AAp?$AAe?$AA?$AA@ 000000018002c1c0     libcpmt:winapinls.obj
 0002:000051d0       ??_C@_1M@IBMCAOEC@?$AAe?$AAs?$AA?9?$AAp?$AAr?$AA?$AA@ 000000018002c1d0     libcpmt:winapinls.obj
 0002:000051e0       ??_C@_1M@FGMDIJED@?$AAe?$AAs?$AA?9?$AAp?$AAy?$AA?$AA@ 000000018002c1e0     libcpmt:winapinls.obj
 0002:000051f0       ??_C@_1M@IIDEOLLL@?$AAe?$AAs?$AA?9?$AAs?$AAv?$AA?$AA@ 000000018002c1f0     libcpmt:winapinls.obj
 0002:00005200       ??_C@_1M@GAOBIPA@?$AAe?$AAs?$AA?9?$AAu?$AAy?$AA?$AA@ 000000018002c200     libcpmt:winapinls.obj
 0002:00005210       _pDefaultRawDllMain        000000018002c210     LIBCMT:dll_dllmain.obj
 0002:00005210       _pRawDllMain               000000018002c210     LIBCMT:dll_dllmain.obj
 0002:00005220       ??_7type_info@@6B@         000000018002c220     LIBCMT:std_type_info_static.obj
 0002:00005240       ??_7bad_array_new_length@std@@6B@ 000000018002c240     LIBCMT:throw_bad_alloc.obj
 0002:00005250       ??_C@_0BF@KINCDENJ@bad?5array?5new?5length?$AA@ 000000018002c250     LIBCMT:throw_bad_alloc.obj
 0002:00005268       _pDestructExceptionObject  000000018002c268     libvcruntime:frame.obj
 0002:00005278       ??_7bad_exception@std@@6B@ 000000018002c278     libvcruntime:frame.obj
 0002:00005288       ??_C@_0O@DPKOEFFH@bad?5exception?$AA@ 000000018002c288     libvcruntime:frame.obj
 0002:00005398       ??_C@_1BC@DNHGCMLG@?$AAa?$AAd?$AAv?$AAa?$AAp?$AAi?$AA3?$AA2?$AA?$AA@ 000000018002c398     libvcruntime:winapi_downlevel.obj
 0002:000053b0       ??_C@_1DM@KHCHBNEB@?$AAa?$AAp?$AAi?$AA?9?$AAm?$AAs?$AA?9?$AAw?$AAi?$AAn?$AA?9?$AAc?$AAo?$AAr?$AAe?$AA?9?$AAf?$AAi?$AAb?$AAe?$AAr?$AAs?$AA?9?$AAl?$AA1?$AA?9?$AA1?$AA?9?$AA1?$AA?$AA@ 000000018002c3b0     libvcruntime:winapi_downlevel.obj
 0002:000053f0       ??_C@_1DK@LPPGFMPP@?$AAa?$AAp?$AAi?$AA?9?$AAm?$AAs?$AA?9?$AAw?$AAi?$AAn?$AA?9?$AAc?$AAo?$AAr?$AAe?$AA?9?$AAs?$AAy?$AAn?$AAc?$AAh?$AA?9?$AAl?$AA1?$AA?9?$AA2?$AA?9?$AA0?$AA?$AA@ 000000018002c3f0     libvcruntime:winapi_downlevel.obj
 0002:00005430       ??_C@_1BC@GDMECMAK@?$AAk?$AAe?$AAr?$AAn?$AAe?$AAl?$AA3?$AA2?$AA?$AA@ 000000018002c430     libvcruntime:winapi_downlevel.obj
 0002:00005790       ??_C@_08EHJDFFNH@__based?$CI?$AA@ 000000018002c790     libvcruntime:undname.obj
 0002:000057a0       ??_C@_07KOLFKCDI@__cdecl?$AA@ 000000018002c7a0     libvcruntime:undname.obj
 0002:000057a8       ??_C@_08GHMPAG@__pascal?$AA@ 000000018002c7a8     libvcruntime:undname.obj
 0002:000057b8       ??_C@_09IFJBGAPI@__stdcall?$AA@ 000000018002c7b8     libvcruntime:undname.obj
 0002:000057c8       ??_C@_0L@NPHFGOKO@__thiscall?$AA@ 000000018002c7c8     libvcruntime:undname.obj
 0002:000057d8       ??_C@_0L@JMKHOMEK@__fastcall?$AA@ 000000018002c7d8     libvcruntime:undname.obj
 0002:000057e8       ??_C@_0N@BCKKPABJ@__vectorcall?$AA@ 000000018002c7e8     libvcruntime:undname.obj
 0002:000057f8       ??_C@_09HIJEGCPM@__clrcall?$AA@ 000000018002c7f8     libvcruntime:undname.obj
 0002:00005804       ??_C@_06GHPCKEAG@__eabi?$AA@ 000000018002c804     libvcruntime:undname.obj
 0002:00005810       ??_C@_07JOMMBBKO@__ptr64?$AA@ 000000018002c810     libvcruntime:undname.obj
 0002:00005818       ??_C@_0L@PILCLIHE@__restrict?$AA@ 000000018002c818     libvcruntime:undname.obj
 0002:00005828       ??_C@_0M@GFIIJFMG@__unaligned?$AA@ 000000018002c828     libvcruntime:undname.obj
 0002:00005838       ??_C@_09DHDLOLLB@restrict?$CI?$AA@ 000000018002c838     libvcruntime:undname.obj
 0002:00005844       ??_C@_04NIHEBCM@?5new?$AA@ 000000018002c844     libvcruntime:undname.obj
 0002:00005850       ??_C@_07FPCDHGMM@?5delete?$AA@ 000000018002c850     libvcruntime:undname.obj
 0002:00005858       ??_C@_01NEMOKFLO@?$DN?$AA@ 000000018002c858     libvcruntime:undname.obj
 0002:0000585c       ??_C@_02GPIOPFAK@?$DO?$DO?$AA@ 000000018002c85c     libvcruntime:undname.obj
 0002:00005860       ??_C@_02FODMEDOG@?$DM?$DM?$AA@ 000000018002c860     libvcruntime:undname.obj
 0002:00005864       ??_C@_01DCLJPIOD@?$CB?$AA@ 000000018002c864     libvcruntime:undname.obj
 0002:00005868       ??_C@_02EGOFBIJA@?$DN?$DN?$AA@ 000000018002c868     libvcruntime:undname.obj
 0002:0000586c       ??_C@_02FDNJECIE@?$CB?$DN?$AA@ 000000018002c86c     libvcruntime:undname.obj
 0002:00005870       ??_C@_02GPECMEKF@?$FL?$FN?$AA@ 000000018002c870     libvcruntime:undname.obj
 0002:00005878       ??_C@_08LHJFAFGD@operator?$AA@ 000000018002c878     libvcruntime:undname.obj
 0002:00005884       ??_C@_02HBOOOICD@?9?$DO?$AA@ 000000018002c884     libvcruntime:undname.obj
 0002:00005888       ??_C@_02ECNGHCIF@?$CL?$CL?$AA@ 000000018002c888     libvcruntime:undname.obj
 0002:0000588c       ??_C@_02BAABKJLB@?9?9?$AA@ 000000018002c88c     libvcruntime:undname.obj
 0002:00005890       ??_C@_01MIFGBAGJ@?$CL?$AA@ 000000018002c890     libvcruntime:undname.obj
 0002:00005894       ??_C@_01HNPIGOCE@?$CG?$AA@ 000000018002c894     libvcruntime:undname.obj
 0002:00005898       ??_C@_03MNHNFDLC@?9?$DO?$CK?$AA@ 000000018002c898     libvcruntime:undname.obj
 0002:0000589c       ??_C@_01KMDKNFGN@?1?$AA@   000000018002c89c     libvcruntime:undname.obj
 0002:000058a0       ??_C@_01FGNFDNOH@?$CF?$AA@ 000000018002c8a0     libvcruntime:undname.obj
 0002:000058a4       ??_C@_01MNNFJEPP@?$DM?$AA@ 000000018002c8a4     libvcruntime:undname.obj
 0002:000058a8       ??_C@_02EHCHHCKH@?$DM?$DN?$AA@ 000000018002c8a8     libvcruntime:undname.obj
 0002:000058ac       ??_C@_01PPODPGHN@?$DO?$AA@ 000000018002c8ac     libvcruntime:undname.obj
 0002:000058b0       ??_C@_02EEKDKGMJ@?$DO?$DN?$AA@ 000000018002c8b0     libvcruntime:undname.obj
 0002:000058b4       ??_C@_01IHBHIGKO@?0?$AA@   000000018002c8b4     libvcruntime:undname.obj
 0002:000058b8       ??_C@_02HCKGKOFO@?$CI?$CJ?$AA@ 000000018002c8b8     libvcruntime:undname.obj
 0002:000058bc       ??_C@_01PJKLJHI@?$HO?$AA@  000000018002c8bc     libvcruntime:undname.obj
 0002:000058c0       ??_C@_01JKBOJNNK@?$FO?$AA@ 000000018002c8c0     libvcruntime:undname.obj
 0002:000058c4       ??_C@_01DNKMNLPK@?$HM?$AA@ 000000018002c8c4     libvcruntime:undname.obj
 0002:000058c8       ??_C@_02PPKAJPJL@?$CG?$CG?$AA@ 000000018002c8c8     libvcruntime:undname.obj
 0002:000058cc       ??_C@_02NONPIBCD@?$HM?$HM?$AA@ 000000018002c8cc     libvcruntime:undname.obj
 0002:000058d0       ??_C@_02FPIMKNGF@?$CK?$DN?$AA@ 000000018002c8d0     libvcruntime:undname.obj
 0002:000058d4       ??_C@_02FOEOMHFC@?$CL?$DN?$AA@ 000000018002c8d4     libvcruntime:undname.obj
 0002:000058d8       ??_C@_02FKMDLLOA@?9?$DN?$AA@ 000000018002c8d8     libvcruntime:undname.obj
 0002:000058dc       ??_C@_02FJEHGPIO@?1?$DN?$AA@ 000000018002c8dc     libvcruntime:undname.obj
 0002:000058e0       ??_C@_02FENAOKFI@?$CF?$DN?$AA@ 000000018002c8e0     libvcruntime:undname.obj
 0002:000058e4       ??_C@_03IKFCCPFF@?$DO?$DO?$DN?$AA@ 000000018002c8e4     libvcruntime:undname.obj
 0002:000058e8       ??_C@_03CDNPDDLA@?$DM?$DM?$DN?$AA@ 000000018002c8e8     libvcruntime:undname.obj
 0002:000058ec       ??_C@_02FGJGFEAB@?$CG?$DN?$AA@ 000000018002c8ec     libvcruntime:undname.obj
 0002:000058f0       ??_C@_02DHLNPPGH@?$HM?$DN?$AA@ 000000018002c8f0     libvcruntime:undname.obj
 0002:000058f4       ??_C@_02MHEGNOJ@?$FO?$DN?$AA@ 000000018002c8f4     libvcruntime:undname.obj
 0002:000058f8       ??_C@_09IFPLHPGF@?$GAvftable?8?$AA@ 000000018002c8f8     libvcruntime:undname.obj
 0002:00005908       ??_C@_09BLBHBJP@?$GAvbtable?8?$AA@ 000000018002c908     libvcruntime:undname.obj
 0002:00005918       ??_C@_07FEEIOKP@?$GAvcall?8?$AA@ 000000018002c918     libvcruntime:undname.obj
 0002:00005920       ??_C@_08LLFFHHDJ@?$GAtypeof?8?$AA@ 000000018002c920     libvcruntime:undname.obj
 0002:00005930       ??_C@_0BF@KDPPACIK@?$GAlocal?5static?5guard?8?$AA@ 000000018002c930     libvcruntime:undname.obj
 0002:00005948       ??_C@_08OBABFOLI@?$GAstring?8?$AA@ 000000018002c948     libvcruntime:undname.obj
 0002:00005958       ??_C@_0BD@JDLKDPAB@?$GAvbase?5destructor?8?$AA@ 000000018002c958     libvcruntime:undname.obj
 0002:00005970       ??_C@_0BN@DEGPLNFK@?$GAvector?5deleting?5destructor?8?$AA@ 000000018002c970     libvcruntime:undname.obj
 0002:00005990       ??_C@_0BO@OBMKPJIG@?$GAdefault?5constructor?5closure?8?$AA@ 000000018002c990     libvcruntime:undname.obj
 0002:000059b0       ??_C@_0BN@IMDCHIKM@?$GAscalar?5deleting?5destructor?8?$AA@ 000000018002c9b0     libvcruntime:undname.obj
 0002:000059d0       ??_C@_0BO@PFGOCPJJ@?$GAvector?5constructor?5iterator?8?$AA@ 000000018002c9d0     libvcruntime:undname.obj
 0002:000059f0       ??_C@_0BN@LFPFMEDL@?$GAvector?5destructor?5iterator?8?$AA@ 000000018002c9f0     libvcruntime:undname.obj
 0002:00005a10       ??_C@_0CE@IKBNEHA@?$GAvector?5vbase?5constructor?5iterat@ 000000018002ca10     libvcruntime:undname.obj
 0002:00005a38       ??_C@_0BL@NILFHHPC@?$GAvirtual?5displacement?5map?8?$AA@ 000000018002ca38     libvcruntime:undname.obj
 0002:00005a58       ??_C@_0CB@JONCMFFK@?$GAeh?5vector?5constructor?5iterator?8@ 000000018002ca58     libvcruntime:undname.obj
 0002:00005a80       ??_C@_0CA@GCEOPDGL@?$GAeh?5vector?5destructor?5iterator?8?$AA@ 000000018002ca80     libvcruntime:undname.obj
 0002:00005aa0       ??_C@_0CH@OOJPLCPH@?$GAeh?5vector?5vbase?5constructor?5ite@ 000000018002caa0     libvcruntime:undname.obj
 0002:00005ac8       ??_C@_0BL@LLKPOHJI@?$GAcopy?5constructor?5closure?8?$AA@ 000000018002cac8     libvcruntime:undname.obj
 0002:00005ae8       ??_C@_0BA@KBCDOMBN@?$GAudt?5returning?8?$AA@ 000000018002cae8     libvcruntime:undname.obj
 0002:00005af8       ??_C@_03KLGMFNMG@?$GAEH?$AA@ 000000018002caf8     libvcruntime:undname.obj
 0002:00005afc       ??_C@_05KHLCHHI@?$GARTTI?$AA@ 000000018002cafc     libvcruntime:undname.obj
 0002:00005b08       ??_C@_0BA@KKLDJDLB@?$GAlocal?5vftable?8?$AA@ 000000018002cb08     libvcruntime:undname.obj
 0002:00005b18       ??_C@_0CE@IIHCMGGL@?$GAlocal?5vftable?5constructor?5closu@ 000000018002cb18     libvcruntime:undname.obj
 0002:00005b3c       ??_C@_06FHBGPFGH@?5new?$FL?$FN?$AA@ 000000018002cb3c     libvcruntime:undname.obj
 0002:00005b48       ??_C@_09LBNFPBCA@?5delete?$FL?$FN?$AA@ 000000018002cb48     libvcruntime:undname.obj
 0002:00005b58       ??_C@_0P@HJKNJFNN@?$GAomni?5callsig?8?$AA@ 000000018002cb58     libvcruntime:undname.obj
 0002:00005b68       ??_C@_0BL@CNOONJFP@?$GAplacement?5delete?5closure?8?$AA@ 000000018002cb68     libvcruntime:undname.obj
 0002:00005b88       ??_C@_0BN@CKNJLHMB@?$GAplacement?5delete?$FL?$FN?5closure?8?$AA@ 000000018002cb88     libvcruntime:undname.obj
 0002:00005ba8       ??_C@_0CG@CFDHKGGD@?$GAmanaged?5vector?5constructor?5iter@ 000000018002cba8     libvcruntime:undname.obj
 0002:00005bd0       ??_C@_0CF@IMGKMJNO@?$GAmanaged?5vector?5destructor?5itera@ 000000018002cbd0     libvcruntime:undname.obj
 0002:00005bf8       ??_C@_0CG@HLDDJMAG@?$GAeh?5vector?5copy?5constructor?5iter@ 000000018002cbf8     libvcruntime:undname.obj
 0002:00005c20       ??_C@_0CM@FCBBDIGB@?$GAeh?5vector?5vbase?5copy?5constructo@ 000000018002cc20     libvcruntime:undname.obj
 0002:00005c50       ??_C@_0BL@CLIPGLGB@?$GAdynamic?5initializer?5for?5?8?$AA@ 000000018002cc50     libvcruntime:undname.obj
 0002:00005c70       ??_C@_0CB@PDBIFEP@?$GAdynamic?5atexit?5destructor?5for?5?8@ 000000018002cc70     libvcruntime:undname.obj
 0002:00005c98       ??_C@_0CD@CGAJBKEJ@?$GAvector?5copy?5constructor?5iterato@ 000000018002cc98     libvcruntime:undname.obj
 0002:00005cc0       ??_C@_0CJ@GJELGAMM@?$GAvector?5vbase?5copy?5constructor?5i@ 000000018002ccc0     libvcruntime:undname.obj
 0002:00005cf0       ??_C@_0CL@FGIJHLCE@?$GAmanaged?5vector?5copy?5constructor@ 000000018002ccf0     libvcruntime:undname.obj
 0002:00005d20       ??_C@_0BM@PMGGMLDN@?$GAlocal?5static?5thread?5guard?8?$AA@ 000000018002cd20     libvcruntime:undname.obj
 0002:00005d40       ??_C@_0N@BDNMDMOL@operator?5?$CC?$CC?5?$AA@ 000000018002cd40     libvcruntime:undname.obj
 0002:00005d50       ??_C@_0BC@DAFEJGAK@?5Type?5Descriptor?8?$AA@ 000000018002cd50     libvcruntime:undname.obj
 0002:00005d68       ??_C@_0BM@LDKODKLH@?5Base?5Class?5Descriptor?5at?5?$CI?$AA@ 000000018002cd68     libvcruntime:undname.obj
 0002:00005d88       ??_C@_0BD@LGICGFMM@?5Base?5Class?5Array?8?$AA@ 000000018002cd88     libvcruntime:undname.obj
 0002:00005da0       ??_C@_0BN@MECKDCOJ@?5Class?5Hierarchy?5Descriptor?8?$AA@ 000000018002cda0     libvcruntime:undname.obj
 0002:00005dc0       ??_C@_0BK@CFCOFLF@?5Complete?5Object?5Locator?8?$AA@ 000000018002cdc0     libvcruntime:undname.obj
 0002:00005de0       ?large_power_data@?1??multiply_by_power_of_ten@__crt_strtox@@YA_NAEAUbig_integer@2@I@Z@4QBIB 000000018002cde0     libucrt:strtod.obj
 0002:000066f0       ?large_power_indices@?1??multiply_by_power_of_ten@__crt_strtox@@YA_NAEAUbig_integer@2@I@Z@4QBUunpack_index@?1??12@YA_N0I@Z@B 000000018002d6f0     libucrt:strtod.obj
 0002:00006788       ?small_powers_of_ten@?6??multiply_by_power_of_ten@__crt_strtox@@YA_NAEAUbig_integer@2@I@Z@4QBIB 000000018002d788     libucrt:strtod.obj
 0002:000067b0       ??_C@_1GE@DPGDJKLM@?$AAm?$AAi?$AAn?$AAk?$AAe?$AAr?$AAn?$AAe?$AAl?$AA?2?$AAc?$AAr?$AAt?$AAs?$AA?2?$AAu?$AAc?$AAr?$AAt?$AA?2?$AAi?$AAn?$AAc?$AA?2?$AAc?$AAo?$AAr?$AAe?$AAc?$AAr?$AAt?$AA_@ 000000018002d7b0     libucrt:strtod.obj
 0002:00006820       ??_C@_1FM@FELNCOBF@?$AA_?$AA_?$AAc?$AAr?$AAt?$AA_?$AAs?$AAt?$AAr?$AAt?$AAo?$AAx?$AA?3?$AA?3?$AAf?$AAl?$AAo?$AAa?$AAt?$AAi?$AAn?$AAg?$AA_?$AAp?$AAo?$AAi?$AAn?$AAt?$AA_?$AAv?$AAa?$AAl@ 000000018002d820     libucrt:strtod.obj
 0002:00006880       ??_C@_1BG@GEMHBGAF@?$AA_?$AAi?$AAs?$AA_?$AAd?$AAo?$AAu?$AAb?$AAl?$AAe?$AA?$AA@ 000000018002d880     libucrt:strtod.obj
 0002:000068a0       ??_C@_1FK@JOJELFFO@?$AA_?$AA_?$AAc?$AAr?$AAt?$AA_?$AAs?$AAt?$AAr?$AAt?$AAo?$AAx?$AA?3?$AA?3?$AAf?$AAl?$AAo?$AAa?$AAt?$AAi?$AAn?$AAg?$AA_?$AAp?$AAo?$AAi?$AAn?$AAt?$AA_?$AAv?$AAa?$AAl@ 000000018002d8a0     libucrt:strtod.obj
 0002:00006900       ??_C@_1BI@BANMPGJI@?$AA?$CB?$AA_?$AAi?$AAs?$AA_?$AAd?$AAo?$AAu?$AAb?$AAl?$AAe?$AA?$AA@ 000000018002d900     libucrt:strtod.obj
 0002:00006918       ?inf_uppercase@?2???$parse_floating_point_possible_infinity@DV?$c_string_character_source@D@__crt_strtox@@PEBD@__crt_strtox@@YA?AW4floating_point_parse_result@1@AEADAEAV?$c_string_character_source@D@1@PEBD@Z@4QBDB 000000018002d918     libucrt:strtod.obj
 0002:0000691c       ?inf_lowercase@?2???$parse_floating_point_possible_infinity@DV?$c_string_character_source@D@__crt_strtox@@PEBD@__crt_strtox@@YA?AW4floating_point_parse_result@1@AEADAEAV?$c_string_character_source@D@1@PEBD@Z@4QBDB 000000018002d91c     libucrt:strtod.obj
 0002:00006920       ?inity_uppercase@?5???$parse_floating_point_possible_infinity@DV?$c_string_character_source@D@__crt_strtox@@PEBD@__crt_strtox@@YA?AW4floating_point_parse_result@1@AEADAEAV?$c_string_character_source@D@1@PEBD@Z@4QBDB 000000018002d920     libucrt:strtod.obj
 0002:00006928       ?inity_lowercase@?5???$parse_floating_point_possible_infinity@DV?$c_string_character_source@D@__crt_strtox@@PEBD@__crt_strtox@@YA?AW4floating_point_parse_result@1@AEADAEAV?$c_string_character_source@D@1@PEBD@Z@4QBDB 000000018002d928     libucrt:strtod.obj
 0002:00006930       ?uppercase@?2???$parse_floating_point_possible_nan@DV?$c_string_character_source@D@__crt_strtox@@PEBD@__crt_strtox@@YA?AW4floating_point_parse_result@1@AEADAEAV?$c_string_character_source@D@1@PEBD@Z@4QBDB 000000018002d930     libucrt:strtod.obj
 0002:00006934       ?lowercase@?2???$parse_floating_point_possible_nan@DV?$c_string_character_source@D@__crt_strtox@@PEBD@__crt_strtox@@YA?AW4floating_point_parse_result@1@AEADAEAV?$c_string_character_source@D@1@PEBD@Z@4QBDB 000000018002d934     libucrt:strtod.obj
 0002:00006938       ?uppercase@?1???$parse_floating_point_possible_nan_is_snan@DV?$c_string_character_source@D@__crt_strtox@@@__crt_strtox@@YA_NAEADAEAV?$c_string_character_source@D@1@@Z@4QBDB 000000018002d938     libucrt:strtod.obj
 0002:00006940       ?lowercase@?1???$parse_floating_point_possible_nan_is_snan@DV?$c_string_character_source@D@__crt_strtox@@@__crt_strtox@@YA_NAEADAEAV?$c_string_character_source@D@1@@Z@4QBDB 000000018002d940     libucrt:strtod.obj
 0002:00006948       ?uppercase@?1???$parse_floating_point_possible_nan_is_ind@DV?$c_string_character_source@D@__crt_strtox@@@__crt_strtox@@YA_NAEADAEAV?$c_string_character_source@D@1@@Z@4QBDB 000000018002d948     libucrt:strtod.obj
 0002:0000694c       ?lowercase@?1???$parse_floating_point_possible_nan_is_ind@DV?$c_string_character_source@D@__crt_strtox@@@__crt_strtox@@YA_NAEADAEAV?$c_string_character_source@D@1@@Z@4QBDB 000000018002d94c     libucrt:strtod.obj
 0002:00006ab8       __real@0000000000000000    000000018002dab8     libucrt:ldexp.obj
 0002:00006ac0       __real@3ff0000000000000    000000018002dac0     libucrt:ldexp.obj
 0002:00006ad0       __newctype                 000000018002dad0     libucrt:ctype.obj
 0002:00006dd0       __newclmap                 000000018002ddd0     libucrt:ctype.obj
 0002:00006f50       __newcumap                 000000018002df50     libucrt:ctype.obj
 0002:000070d0       _wctype                    000000018002e0d0     libucrt:ctype.obj
 0002:00008f90       __acrt_exception_action_table 000000018002ff90     libucrt:exception_filter.obj
 0002:00009050       __acrt_signal_action_table_count 0000000180030050     libucrt:exception_filter.obj
 0002:00009058       __acrt_signal_action_first_fpe_index 0000000180030058     libucrt:exception_filter.obj
 0002:00009060       __acrt_signal_action_fpe_count 0000000180030060     libucrt:exception_filter.obj
 0002:00009068       ??_C@_1BI@BGOHAHKC@?$AAm?$AAs?$AAc?$AAo?$AAr?$AAe?$AAe?$AA?4?$AAd?$AAl?$AAl?$AA?$AA@ 0000000180030068     libucrt:exit.obj
 0002:00009080       ??_C@_0P@MIGLKIOC@CorExitProcess?$AA@ 0000000180030080     libucrt:exit.obj
 0002:00009180       __lc_category              0000000180030180     libucrt:wsetlocale.obj
 0002:00009210       ??_C@_1O@GIFLHMA@?$AAL?$AAC?$AA_?$AAA?$AAL?$AAL?$AA?$AA@ 0000000180030210     libucrt:wsetlocale.obj
 0002:00009220       ??_C@_1BG@PPOMIBNJ@?$AAL?$AAC?$AA_?$AAC?$AAO?$AAL?$AAL?$AAA?$AAT?$AAE?$AA?$AA@ 0000000180030220     libucrt:wsetlocale.obj
 0002:00009238       ??_C@_1BC@FFJGAPJM@?$AAL?$AAC?$AA_?$AAC?$AAT?$AAY?$AAP?$AAE?$AA?$AA@ 0000000180030238     libucrt:wsetlocale.obj
 0002:00009250       ??_C@_1BI@PCKFNJFB@?$AAL?$AAC?$AA_?$AAM?$AAO?$AAN?$AAE?$AAT?$AAA?$AAR?$AAY?$AA?$AA@ 0000000180030250     libucrt:wsetlocale.obj
 0002:00009268       ??_C@_1BG@ENIEDKID@?$AAL?$AAC?$AA_?$AAN?$AAU?$AAM?$AAE?$AAR?$AAI?$AAC?$AA?$AA@ 0000000180030268     libucrt:wsetlocale.obj
 0002:00009280       ??_C@_1BA@HAAOMIIG@?$AAL?$AAC?$AA_?$AAT?$AAI?$AAM?$AAE?$AA?$AA@ 0000000180030280     libucrt:wsetlocale.obj
 0002:00009310       ??_C@_15NBPDDFIP@?$AA?$DN?$AA?$DL?$AA?$AA@ 0000000180030310     libucrt:wsetlocale.obj
 0002:00009318       ??_C@_13PJJBFPED@?$AA?$DL?$AA?$AA@ 0000000180030318     libucrt:wsetlocale.obj
 0002:0000931c       ??_C@_13NMPKAAJP@?$AA?$DN?$AA?$AA@ 000000018003031c     libucrt:wsetlocale.obj
 0002:00009320       ??_C@_13FHBKNHDA@?$AAC?$AA?$AA@ 0000000180030320     libucrt:wsetlocale.obj
 0002:00009328       ??_C@_17MBJJLFDM@?$AA_?$AA?4?$AA?0?$AA?$AA@ 0000000180030328     libucrt:wsetlocale.obj
 0002:00009330       ??_C@_13ENNFDPBH@?$AA_?$AA?$AA@ 0000000180030330     libucrt:wsetlocale.obj
 0002:00009334       ??_C@_13JOFGPIOO@?$AA?4?$AA?$AA@ 0000000180030334     libucrt:wsetlocale.obj
 0002:00009340       __lc_time_c                0000000180030340     libucrt:nlsdata.obj
 0002:00009600       ??_C@_03KOEHGMDN@Sun?$AA@  0000000180030600     libucrt:nlsdata.obj
 0002:00009604       ??_C@_03PDAGKDH@Mon?$AA@   0000000180030604     libucrt:nlsdata.obj
 0002:00009608       ??_C@_03NAGEINEP@Tue?$AA@  0000000180030608     libucrt:nlsdata.obj
 0002:0000960c       ??_C@_03MHOMLAJA@Wed?$AA@  000000018003060c     libucrt:nlsdata.obj
 0002:00009610       ??_C@_03IOFIKPDN@Thu?$AA@  0000000180030610     libucrt:nlsdata.obj
 0002:00009614       ??_C@_03IDIOELNC@Fri?$AA@  0000000180030614     libucrt:nlsdata.obj
 0002:00009618       ??_C@_03FEFJNEK@Sat?$AA@   0000000180030618     libucrt:nlsdata.obj
 0002:0000961c       ??_C@_06OOPIFAJ@Sunday?$AA@ 000000018003061c     libucrt:nlsdata.obj
 0002:00009624       ??_C@_06JLEDEDGH@Monday?$AA@ 0000000180030624     libucrt:nlsdata.obj
 0002:00009630       ??_C@_07BAAGCFCM@Tuesday?$AA@ 0000000180030630     libucrt:nlsdata.obj
 0002:00009638       ??_C@_09DLIGFAKA@Wednesday?$AA@ 0000000180030638     libucrt:nlsdata.obj
 0002:00009648       ??_C@_08HACCIKIA@Thursday?$AA@ 0000000180030648     libucrt:nlsdata.obj
 0002:00009654       ??_C@_06JECMNKMI@Friday?$AA@ 0000000180030654     libucrt:nlsdata.obj
 0002:00009660       ??_C@_08INBOOONO@Saturday?$AA@ 0000000180030660     libucrt:nlsdata.obj
 0002:0000966c       ??_C@_03JIHJHPIE@Jan?$AA@  000000018003066c     libucrt:nlsdata.obj
 0002:00009670       ??_C@_03HJBDCHOM@Feb?$AA@  0000000180030670     libucrt:nlsdata.obj
 0002:00009674       ??_C@_03ODNJBKGA@Mar?$AA@  0000000180030674     libucrt:nlsdata.obj
 0002:00009678       ??_C@_03LEOLGMJP@Apr?$AA@  0000000180030678     libucrt:nlsdata.obj
 0002:0000967c       ??_C@_03CNMDKL@May?$AA@    000000018003067c     libucrt:nlsdata.obj
 0002:00009680       ??_C@_03IDFGHECI@Jun?$AA@  0000000180030680     libucrt:nlsdata.obj
 0002:00009684       ??_C@_03LBGABGKK@Jul?$AA@  0000000180030684     libucrt:nlsdata.obj
 0002:00009688       ??_C@_03IFJFEIGA@Aug?$AA@  0000000180030688     libucrt:nlsdata.obj
 0002:0000968c       ??_C@_03GGCAPAJC@Sep?$AA@  000000018003068c     libucrt:nlsdata.obj
 0002:00009690       ??_C@_03BMAOKBAD@Oct?$AA@  0000000180030690     libucrt:nlsdata.obj
 0002:00009694       ??_C@_03JPJOFNIA@Nov?$AA@  0000000180030694     libucrt:nlsdata.obj
 0002:00009698       ??_C@_03MKABNOCG@Dec?$AA@  0000000180030698     libucrt:nlsdata.obj
 0002:000096a0       ??_C@_07CGJPFGJA@January?$AA@ 00000001800306a0     libucrt:nlsdata.obj
 0002:000096a8       ??_C@_08GNJGEPFN@February?$AA@ 00000001800306a8     libucrt:nlsdata.obj
 0002:000096b4       ??_C@_05HPCKOFNC@March?$AA@ 00000001800306b4     libucrt:nlsdata.obj
 0002:000096bc       ??_C@_05DMJDNLEJ@April?$AA@ 00000001800306bc     libucrt:nlsdata.obj
 0002:000096c4       ??_C@_04CNLMGBGM@June?$AA@ 00000001800306c4     libucrt:nlsdata.obj
 0002:000096cc       ??_C@_04MIEPOIFP@July?$AA@ 00000001800306cc     libucrt:nlsdata.obj
 0002:000096d4       ??_C@_06LBBHFDDG@August?$AA@ 00000001800306d4     libucrt:nlsdata.obj
 0002:000096e0       ??_C@_09BHHEALKD@September?$AA@ 00000001800306e0     libucrt:nlsdata.obj
 0002:000096f0       ??_C@_07JJNFCEND@October?$AA@ 00000001800306f0     libucrt:nlsdata.obj
 0002:000096f8       ??_C@_08HCHEGEOA@November?$AA@ 00000001800306f8     libucrt:nlsdata.obj
 0002:00009708       ??_C@_08EDHMEBNP@December?$AA@ 0000000180030708     libucrt:nlsdata.obj
 0002:00009714       ??_C@_02DEDBPAFC@AM?$AA@   0000000180030714     libucrt:nlsdata.obj
 0002:00009718       ??_C@_02CJNFDJBF@PM?$AA@   0000000180030718     libucrt:nlsdata.obj
 0002:00009720       ??_C@_08BPBNCDIB@MM?1dd?1yy?$AA@ 0000000180030720     libucrt:nlsdata.obj
 0002:00009730       ??_C@_0BE@CKGJFCPC@dddd?0?5MMMM?5dd?0?5yyyy?$AA@ 0000000180030730     libucrt:nlsdata.obj
 0002:00009748       ??_C@_08JCCMCCIL@HH?3mm?3ss?$AA@ 0000000180030748     libucrt:nlsdata.obj
 0002:00009758       ??_C@_17MBGCMIPB@?$AAS?$AAu?$AAn?$AA?$AA@ 0000000180030758     libucrt:nlsdata.obj
 0002:00009760       ??_C@_17KBOMKBF@?$AAM?$AAo?$AAn?$AA?$AA@ 0000000180030760     libucrt:nlsdata.obj
 0002:00009768       ??_C@_17BMKGEGOJ@?$AAT?$AAu?$AAe?$AA?$AA@ 0000000180030768     libucrt:nlsdata.obj
 0002:00009770       ??_C@_17CJEDCEPE@?$AAW?$AAe?$AAd?$AA?$AA@ 0000000180030770     libucrt:nlsdata.obj
 0002:00009778       ??_C@_17PDPHAADD@?$AAT?$AAh?$AAu?$AA?$AA@ 0000000180030778     libucrt:nlsdata.obj
 0002:00009780       ??_C@_17HFOLPPLP@?$AAF?$AAr?$AAi?$AA?$AA@ 0000000180030780     libucrt:nlsdata.obj
 0002:00009788       ??_C@_17GGIBDPIH@?$AAS?$AAa?$AAt?$AA?$AA@ 0000000180030788     libucrt:nlsdata.obj
 0002:00009790       ??_C@_1O@IHNHDHPB@?$AAS?$AAu?$AAn?$AAd?$AAa?$AAy?$AA?$AA@ 0000000180030790     libucrt:nlsdata.obj
 0002:000097a0       ??_C@_1O@MMNBFLIA@?$AAM?$AAo?$AAn?$AAd?$AAa?$AAy?$AA?$AA@ 00000001800307a0     libucrt:nlsdata.obj
 0002:000097b0       ??_C@_1BA@ENFBFFEK@?$AAT?$AAu?$AAe?$AAs?$AAd?$AAa?$AAy?$AA?$AA@ 00000001800307b0     libucrt:nlsdata.obj
 0002:000097c0       ??_C@_1BE@EBOGMDOH@?$AAW?$AAe?$AAd?$AAn?$AAe?$AAs?$AAd?$AAa?$AAy?$AA?$AA@ 00000001800307c0     libucrt:nlsdata.obj
 0002:000097d8       ??_C@_1BC@HHMNLIHE@?$AAT?$AAh?$AAu?$AAr?$AAs?$AAd?$AAa?$AAy?$AA?$AA@ 00000001800307d8     libucrt:nlsdata.obj
 0002:000097f0       ??_C@_1O@PDICJHAG@?$AAF?$AAr?$AAi?$AAd?$AAa?$AAy?$AA?$AA@ 00000001800307f0     libucrt:nlsdata.obj
 0002:00009800       ??_C@_1BC@ENMNNPAJ@?$AAS?$AAa?$AAt?$AAu?$AAr?$AAd?$AAa?$AAy?$AA?$AA@ 0000000180030800     libucrt:nlsdata.obj
 0002:00009818       ??_C@_17DKNBKCHM@?$AAJ?$AAa?$AAn?$AA?$AA@ 0000000180030818     libucrt:nlsdata.obj
 0002:00009820       ??_C@_17LMDJEKJN@?$AAF?$AAe?$AAb?$AA?$AA@ 0000000180030820     libucrt:nlsdata.obj
 0002:00009828       ??_C@_17CKNLEDEC@?$AAM?$AAa?$AAr?$AA?$AA@ 0000000180030828     libucrt:nlsdata.obj
 0002:00009830       ??_C@_17LFPOIHDD@?$AAA?$AAp?$AAr?$AA?$AA@ 0000000180030830     libucrt:nlsdata.obj
 0002:00009838       ??_C@_17PNNKMEED@?$AAM?$AAa?$AAy?$AA?$AA@ 0000000180030838     libucrt:nlsdata.obj
 0002:00009840       ??_C@_17KCJGOCPB@?$AAJ?$AAu?$AAn?$AA?$AA@ 0000000180030840     libucrt:nlsdata.obj
 0002:00009848       ??_C@_17IJPCKHK@?$AAJ?$AAu?$AAl?$AA?$AA@ 0000000180030848     libucrt:nlsdata.obj
 0002:00009850       ??_C@_17ICPELBCN@?$AAA?$AAu?$AAg?$AA?$AA@ 0000000180030850     libucrt:nlsdata.obj
 0002:00009858       ??_C@_17HCHCOKMG@?$AAS?$AAe?$AAp?$AA?$AA@ 0000000180030858     libucrt:nlsdata.obj
 0002:00009860       ??_C@_17FNLKOI@?$AAO?$AAc?$AAt?$AA?$AA@ 0000000180030860     libucrt:nlsdata.obj
 0002:00009868       ??_C@_17BBDMLCIG@?$AAN?$AAo?$AAv?$AA?$AA@ 0000000180030868     libucrt:nlsdata.obj
 0002:00009870       ??_C@_17EGKACKIF@?$AAD?$AAe?$AAc?$AA?$AA@ 0000000180030870     libucrt:nlsdata.obj
 0002:00009878       ??_C@_1BA@EFMEIEBA@?$AAJ?$AAa?$AAn?$AAu?$AAa?$AAr?$AAy?$AA?$AA@ 0000000180030878     libucrt:nlsdata.obj
 0002:00009888       ??_C@_1BC@JGDDFFAM@?$AAF?$AAe?$AAb?$AAr?$AAu?$AAa?$AAr?$AAy?$AA?$AA@ 0000000180030888     libucrt:nlsdata.obj
 0002:000098a0       ??_C@_1M@IKEENEDF@?$AAM?$AAa?$AAr?$AAc?$AAh?$AA?$AA@ 00000001800308a0     libucrt:nlsdata.obj
 0002:000098b0       ??_C@_1M@GJNLMHFD@?$AAA?$AAp?$AAr?$AAi?$AAl?$AA?$AA@ 00000001800308b0     libucrt:nlsdata.obj
 0002:000098c0       ??_C@_19EPFLPGAP@?$AAJ?$AAu?$AAn?$AAe?$AA?$AA@ 00000001800308c0     libucrt:nlsdata.obj
 0002:000098d0       ??_C@_19BIFMLPCD@?$AAJ?$AAu?$AAl?$AAy?$AA?$AA@ 00000001800308d0     libucrt:nlsdata.obj
 0002:000098e0       ??_C@_1O@PAHLKOAC@?$AAA?$AAu?$AAg?$AAu?$AAs?$AAt?$AA?$AA@ 00000001800308e0     libucrt:nlsdata.obj
 0002:000098f0       ??_C@_1BE@DKAAMBJL@?$AAS?$AAe?$AAp?$AAt?$AAe?$AAm?$AAb?$AAe?$AAr?$AA?$AA@ 00000001800308f0     libucrt:nlsdata.obj
 0002:00009908       ??_C@_1BA@EPANDLNG@?$AAO?$AAc?$AAt?$AAo?$AAb?$AAe?$AAr?$AA?$AA@ 0000000180030908     libucrt:nlsdata.obj
 0002:00009918       ??_C@_1BC@BGLIFPF@?$AAN?$AAo?$AAv?$AAe?$AAm?$AAb?$AAe?$AAr?$AA?$AA@ 0000000180030918     libucrt:nlsdata.obj
 0002:00009930       ??_C@_1BC@FEMKIFH@?$AAD?$AAe?$AAc?$AAe?$AAm?$AAb?$AAe?$AAr?$AA?$AA@ 0000000180030930     libucrt:nlsdata.obj
 0002:00009944       ??_C@_15ODEHAHHF@?$AAA?$AAM?$AA?$AA@ 0000000180030944     libucrt:nlsdata.obj
 0002:0000994c       ??_C@_15CLMNNGEL@?$AAP?$AAM?$AA?$AA@ 000000018003094c     libucrt:nlsdata.obj
 0002:00009958       ??_C@_1BC@IEBCMHCM@?$AAM?$AAM?$AA?1?$AAd?$AAd?$AA?1?$AAy?$AAy?$AA?$AA@ 0000000180030958     libucrt:nlsdata.obj
 0002:00009970       ??_C@_1CI@KNAKOEBC@?$AAd?$AAd?$AAd?$AAd?$AA?0?$AA?5?$AAM?$AAM?$AAM?$AAM?$AA?5?$AAd?$AAd?$AA?0?$AA?5?$AAy?$AAy?$AAy?$AAy?$AA?$AA@ 0000000180030970     libucrt:nlsdata.obj
 0002:00009998       ??_C@_1BC@GDGBMEMK@?$AAH?$AAH?$AA?3?$AAm?$AAm?$AA?3?$AAs?$AAs?$AA?$AA@ 0000000180030998     libucrt:nlsdata.obj
 0002:000099b0       _d_inf                     00000001800309b0     libucrt:util.obj
 0002:000099b8       _d_max                     00000001800309b8     libucrt:util.obj
 0002:00009b90       ??_C@_03KHJOGHMM@exp?$AA@  0000000180030b90     libucrt:fpexcept.obj
 0002:00009b94       ??_C@_03JGHBODFD@pow?$AA@  0000000180030b94     libucrt:fpexcept.obj
 0002:00009b98       ??_C@_03MGHMBJCF@log?$AA@  0000000180030b98     libucrt:fpexcept.obj
 0002:00009b9c       ??_C@_05HGHHAHAP@log10?$AA@ 0000000180030b9c     libucrt:fpexcept.obj
 0002:00009ba4       ??_C@_04COOMCNPB@sinh?$AA@ 0000000180030ba4     libucrt:fpexcept.obj
 0002:00009bac       ??_C@_04HPJJNFIM@cosh?$AA@ 0000000180030bac     libucrt:fpexcept.obj
 0002:00009bb4       ??_C@_04FJHINJAO@tanh?$AA@ 0000000180030bb4     libucrt:fpexcept.obj
 0002:00009bbc       ??_C@_04FIHNOPOL@asin?$AA@ 0000000180030bbc     libucrt:fpexcept.obj
 0002:00009bc4       ??_C@_04PDIFKINK@acos?$AA@ 0000000180030bc4     libucrt:fpexcept.obj
 0002:00009bcc       ??_C@_04MLLJIGOK@atan?$AA@ 0000000180030bcc     libucrt:fpexcept.obj
 0002:00009bd4       ??_C@_05KNGEOGJB@atan2?$AA@ 0000000180030bd4     libucrt:fpexcept.obj
 0002:00009bdc       ??_C@_04EIAKFFMI@sqrt?$AA@ 0000000180030bdc     libucrt:fpexcept.obj
 0002:00009be4       ??_C@_03BLEJJJBH@sin?$AA@  0000000180030be4     libucrt:fpexcept.obj
 0002:00009be8       ??_C@_03LALBNOCG@cos?$AA@  0000000180030be8     libucrt:fpexcept.obj
 0002:00009bec       ??_C@_03IIINPABG@tan?$AA@  0000000180030bec     libucrt:fpexcept.obj
 0002:00009bf0       ??_C@_04GFPJNGEK@ceil?$AA@ 0000000180030bf0     libucrt:fpexcept.obj
 0002:00009bf8       ??_C@_05PBJFFIGL@floor?$AA@ 0000000180030bf8     libucrt:fpexcept.obj
 0002:00009c00       ??_C@_04ODHECPBC@fabs?$AA@ 0000000180030c00     libucrt:fpexcept.obj
 0002:00009c08       ??_C@_04EHEDPDJG@modf?$AA@ 0000000180030c08     libucrt:fpexcept.obj
 0002:00009c10       ??_C@_05CEJMAHNP@ldexp?$AA@ 0000000180030c10     libucrt:fpexcept.obj
 0002:00009c18       ??_C@_05KBKMEMPO@_cabs?$AA@ 0000000180030c18     libucrt:fpexcept.obj
 0002:00009c20       ??_C@_06MEIMCGCF@_hypot?$AA@ 0000000180030c20     libucrt:fpexcept.obj
 0002:00009c28       ??_C@_04KEPJIHGP@fmod?$AA@ 0000000180030c28     libucrt:fpexcept.obj
 0002:00009c30       ??_C@_05GKKHEGJL@frexp?$AA@ 0000000180030c30     libucrt:fpexcept.obj
 0002:00009c38       ??_C@_03MJLDFKDL@_y0?$AA@  0000000180030c38     libucrt:fpexcept.obj
 0002:00009c3c       ??_C@_03NAKIGLHK@_y1?$AA@  0000000180030c3c     libucrt:fpexcept.obj
 0002:00009c40       ??_C@_03ONILCKOB@_yn?$AA@  0000000180030c40     libucrt:fpexcept.obj
 0002:00009c44       ??_C@_05JGDBENOH@_logb?$AA@ 0000000180030c44     libucrt:fpexcept.obj
 0002:00009c50       ??_C@_0L@KDOEJCKC@_nextafter?$AA@ 0000000180030c50     libucrt:fpexcept.obj
 0002:00009d00       ??_C@_1EG@CNNIPFIM@?$AAa?$AAp?$AAi?$AA?9?$AAm?$AAs?$AA?9?$AAw?$AAi?$AAn?$AA?9?$AAa?$AAp?$AAp?$AAm?$AAo?$AAd?$AAe?$AAl?$AA?9?$AAr?$AAu?$AAn?$AAt?$AAi?$AAm?$AAe?$AA?9?$AAl?$AA1?$AA?9?$AA1@ 0000000180030d00     libucrt:winapi_thunks.obj
 0002:00009d50       ??_C@_1EA@JGEFHKEI@?$AAa?$AAp?$AAi?$AA?9?$AAm?$AAs?$AA?9?$AAw?$AAi?$AAn?$AA?9?$AAc?$AAo?$AAr?$AAe?$AA?9?$AAd?$AAa?$AAt?$AAe?$AAt?$AAi?$AAm?$AAe?$AA?9?$AAl?$AA1?$AA?9?$AA1?$AA?9?$AA1?$AA?$AA@ 0000000180030d50     libucrt:winapi_thunks.obj
 0002:00009d90       ??_C@_1DI@GCIAAENM@?$AAa?$AAp?$AAi?$AA?9?$AAm?$AAs?$AA?9?$AAw?$AAi?$AAn?$AA?9?$AAc?$AAo?$AAr?$AAe?$AA?9?$AAf?$AAi?$AAl?$AAe?$AA?9?$AAl?$AA2?$AA?9?$AA1?$AA?9?$AA1?$AA?$AA@ 0000000180030d90     libucrt:winapi_thunks.obj
 0002:00009dd0       ??_C@_1EI@MPIAOHOC@?$AAa?$AAp?$AAi?$AA?9?$AAm?$AAs?$AA?9?$AAw?$AAi?$AAn?$AA?9?$AAc?$AAo?$AAr?$AAe?$AA?9?$AAl?$AAo?$AAc?$AAa?$AAl?$AAi?$AAz?$AAa?$AAt?$AAi?$AAo?$AAn?$AA?9?$AAl?$AA1?$AA?9@ 0000000180030dd0     libucrt:winapi_thunks.obj
 0002:00009e20       ??_C@_1FK@FPHCKFIE@?$AAa?$AAp?$AAi?$AA?9?$AAm?$AAs?$AA?9?$AAw?$AAi?$AAn?$AA?9?$AAc?$AAo?$AAr?$AAe?$AA?9?$AAl?$AAo?$AAc?$AAa?$AAl?$AAi?$AAz?$AAa?$AAt?$AAi?$AAo?$AAn?$AA?9?$AAo?$AAb?$AAs@ 0000000180030e20     libucrt:winapi_thunks.obj
 0002:00009e80       ??_C@_1EM@DILCGIIO@?$AAa?$AAp?$AAi?$AA?9?$AAm?$AAs?$AA?9?$AAw?$AAi?$AAn?$AA?9?$AAc?$AAo?$AAr?$AAe?$AA?9?$AAp?$AAr?$AAo?$AAc?$AAe?$AAs?$AAs?$AAt?$AAh?$AAr?$AAe?$AAa?$AAd?$AAs?$AA?9?$AAl@ 0000000180030e80     libucrt:winapi_thunks.obj
 0002:00009ed0       ??_C@_1DM@LNCGDDPN@?$AAa?$AAp?$AAi?$AA?9?$AAm?$AAs?$AA?9?$AAw?$AAi?$AAn?$AA?9?$AAc?$AAo?$AAr?$AAe?$AA?9?$AAs?$AAt?$AAr?$AAi?$AAn?$AAg?$AA?9?$AAl?$AA1?$AA?9?$AA1?$AA?9?$AA0?$AA?$AA@ 0000000180030ed0     libucrt:winapi_thunks.obj
 0002:00009f10       ??_C@_1DO@FPAPJEMD@?$AAa?$AAp?$AAi?$AA?9?$AAm?$AAs?$AA?9?$AAw?$AAi?$AAn?$AA?9?$AAc?$AAo?$AAr?$AAe?$AA?9?$AAs?$AAy?$AAs?$AAi?$AAn?$AAf?$AAo?$AA?9?$AAl?$AA1?$AA?9?$AA2?$AA?9?$AA1?$AA?$AA@ 0000000180030f10     libucrt:winapi_thunks.obj
 0002:00009f50       ??_C@_1DK@NDHNAHIO@?$AAa?$AAp?$AAi?$AA?9?$AAm?$AAs?$AA?9?$AAw?$AAi?$AAn?$AA?9?$AAc?$AAo?$AAr?$AAe?$AA?9?$AAw?$AAi?$AAn?$AAr?$AAt?$AA?9?$AAl?$AA1?$AA?9?$AA1?$AA?9?$AA0?$AA?$AA@ 0000000180030f50     libucrt:winapi_thunks.obj
 0002:00009f90       ??_C@_1DM@KGHDGBCM@?$AAa?$AAp?$AAi?$AA?9?$AAm?$AAs?$AA?9?$AAw?$AAi?$AAn?$AA?9?$AAc?$AAo?$AAr?$AAe?$AA?9?$AAx?$AAs?$AAt?$AAa?$AAt?$AAe?$AA?9?$AAl?$AA2?$AA?9?$AA1?$AA?9?$AA0?$AA?$AA@ 0000000180030f90     libucrt:winapi_thunks.obj
 0002:00009fd0       ??_C@_1EO@IJIOEFOH@?$AAa?$AAp?$AAi?$AA?9?$AAm?$AAs?$AA?9?$AAw?$AAi?$AAn?$AA?9?$AAr?$AAt?$AAc?$AAo?$AAr?$AAe?$AA?9?$AAn?$AAt?$AAu?$AAs?$AAe?$AAr?$AA?9?$AAw?$AAi?$AAn?$AAd?$AAo?$AAw?$AA?9@ 0000000180030fd0     libucrt:winapi_thunks.obj
 0002:0000a020       ??_C@_1FG@HHGEKANL@?$AAa?$AAp?$AAi?$AA?9?$AAm?$AAs?$AA?9?$AAw?$AAi?$AAn?$AA?9?$AAs?$AAe?$AAc?$AAu?$AAr?$AAi?$AAt?$AAy?$AA?9?$AAs?$AAy?$AAs?$AAt?$AAe?$AAm?$AAf?$AAu?$AAn?$AAc?$AAt?$AAi@ 0000000180031020     libucrt:winapi_thunks.obj
 0002:0000a080       ??_C@_1FG@NCKKOLKO@?$AAe?$AAx?$AAt?$AA?9?$AAm?$AAs?$AA?9?$AAw?$AAi?$AAn?$AA?9?$AAk?$AAe?$AAr?$AAn?$AAe?$AAl?$AA3?$AA2?$AA?9?$AAp?$AAa?$AAc?$AAk?$AAa?$AAg?$AAe?$AA?9?$AAc?$AAu?$AAr?$AAr@ 0000000180031080     libucrt:winapi_thunks.obj
 0002:0000a0e0       ??_C@_1EG@DBIOJECG@?$AAe?$AAx?$AAt?$AA?9?$AAm?$AAs?$AA?9?$AAw?$AAi?$AAn?$AA?9?$AAn?$AAt?$AAu?$AAs?$AAe?$AAr?$AA?9?$AAd?$AAi?$AAa?$AAl?$AAo?$AAg?$AAb?$AAo?$AAx?$AA?9?$AAl?$AA1?$AA?9?$AA1@ 00000001800310e0     libucrt:winapi_thunks.obj
 0002:0000a130       ??_C@_1EO@FIHMJCLF@?$AAe?$AAx?$AAt?$AA?9?$AAm?$AAs?$AA?9?$AAw?$AAi?$AAn?$AA?9?$AAn?$AAt?$AAu?$AAs?$AAe?$AAr?$AA?9?$AAw?$AAi?$AAn?$AAd?$AAo?$AAw?$AAs?$AAt?$AAa?$AAt?$AAi?$AAo?$AAn?$AA?9@ 0000000180031130     libucrt:winapi_thunks.obj
 0002:0000a180       ??_C@_1O@BCCLBEOE@?$AAu?$AAs?$AAe?$AAr?$AA3?$AA2?$AA?$AA@ 0000000180031180     libucrt:winapi_thunks.obj
 0002:0000a1a0       ??_C@_0BE@LJANKFHF@EnumSystemLocalesEx?$AA@ 00000001800311a0     libucrt:winapi_thunks.obj
 0002:0000a1f0       ??_C@_0BJ@PBCCBIPI@GetUserDefaultLocaleName?$AA@ 00000001800311f0     libucrt:winapi_thunks.obj
 0002:0000a220       ??_C@_0BC@CELBKLLA@IsValidLocaleName?$AA@ 0000000180031220     libucrt:winapi_thunks.obj
 0002:0000a248       ??_C@_0BB@CDHDDLLP@LCIDToLocaleName?$AA@ 0000000180031248     libucrt:winapi_thunks.obj
 0002:0000a268       ??_C@_0BB@HBDEELFH@LocaleNameToLCID?$AA@ 0000000180031268     libucrt:winapi_thunks.obj
 0002:0000a280       __log_256_lead             0000000180031280     libucrt:log_256_lead_tail_table.obj
 0002:0000aa90       __log_256_tail             0000000180031a90     libucrt:log_256_lead_tail_table.obj
 0002:0000b2a0       __two_to_jby64_head_table  00000001800322a0     libucrt:two_to_jby64_head_tail_table.obj
 0002:0000b4a0       __two_to_jby64_tail_table  00000001800324a0     libucrt:two_to_jby64_head_tail_table.obj
 0002:0000b6a0       ??_C@_04MBFDLNIM@powf?$AA@ 00000001800326a0     libucrt:pow_special.obj
 0002:0000b6b0       __two_to_jby64_table       00000001800326b0     libucrt:two_to_jby64_table.obj
 0002:0000b8b0       __log_F_inv_qword          00000001800328b0     libucrt:log_f_inv_qword_table.obj
 0002:0000c0e0       __acrt_rg_language         00000001800330e0     libucrt:get_qualified_locale.obj
 0002:0000c4f0       __acrt_rg_language_count   00000001800334f0     libucrt:get_qualified_locale.obj
 0002:0000c500       __acrt_rg_country          0000000180033500     libucrt:get_qualified_locale.obj
 0002:0000c670       __acrt_rg_country_count    0000000180033670     libucrt:get_qualified_locale.obj
 0002:0000c678       ??_C@_1BC@LLOKLNP@?$AAa?$AAm?$AAe?$AAr?$AAi?$AAc?$AAa?$AAn?$AA?$AA@ 0000000180033678     libucrt:get_qualified_locale.obj
 0002:0000c690       ??_C@_1CC@HEIGCDGG@?$AAa?$AAm?$AAe?$AAr?$AAi?$AAc?$AAa?$AAn?$AA?5?$AAe?$AAn?$AAg?$AAl?$AAi?$AAs?$AAh?$AA?$AA@ 0000000180033690     libucrt:get_qualified_locale.obj
 0002:0000c6b8       ??_C@_1CC@IHCNOMIN@?$AAa?$AAm?$AAe?$AAr?$AAi?$AAc?$AAa?$AAn?$AA?9?$AAe?$AAn?$AAg?$AAl?$AAi?$AAs?$AAh?$AA?$AA@ 00000001800336b8     libucrt:get_qualified_locale.obj
 0002:0000c6e0       ??_C@_1BG@GKAGPCGG@?$AAa?$AAu?$AAs?$AAt?$AAr?$AAa?$AAl?$AAi?$AAa?$AAn?$AA?$AA@ 00000001800336e0     libucrt:get_qualified_locale.obj
 0002:0000c6f8       ??_C@_1BA@GMENCENF@?$AAb?$AAe?$AAl?$AAg?$AAi?$AAa?$AAn?$AA?$AA@ 00000001800336f8     libucrt:get_qualified_locale.obj
 0002:0000c708       ??_C@_1BC@PJMIIAAN@?$AAc?$AAa?$AAn?$AAa?$AAd?$AAi?$AAa?$AAn?$AA?$AA@ 0000000180033708     libucrt:get_qualified_locale.obj
 0002:0000c720       ??_C@_17NOIMNFBF@?$AAc?$AAh?$AAh?$AA?$AA@ 0000000180033720     libucrt:get_qualified_locale.obj
 0002:0000c728       ??_C@_17GGDALCHA@?$AAc?$AAh?$AAi?$AA?$AA@ 0000000180033728     libucrt:get_qualified_locale.obj
 0002:0000c730       ??_C@_1BA@NPNJKIBL@?$AAc?$AAh?$AAi?$AAn?$AAe?$AAs?$AAe?$AA?$AA@ 0000000180033730     libucrt:get_qualified_locale.obj
 0002:0000c740       ??_C@_1CC@DINBAMMJ@?$AAc?$AAh?$AAi?$AAn?$AAe?$AAs?$AAe?$AA?9?$AAh?$AAo?$AAn?$AAg?$AAk?$AAo?$AAn?$AAg?$AA?$AA@ 0000000180033740     libucrt:get_qualified_locale.obj
 0002:0000c768       ??_C@_1CG@IOBJPACO@?$AAc?$AAh?$AAi?$AAn?$AAe?$AAs?$AAe?$AA?9?$AAs?$AAi?$AAm?$AAp?$AAl?$AAi?$AAf?$AAi?$AAe?$AAd?$AA?$AA@ 0000000180033768     libucrt:get_qualified_locale.obj
 0002:0000c790       ??_C@_1CE@GAJNDCKG@?$AAc?$AAh?$AAi?$AAn?$AAe?$AAs?$AAe?$AA?9?$AAs?$AAi?$AAn?$AAg?$AAa?$AAp?$AAo?$AAr?$AAe?$AA?$AA@ 0000000180033790     libucrt:get_qualified_locale.obj
 0002:0000c7b8       ??_C@_1CI@PAJPIOOD@?$AAc?$AAh?$AAi?$AAn?$AAe?$AAs?$AAe?$AA?9?$AAt?$AAr?$AAa?$AAd?$AAi?$AAt?$AAi?$AAo?$AAn?$AAa?$AAl?$AA?$AA@ 00000001800337b8     libucrt:get_qualified_locale.obj
 0002:0000c7e0       ??_C@_1BM@NILJBMMD@?$AAd?$AAu?$AAt?$AAc?$AAh?$AA?9?$AAb?$AAe?$AAl?$AAg?$AAi?$AAa?$AAn?$AA?$AA@ 00000001800337e0     libucrt:get_qualified_locale.obj
 0002:0000c800       ??_C@_1CC@OOJPJNEJ@?$AAe?$AAn?$AAg?$AAl?$AAi?$AAs?$AAh?$AA?9?$AAa?$AAm?$AAe?$AAr?$AAi?$AAc?$AAa?$AAn?$AA?$AA@ 0000000180033800     libucrt:get_qualified_locale.obj
 0002:0000c828       ??_C@_1BI@IOLFEEM@?$AAe?$AAn?$AAg?$AAl?$AAi?$AAs?$AAh?$AA?9?$AAa?$AAu?$AAs?$AA?$AA@ 0000000180033828     libucrt:get_qualified_locale.obj
 0002:0000c840       ??_C@_1BO@HFFNLENJ@?$AAe?$AAn?$AAg?$AAl?$AAi?$AAs?$AAh?$AA?9?$AAb?$AAe?$AAl?$AAi?$AAz?$AAe?$AA?$AA@ 0000000180033840     libucrt:get_qualified_locale.obj
 0002:0000c860       ??_C@_1BI@HAPKJMPO@?$AAe?$AAn?$AAg?$AAl?$AAi?$AAs?$AAh?$AA?9?$AAc?$AAa?$AAn?$AA?$AA@ 0000000180033860     libucrt:get_qualified_locale.obj
 0002:0000c878       ??_C@_1CE@HLNDMIOJ@?$AAe?$AAn?$AAg?$AAl?$AAi?$AAs?$AAh?$AA?9?$AAc?$AAa?$AAr?$AAi?$AAb?$AAb?$AAe?$AAa?$AAn?$AA?$AA@ 0000000180033878     libucrt:get_qualified_locale.obj
 0002:0000c8a0       ??_C@_1BI@LDHJHHAC@?$AAe?$AAn?$AAg?$AAl?$AAi?$AAs?$AAh?$AA?9?$AAi?$AAr?$AAe?$AA?$AA@ 00000001800338a0     libucrt:get_qualified_locale.obj
 0002:0000c8b8       ??_C@_1CA@NJMMCFOC@?$AAe?$AAn?$AAg?$AAl?$AAi?$AAs?$AAh?$AA?9?$AAj?$AAa?$AAm?$AAa?$AAi?$AAc?$AAa?$AA?$AA@ 00000001800338b8     libucrt:get_qualified_locale.obj
 0002:0000c8d8       ??_C@_1BG@BHJEBBGG@?$AAe?$AAn?$AAg?$AAl?$AAi?$AAs?$AAh?$AA?9?$AAn?$AAz?$AA?$AA@ 00000001800338d8     libucrt:get_qualified_locale.obj
 0002:0000c8f0       ??_C@_1CK@FGOEJJCO@?$AAe?$AAn?$AAg?$AAl?$AAi?$AAs?$AAh?$AA?9?$AAs?$AAo?$AAu?$AAt?$AAh?$AA?5?$AAa?$AAf?$AAr?$AAi?$AAc?$AAa?$AA?$AA@ 00000001800338f0     libucrt:get_qualified_locale.obj
 0002:0000c920       ??_C@_1DE@PDBJPCJ@?$AAe?$AAn?$AAg?$AAl?$AAi?$AAs?$AAh?$AA?9?$AAt?$AAr?$AAi?$AAn?$AAi?$AAd?$AAa?$AAd?$AA?5?$AAy?$AA?5?$AAt?$AAo?$AAb?$AAa?$AAg?$AAo?$AA?$AA@ 0000000180033920     libucrt:get_qualified_locale.obj
 0002:0000c958       ??_C@_1BG@JGCANDME@?$AAe?$AAn?$AAg?$AAl?$AAi?$AAs?$AAh?$AA?9?$AAu?$AAk?$AA?$AA@ 0000000180033958     libucrt:get_qualified_locale.obj
 0002:0000c970       ??_C@_1BG@DINKMLE@?$AAe?$AAn?$AAg?$AAl?$AAi?$AAs?$AAh?$AA?9?$AAu?$AAs?$AA?$AA@ 0000000180033970     libucrt:get_qualified_locale.obj
 0002:0000c988       ??_C@_1BI@NMFDBHJE@?$AAe?$AAn?$AAg?$AAl?$AAi?$AAs?$AAh?$AA?9?$AAu?$AAs?$AAa?$AA?$AA@ 0000000180033988     libucrt:get_qualified_locale.obj
 0002:0000c9a0       ??_C@_1BO@OIHKJKII@?$AAf?$AAr?$AAe?$AAn?$AAc?$AAh?$AA?9?$AAb?$AAe?$AAl?$AAg?$AAi?$AAa?$AAn?$AA?$AA@ 00000001800339a0     libucrt:get_qualified_locale.obj
 0002:0000c9c0       ??_C@_1CA@NKAELJKI@?$AAf?$AAr?$AAe?$AAn?$AAc?$AAh?$AA?9?$AAc?$AAa?$AAn?$AAa?$AAd?$AAi?$AAa?$AAn?$AA?$AA@ 00000001800339c0     libucrt:get_qualified_locale.obj
 0002:0000c9e0       ??_C@_1CE@MGKCNLGN@?$AAf?$AAr?$AAe?$AAn?$AAc?$AAh?$AA?9?$AAl?$AAu?$AAx?$AAe?$AAm?$AAb?$AAo?$AAu?$AAr?$AAg?$AA?$AA@ 00000001800339e0     libucrt:get_qualified_locale.obj
 0002:0000ca08       ??_C@_1BK@CEGEAILM@?$AAf?$AAr?$AAe?$AAn?$AAc?$AAh?$AA?9?$AAs?$AAw?$AAi?$AAs?$AAs?$AA?$AA@ 0000000180033a08     libucrt:get_qualified_locale.obj
 0002:0000ca28       ??_C@_1CA@PAFKEOCC@?$AAg?$AAe?$AAr?$AAm?$AAa?$AAn?$AA?9?$AAa?$AAu?$AAs?$AAt?$AAr?$AAi?$AAa?$AAn?$AA?$AA@ 0000000180033a28     libucrt:get_qualified_locale.obj
 0002:0000ca48       ??_C@_1CI@HCFHGOFD@?$AAg?$AAe?$AAr?$AAm?$AAa?$AAn?$AA?9?$AAl?$AAi?$AAc?$AAh?$AAt?$AAe?$AAn?$AAs?$AAt?$AAe?$AAi?$AAn?$AA?$AA@ 0000000180033a48     libucrt:get_qualified_locale.obj
 0002:0000ca70       ??_C@_1CE@FEDDNPDG@?$AAg?$AAe?$AAr?$AAm?$AAa?$AAn?$AA?9?$AAl?$AAu?$AAx?$AAe?$AAm?$AAb?$AAo?$AAu?$AAr?$AAg?$AA?$AA@ 0000000180033a70     libucrt:get_qualified_locale.obj
 0002:0000ca98       ??_C@_1BK@LIMINNMN@?$AAg?$AAe?$AAr?$AAm?$AAa?$AAn?$AA?9?$AAs?$AAw?$AAi?$AAs?$AAs?$AA?$AA@ 0000000180033a98     libucrt:get_qualified_locale.obj
 0002:0000cab8       ??_C@_1BM@LGMDBEPD@?$AAi?$AAr?$AAi?$AAs?$AAh?$AA?9?$AAe?$AAn?$AAg?$AAl?$AAi?$AAs?$AAh?$AA?$AA@ 0000000180033ab8     libucrt:get_qualified_locale.obj
 0002:0000cad8       ??_C@_1BM@NNCFBAEE@?$AAi?$AAt?$AAa?$AAl?$AAi?$AAa?$AAn?$AA?9?$AAs?$AAw?$AAi?$AAs?$AAs?$AA?$AA@ 0000000180033ad8     libucrt:get_qualified_locale.obj
 0002:0000caf8       ??_C@_1BE@FEDJNPIB@?$AAn?$AAo?$AAr?$AAw?$AAe?$AAg?$AAi?$AAa?$AAn?$AA?$AA@ 0000000180033af8     libucrt:get_qualified_locale.obj
 0002:0000cb10       ??_C@_1CC@CILKDEIE@?$AAn?$AAo?$AAr?$AAw?$AAe?$AAg?$AAi?$AAa?$AAn?$AA?9?$AAb?$AAo?$AAk?$AAm?$AAa?$AAl?$AA?$AA@ 0000000180033b10     libucrt:get_qualified_locale.obj
 0002:0000cb38       ??_C@_1CE@DHMMHEPL@?$AAn?$AAo?$AAr?$AAw?$AAe?$AAg?$AAi?$AAa?$AAn?$AA?9?$AAn?$AAy?$AAn?$AAo?$AAr?$AAs?$AAk?$AA?$AA@ 0000000180033b38     libucrt:get_qualified_locale.obj
 0002:0000cb60       ??_C@_1CK@OPNMHECD@?$AAp?$AAo?$AAr?$AAt?$AAu?$AAg?$AAu?$AAe?$AAs?$AAe?$AA?9?$AAb?$AAr?$AAa?$AAz?$AAi?$AAl?$AAi?$AAa?$AAn?$AA?$AA@ 0000000180033b60     libucrt:get_qualified_locale.obj
 0002:0000cb90       ??_C@_1CE@KEEHCDB@?$AAs?$AAp?$AAa?$AAn?$AAi?$AAs?$AAh?$AA?9?$AAa?$AAr?$AAg?$AAe?$AAn?$AAt?$AAi?$AAn?$AAa?$AA?$AA@ 0000000180033b90     libucrt:get_qualified_locale.obj
 0002:0000cbb8       ??_C@_1CA@GIAOLHJD@?$AAs?$AAp?$AAa?$AAn?$AAi?$AAs?$AAh?$AA?9?$AAb?$AAo?$AAl?$AAi?$AAv?$AAi?$AAa?$AA?$AA@ 0000000180033bb8     libucrt:get_qualified_locale.obj
 0002:0000cbd8       ??_C@_1BM@OJNDFNPD@?$AAs?$AAp?$AAa?$AAn?$AAi?$AAs?$AAh?$AA?9?$AAc?$AAh?$AAi?$AAl?$AAe?$AA?$AA@ 0000000180033bd8     libucrt:get_qualified_locale.obj
 0002:0000cbf8       ??_C@_1CC@OCOLPALL@?$AAs?$AAp?$AAa?$AAn?$AAi?$AAs?$AAh?$AA?9?$AAc?$AAo?$AAl?$AAo?$AAm?$AAb?$AAi?$AAa?$AA?$AA@ 0000000180033bf8     libucrt:get_qualified_locale.obj
 0002:0000cc20       ??_C@_1CG@BPOFMKBB@?$AAs?$AAp?$AAa?$AAn?$AAi?$AAs?$AAh?$AA?9?$AAc?$AAo?$AAs?$AAt?$AAa?$AA?5?$AAr?$AAi?$AAc?$AAa?$AA?$AA@ 0000000180033c20     libucrt:get_qualified_locale.obj
 0002:0000cc48       ??_C@_1DG@IGOBAPBB@?$AAs?$AAp?$AAa?$AAn?$AAi?$AAs?$AAh?$AA?9?$AAd?$AAo?$AAm?$AAi?$AAn?$AAi?$AAc?$AAa?$AAn?$AA?5?$AAr?$AAe?$AAp?$AAu?$AAb?$AAl?$AAi?$AAc?$AA?$AA@ 0000000180033c48     libucrt:get_qualified_locale.obj
 0002:0000cc80       ??_C@_1CA@JHAPGEGI@?$AAs?$AAp?$AAa?$AAn?$AAi?$AAs?$AAh?$AA?9?$AAe?$AAc?$AAu?$AAa?$AAd?$AAo?$AAr?$AA?$AA@ 0000000180033c80     libucrt:get_qualified_locale.obj
 0002:0000cca0       ??_C@_1CI@LAPALJPP@?$AAs?$AAp?$AAa?$AAn?$AAi?$AAs?$AAh?$AA?9?$AAe?$AAl?$AA?5?$AAs?$AAa?$AAl?$AAv?$AAa?$AAd?$AAo?$AAr?$AA?$AA@ 0000000180033ca0     libucrt:get_qualified_locale.obj
 0002:0000ccc8       ??_C@_1CE@PDGBOFOM@?$AAs?$AAp?$AAa?$AAn?$AAi?$AAs?$AAh?$AA?9?$AAg?$AAu?$AAa?$AAt?$AAe?$AAm?$AAa?$AAl?$AAa?$AA?$AA@ 0000000180033cc8     libucrt:get_qualified_locale.obj
 0002:0000ccf0       ??_C@_1CC@NBEBAODI@?$AAs?$AAp?$AAa?$AAn?$AAi?$AAs?$AAh?$AA?9?$AAh?$AAo?$AAn?$AAd?$AAu?$AAr?$AAa?$AAs?$AA?$AA@ 0000000180033cf0     libucrt:get_qualified_locale.obj
 0002:0000cd18       ??_C@_1CA@LLKGHBMF@?$AAs?$AAp?$AAa?$AAn?$AAi?$AAs?$AAh?$AA?9?$AAm?$AAe?$AAx?$AAi?$AAc?$AAa?$AAn?$AA?$AA@ 0000000180033d18     libucrt:get_qualified_locale.obj
 0002:0000cd38       ??_C@_1BO@LKNDOIGD@?$AAs?$AAp?$AAa?$AAn?$AAi?$AAs?$AAh?$AA?9?$AAm?$AAo?$AAd?$AAe?$AAr?$AAn?$AA?$AA@ 0000000180033d38     libucrt:get_qualified_locale.obj
 0002:0000cd58       ??_C@_1CE@NMDMOEEB@?$AAs?$AAp?$AAa?$AAn?$AAi?$AAs?$AAh?$AA?9?$AAn?$AAi?$AAc?$AAa?$AAr?$AAa?$AAg?$AAu?$AAa?$AA?$AA@ 0000000180033d58     libucrt:get_qualified_locale.obj
 0002:0000cd80       ??_C@_1BO@LLCBEJGB@?$AAs?$AAp?$AAa?$AAn?$AAi?$AAs?$AAh?$AA?9?$AAp?$AAa?$AAn?$AAa?$AAm?$AAa?$AA?$AA@ 0000000180033d80     libucrt:get_qualified_locale.obj
 0002:0000cda0       ??_C@_1CC@FKPGGIHO@?$AAs?$AAp?$AAa?$AAn?$AAi?$AAs?$AAh?$AA?9?$AAp?$AAa?$AAr?$AAa?$AAg?$AAu?$AAa?$AAy?$AA?$AA@ 0000000180033da0     libucrt:get_qualified_locale.obj
 0002:0000cdc8       ??_C@_1BK@CDEIHOOP@?$AAs?$AAp?$AAa?$AAn?$AAi?$AAs?$AAh?$AA?9?$AAp?$AAe?$AAr?$AAu?$AA?$AA@ 0000000180033dc8     libucrt:get_qualified_locale.obj
 0002:0000cde8       ??_C@_1CI@GAHAKKGP@?$AAs?$AAp?$AAa?$AAn?$AAi?$AAs?$AAh?$AA?9?$AAp?$AAu?$AAe?$AAr?$AAt?$AAo?$AA?5?$AAr?$AAi?$AAc?$AAo?$AA?$AA@ 0000000180033de8     libucrt:get_qualified_locale.obj
 0002:0000ce10       ??_C@_1CA@NKJBCAGP@?$AAs?$AAp?$AAa?$AAn?$AAi?$AAs?$AAh?$AA?9?$AAu?$AAr?$AAu?$AAg?$AAu?$AAa?$AAy?$AA?$AA@ 0000000180033e10     libucrt:get_qualified_locale.obj
 0002:0000ce30       ??_C@_1CE@ODILCONM@?$AAs?$AAp?$AAa?$AAn?$AAi?$AAs?$AAh?$AA?9?$AAv?$AAe?$AAn?$AAe?$AAz?$AAu?$AAe?$AAl?$AAa?$AA?$AA@ 0000000180033e30     libucrt:get_qualified_locale.obj
 0002:0000ce58       ??_C@_1CA@OBNMCGFO@?$AAs?$AAw?$AAe?$AAd?$AAi?$AAs?$AAh?$AA?9?$AAf?$AAi?$AAn?$AAl?$AAa?$AAn?$AAd?$AA?$AA@ 0000000180033e58     libucrt:get_qualified_locale.obj
 0002:0000ce78       ??_C@_1M@PIPDDPPI@?$AAs?$AAw?$AAi?$AAs?$AAs?$AA?$AA@ 0000000180033e78     libucrt:get_qualified_locale.obj
 0002:0000ce84       ??_C@_15GMFIMNFM@?$AAu?$AAs?$AA?$AA@ 0000000180033e84     libucrt:get_qualified_locale.obj
 0002:0000ce90       ??_C@_17HAEBFAGL@?$AAu?$AAs?$AAa?$AA?$AA@ 0000000180033e90     libucrt:get_qualified_locale.obj
 0002:0000ce98       ??_C@_1BA@DPFJEPHB@?$AAa?$AAm?$AAe?$AAr?$AAi?$AAc?$AAa?$AA?$AA@ 0000000180033e98     libucrt:get_qualified_locale.obj
 0002:0000cea8       ??_C@_1BA@ELOGGFK@?$AAb?$AAr?$AAi?$AAt?$AAa?$AAi?$AAn?$AA?$AA@ 0000000180033ea8     libucrt:get_qualified_locale.obj
 0002:0000ceb8       ??_C@_1M@GHBGIGDA@?$AAc?$AAh?$AAi?$AAn?$AAa?$AA?$AA@ 0000000180033eb8     libucrt:get_qualified_locale.obj
 0002:0000cec8       ??_C@_1M@NCHEJOPO@?$AAc?$AAz?$AAe?$AAc?$AAh?$AA?$AA@ 0000000180033ec8     libucrt:get_qualified_locale.obj
 0002:0000ced8       ??_C@_1BA@BKPAPBLA@?$AAe?$AAn?$AAg?$AAl?$AAa?$AAn?$AAd?$AA?$AA@ 0000000180033ed8     libucrt:get_qualified_locale.obj
 0002:0000cee8       ??_C@_1BM@HKBCKIPC@?$AAg?$AAr?$AAe?$AAa?$AAt?$AA?5?$AAb?$AAr?$AAi?$AAt?$AAa?$AAi?$AAn?$AA?$AA@ 0000000180033ee8     libucrt:get_qualified_locale.obj
 0002:0000cf08       ??_C@_1BA@PPCHPGJB@?$AAh?$AAo?$AAl?$AAl?$AAa?$AAn?$AAd?$AA?$AA@ 0000000180033f08     libucrt:get_qualified_locale.obj
 0002:0000cf18       ??_C@_1BE@JBMPEGDG@?$AAh?$AAo?$AAn?$AAg?$AA?9?$AAk?$AAo?$AAn?$AAg?$AA?$AA@ 0000000180033f18     libucrt:get_qualified_locale.obj
 0002:0000cf30       ??_C@_1BI@KOELBBPJ@?$AAn?$AAe?$AAw?$AA?9?$AAz?$AAe?$AAa?$AAl?$AAa?$AAn?$AAd?$AA?$AA@ 0000000180033f30     libucrt:get_qualified_locale.obj
 0002:0000cf48       ??_C@_15HIEBHAIO@?$AAn?$AAz?$AA?$AA@ 0000000180033f48     libucrt:get_qualified_locale.obj
 0002:0000cf50       ??_C@_1BC@CHBCPFPI@?$AAp?$AAr?$AA?5?$AAc?$AAh?$AAi?$AAn?$AAa?$AA?$AA@ 0000000180033f50     libucrt:get_qualified_locale.obj
 0002:0000cf68       ??_C@_1BC@JAOIIFKD@?$AAp?$AAr?$AA?9?$AAc?$AAh?$AAi?$AAn?$AAa?$AA?$AA@ 0000000180033f68     libucrt:get_qualified_locale.obj
 0002:0000cf80       ??_C@_1BI@BEHPPHKC@?$AAp?$AAu?$AAe?$AAr?$AAt?$AAo?$AA?9?$AAr?$AAi?$AAc?$AAo?$AA?$AA@ 0000000180033f80     libucrt:get_qualified_locale.obj
 0002:0000cf98       ??_C@_1O@PAEOFKDI@?$AAs?$AAl?$AAo?$AAv?$AAa?$AAk?$AA?$AA@ 0000000180033f98     libucrt:get_qualified_locale.obj
 0002:0000cfa8       ??_C@_1BK@FIHMCKAM@?$AAs?$AAo?$AAu?$AAt?$AAh?$AA?5?$AAa?$AAf?$AAr?$AAi?$AAc?$AAa?$AA?$AA@ 0000000180033fa8     libucrt:get_qualified_locale.obj
 0002:0000cfc8       ??_C@_1BI@NAEOODKB@?$AAs?$AAo?$AAu?$AAt?$AAh?$AA?5?$AAk?$AAo?$AAr?$AAe?$AAa?$AA?$AA@ 0000000180033fc8     libucrt:get_qualified_locale.obj
 0002:0000cfe0       ??_C@_1BK@FBDGGIFF@?$AAs?$AAo?$AAu?$AAt?$AAh?$AA?9?$AAa?$AAf?$AAr?$AAi?$AAc?$AAa?$AA?$AA@ 0000000180033fe0     libucrt:get_qualified_locale.obj
 0002:0000d000       ??_C@_1BI@GHLEJDPK@?$AAs?$AAo?$AAu?$AAt?$AAh?$AA?9?$AAk?$AAo?$AAr?$AAe?$AAa?$AA?$AA@ 0000000180034000     libucrt:get_qualified_locale.obj
 0002:0000d018       ??_C@_1CE@PLHLOMJF@?$AAt?$AAr?$AAi?$AAn?$AAi?$AAd?$AAa?$AAd?$AA?5?$AA?$CG?$AA?5?$AAt?$AAo?$AAb?$AAa?$AAg?$AAo?$AA?$AA@ 0000000180034018     libucrt:get_qualified_locale.obj
 0002:0000d040       ??_C@_1BO@MODIMHHI@?$AAu?$AAn?$AAi?$AAt?$AAe?$AAd?$AA?9?$AAk?$AAi?$AAn?$AAg?$AAd?$AAo?$AAm?$AA?$AA@ 0000000180034040     libucrt:get_qualified_locale.obj
 0002:0000d060       ??_C@_1BM@FFHJONBJ@?$AAu?$AAn?$AAi?$AAt?$AAe?$AAd?$AA?9?$AAs?$AAt?$AAa?$AAt?$AAe?$AAs?$AA?$AA@ 0000000180034060     libucrt:get_qualified_locale.obj
 0002:0000d080       ??_C@_17DNCLJFIF@?$AAA?$AAC?$AAP?$AA?$AA@ 0000000180034080     libucrt:get_qualified_locale.obj
 0002:0000d088       ??_C@_17CIKBIHLH@?$AAO?$AAC?$AAP?$AA?$AA@ 0000000180034088     libucrt:get_qualified_locale.obj
 0002:0000d090       __rglangidNotDefault       0000000180034090     libucrt:getqloc_downlevel.obj
 0002:0000ed40       ??_C@_1BA@BALFACEM@?$AAC?$AAO?$AAN?$AAO?$AAU?$AAT?$AA$?$AA?$AA@ 0000000180035d40     libucrt:initcon.obj
 0002:0000efa0       __log10_256_lead           0000000180035fa0     libucrt:log10_256_lead_tail_table.obj
 0002:0000f7b0       __log10_256_tail           00000001800367b0     libucrt:log10_256_lead_tail_table.obj
 0002:0000ffb8       ??_C@_1BK@DBDEIDLH@?$AAK?$AAE?$AAR?$AAN?$AAE?$AAL?$AA3?$AA2?$AA?4?$AAD?$AAL?$AAL?$AA?$AA@ 0000000180036fb8     DelayImp:delayhlp.obj
 0002:0000ffd8       __pfnDliFailureHook2       0000000180036fd8     DelayImp:delayhk1.obj
 0002:0000ffe0       _load_config_used          0000000180036fe0     LIBCMT:loadcfg.obj
 0002:00010078       ??_C@_0BC@BDKFLDHL@unknown?5exception?$AA@ 0000000180037078     cio.obj
 0002:00010090       ??_C@_0BA@ELKIONDK@bad?5locale?5name?$AA@ 0000000180037090     cio.obj
 0002:000100a0       ??_C@_05LAPONLG@false?$AA@ 00000001800370a0     cio.obj
 0002:000100a8       ??_C@_04LOAJBDKD@true?$AA@ 00000001800370a8     cio.obj
 0002:000100ad       ??_C@_00CNPNBAHC@?$AA@     00000001800370ad     cio.obj
 0002:000100b0       ??_C@_02LMMGGCAJ@?3?5?$AA@ 00000001800370b0     cio.obj
 0002:000100b8       ??_C@_08LLGCOLLL@iostream?$AA@ 00000001800370b8     cio.obj
 0002:000100c8       ??_C@_0BG@PADBLCHM@iostream?5stream?5error?$AA@ 00000001800370c8     cio.obj
 0002:000100e0       ??_C@_0BF@PHHKMMFD@ios_base?3?3badbit?5set?$AA@ 00000001800370e0     cio.obj
 0002:000100f8       ??_C@_0BG@FMKFHCIL@ios_base?3?3failbit?5set?$AA@ 00000001800370f8     cio.obj
 0002:00010110       ??_C@_0BF@OOHOMBOF@ios_base?3?3eofbit?5set?$AA@ 0000000180037110     cio.obj
 0002:00010128       ??_C@_06IONACMBM@Number?$AA@ 0000000180037128     cio.obj
 0002:00010130       ??_C@_06ENNEIMBA@String?$AA@ 0000000180037130     cio.obj
 0002:00010138       ??_C@_05DFJCHPDH@input?$AA@ 0000000180037138     cio.obj
 0002:00010140       ??_C@_06DKIGHACF@output?$AA@ 0000000180037140     cio.obj
 0002:00010148       ??_C@_0O@GACCLMHB@?4?4?2src?2cio?4cc?$AA@ 0000000180037148     cio.obj
 0002:00010158       ??_C@_03FCELPPMJ@cio?$AA@  0000000180037158     cio.obj
 0002:00010160       ??_C@_0BA@JFNIOLAK@string?5too?5long?$AA@ 0000000180037160     cio.obj
 0002:00010170       ??_C@_0BI@CFPLBAOH@invalid?5string?5position?$AA@ 0000000180037170     cio.obj
 0002:00010188       ?_Src@?1??_Getffld@?$num_get@DV?$istreambuf_iterator@DU?$char_traits@D@std@@@std@@@std@@AEBAHPEADAEAV?$istreambuf_iterator@DU?$char_traits@D@std@@@3@1AEAVios_base@3@PEAH@Z@4QBDB 0000000180037188     cio.obj
 0002:00010198       ??_7exception@stdext@@6B@  0000000180037198     cio.obj
 0002:000101b0       ?_Src@?1??_Getffldx@?$num_get@DV?$istreambuf_iterator@DU?$char_traits@D@std@@@std@@@std@@AEBAHPEADAEAV?$istreambuf_iterator@DU?$char_traits@D@std@@@3@1AEAVios_base@3@PEAH@Z@4QBDB 00000001800371b0     cio.obj
 0002:000101d0       ?_Src@?1??_Getifld@?$num_get@DV?$istreambuf_iterator@DU?$char_traits@D@std@@@std@@@std@@AEBAHPEADAEAV?$istreambuf_iterator@DU?$char_traits@D@std@@@3@1HAEBVlocale@3@@Z@4QBDB 00000001800371d0     cio.obj
 0002:000101f0       ??_C@_08HCOMDCCD@iojs?4exe?$AA@ 00000001800371f0     win_delay_load_hook.obj
 0002:00010200       ??_C@_08JDDNMFDB@node?4exe?$AA@ 0000000180037200     win_delay_load_hook.obj
 0002:00010210       __pfnDliNotifyHook2        0000000180037210     win_delay_load_hook.obj
 0002:00010218       __real@4024000000000000    0000000180037218     cio.obj
 0002:00010220       __real@41200000            0000000180037220     cio.obj
 0002:00010288       _tls_used                  0000000180037288     LIBCMT:tlssup.obj
 0002:000102b0       ??_R4exception@std@@6B@    00000001800372b0     libcpmt:cout.obj
 0002:000102d8       ??_R3exception@std@@8      00000001800372d8     libcpmt:cout.obj
 0002:000102f0       ??_R2exception@std@@8      00000001800372f0     libcpmt:cout.obj
 0002:00010300       ??_R1A@?0A@EA@exception@std@@8 0000000180037300     libcpmt:cout.obj
 0002:00010328       ??_R4ios_base@std@@6B@     0000000180037328     libcpmt:cout.obj
 0002:00010350       ??_R3ios_base@std@@8       0000000180037350     libcpmt:cout.obj
 0002:00010368       ??_R2ios_base@std@@8       0000000180037368     libcpmt:cout.obj
 0002:00010380       ??_R1A@?0A@EA@ios_base@std@@8 0000000180037380     libcpmt:cout.obj
 0002:000103a8       ??_R17?0A@EA@?$_Iosb@H@std@@8 00000001800373a8     libcpmt:cout.obj
 0002:000103d0       ??_R3?$_Iosb@H@std@@8      00000001800373d0     libcpmt:cout.obj
 0002:000103e8       ??_R2?$_Iosb@H@std@@8      00000001800373e8     libcpmt:cout.obj
 0002:000103f8       ??_R1A@?0A@EA@?$_Iosb@H@std@@8 00000001800373f8     libcpmt:cout.obj
 0002:00010420       ??_R4?$basic_ios@DU?$char_traits@D@std@@@std@@6B@ 0000000180037420     libcpmt:cout.obj
 0002:00010448       ??_R3?$basic_ios@DU?$char_traits@D@std@@@std@@8 0000000180037448     libcpmt:cout.obj
 0002:00010460       ??_R2?$basic_ios@DU?$char_traits@D@std@@@std@@8 0000000180037460     libcpmt:cout.obj
 0002:00010480       ??_R1A@?0A@EA@?$basic_ios@DU?$char_traits@D@std@@@std@@8 0000000180037480     libcpmt:cout.obj
 0002:000104a8       ??_R4?$basic_streambuf@DU?$char_traits@D@std@@@std@@6B@ 00000001800374a8     libcpmt:cout.obj
 0002:000104d0       ??_R3?$basic_streambuf@DU?$char_traits@D@std@@@std@@8 00000001800374d0     libcpmt:cout.obj
 0002:000104e8       ??_R2?$basic_streambuf@DU?$char_traits@D@std@@@std@@8 00000001800374e8     libcpmt:cout.obj
 0002:000104f8       ??_R1A@?0A@EA@?$basic_streambuf@DU?$char_traits@D@std@@@std@@8 00000001800374f8     libcpmt:cout.obj
 0002:00010520       ??_R1A@A@3FA@?$basic_ios@DU?$char_traits@D@std@@@std@@8 0000000180037520     libcpmt:cout.obj
 0002:00010548       ??_R1A@A@3EA@ios_base@std@@8 0000000180037548     libcpmt:cout.obj
 0002:00010570       ??_R17A@3EA@?$_Iosb@H@std@@8 0000000180037570     libcpmt:cout.obj
 0002:00010598       ??_R4?$basic_ostream@DU?$char_traits@D@std@@@std@@6B@ 0000000180037598     libcpmt:cout.obj
 0002:000105c0       ??_R3?$basic_ostream@DU?$char_traits@D@std@@@std@@8 00000001800375c0     libcpmt:cout.obj
 0002:000105d8       ??_R2?$basic_ostream@DU?$char_traits@D@std@@@std@@8 00000001800375d8     libcpmt:cout.obj
 0002:00010600       ??_R1A@?0A@EA@?$basic_ostream@DU?$char_traits@D@std@@@std@@8 0000000180037600     libcpmt:cout.obj
 0002:00010628       ??_R4?$basic_filebuf@DU?$char_traits@D@std@@@std@@6B@ 0000000180037628     libcpmt:cout.obj
 0002:00010650       ??_R3?$basic_filebuf@DU?$char_traits@D@std@@@std@@8 0000000180037650     libcpmt:cout.obj
 0002:00010668       ??_R2?$basic_filebuf@DU?$char_traits@D@std@@@std@@8 0000000180037668     libcpmt:cout.obj
 0002:00010680       ??_R1A@?0A@EA@?$basic_filebuf@DU?$char_traits@D@std@@@std@@8 0000000180037680     libcpmt:cout.obj
 0002:000106a8       ??_R4runtime_error@std@@6B@ 00000001800376a8     libcpmt:cout.obj
 0002:000106d0       ??_R3runtime_error@std@@8  00000001800376d0     libcpmt:cout.obj
 0002:000106e8       ??_R2runtime_error@std@@8  00000001800376e8     libcpmt:cout.obj
 0002:00010700       ??_R1A@?0A@EA@runtime_error@std@@8 0000000180037700     libcpmt:cout.obj
 0002:00010728       ??_R4bad_cast@std@@6B@     0000000180037728     libcpmt:cout.obj
 0002:00010750       ??_R3bad_cast@std@@8       0000000180037750     libcpmt:cout.obj
 0002:00010768       ??_R2bad_cast@std@@8       0000000180037768     libcpmt:cout.obj
 0002:00010780       ??_R1A@?0A@EA@bad_cast@std@@8 0000000180037780     libcpmt:cout.obj
 0002:000107a8       ??_R4_Facet_base@std@@6B@  00000001800377a8     libcpmt:cout.obj
 0002:000107d0       ??_R3_Facet_base@std@@8    00000001800377d0     libcpmt:cout.obj
 0002:000107e8       ??_R2_Facet_base@std@@8    00000001800377e8     libcpmt:cout.obj
 0002:000107f8       ??_R1A@?0A@EA@_Facet_base@std@@8 00000001800377f8     libcpmt:cout.obj
 0002:00010820       ??_R1A@?0A@EA@facet@locale@std@@8 0000000180037820     libcpmt:cout.obj
 0002:00010848       ??_R3facet@locale@std@@8   0000000180037848     libcpmt:cout.obj
 0002:00010860       ??_R2facet@locale@std@@8   0000000180037860     libcpmt:cout.obj
 0002:00010880       ??_R17?0A@EA@_Crt_new_delete@std@@8 0000000180037880     libcpmt:cout.obj
 0002:000108a8       ??_R3_Crt_new_delete@std@@8 00000001800378a8     libcpmt:cout.obj
 0002:000108c0       ??_R2_Crt_new_delete@std@@8 00000001800378c0     libcpmt:cout.obj
 0002:000108d0       ??_R1A@?0A@EA@_Crt_new_delete@std@@8 00000001800378d0     libcpmt:cout.obj
 0002:000108f8       ??_R3codecvt_base@std@@8   00000001800378f8     libcpmt:cout.obj
 0002:00010910       ??_R2codecvt_base@std@@8   0000000180037910     libcpmt:cout.obj
 0002:00010938       ??_R1A@?0A@EA@codecvt_base@std@@8 0000000180037938     libcpmt:cout.obj
 0002:00010960       ??_R3ctype_base@std@@8     0000000180037960     libcpmt:cout.obj
 0002:00010978       ??_R2ctype_base@std@@8     0000000180037978     libcpmt:cout.obj
 0002:000109a0       ??_R1A@?0A@EA@ctype_base@std@@8 00000001800379a0     libcpmt:cout.obj
 0002:000109c8       ??_R4?$ctype@D@std@@6B@    00000001800379c8     libcpmt:cout.obj
 0002:000109f0       ??_R3?$ctype@D@std@@8      00000001800379f0     libcpmt:cout.obj
 0002:00010a08       ??_R2?$ctype@D@std@@8      0000000180037a08     libcpmt:cout.obj
 0002:00010a38       ??_R1A@?0A@EA@?$ctype@D@std@@8 0000000180037a38     libcpmt:cout.obj
 0002:00010a60       ??_R4error_category@std@@6B@ 0000000180037a60     libcpmt:cout.obj
 0002:00010a88       ??_R3error_category@std@@8 0000000180037a88     libcpmt:cout.obj
 0002:00010aa0       ??_R2error_category@std@@8 0000000180037aa0     libcpmt:cout.obj
 0002:00010ab0       ??_R1A@?0A@EA@error_category@std@@8 0000000180037ab0     libcpmt:cout.obj
 0002:00010ad8       ??_R4_System_error@std@@6B@ 0000000180037ad8     libcpmt:cout.obj
 0002:00010b00       ??_R3_System_error@std@@8  0000000180037b00     libcpmt:cout.obj
 0002:00010b18       ??_R2_System_error@std@@8  0000000180037b18     libcpmt:cout.obj
 0002:00010b38       ??_R1A@?0A@EA@_System_error@std@@8 0000000180037b38     libcpmt:cout.obj
 0002:00010b60       ??_R3system_error@std@@8   0000000180037b60     libcpmt:cout.obj
 0002:00010b78       ??_R2system_error@std@@8   0000000180037b78     libcpmt:cout.obj
 0002:00010ba0       ??_R1A@?0A@EA@system_error@std@@8 0000000180037ba0     libcpmt:cout.obj
 0002:00010bc8       ??_R3_Generic_error_category@std@@8 0000000180037bc8     libcpmt:cout.obj
 0002:00010be0       ??_R2_Generic_error_category@std@@8 0000000180037be0     libcpmt:cout.obj
 0002:00010bf8       ??_R1A@?0A@EA@_Generic_error_category@std@@8 0000000180037bf8     libcpmt:cout.obj
 0002:00010c20       ??_R4_Iostream_error_category@std@@6B@ 0000000180037c20     libcpmt:cout.obj
 0002:00010c48       ??_R3_Iostream_error_category@std@@8 0000000180037c48     libcpmt:cout.obj
 0002:00010c60       ??_R2_Iostream_error_category@std@@8 0000000180037c60     libcpmt:cout.obj
 0002:00010c80       ??_R1A@?0A@EA@_Iostream_error_category@std@@8 0000000180037c80     libcpmt:cout.obj
 0002:00010ca8       ??_R4failure@ios_base@std@@6B@ 0000000180037ca8     libcpmt:cout.obj
 0002:00010cd0       ??_R3failure@ios_base@std@@8 0000000180037cd0     libcpmt:cout.obj
 0002:00010ce8       ??_R2failure@ios_base@std@@8 0000000180037ce8     libcpmt:cout.obj
 0002:00010d18       ??_R1A@?0A@EA@failure@ios_base@std@@8 0000000180037d18     libcpmt:cout.obj
 0002:00010d40       ??_R4?$codecvt@DDU_Mbstatet@@@std@@6B@ 0000000180037d40     libcpmt:cout.obj
 0002:00010d68       ??_R3?$codecvt@DDU_Mbstatet@@@std@@8 0000000180037d68     libcpmt:cout.obj
 0002:00010d80       ??_R2?$codecvt@DDU_Mbstatet@@@std@@8 0000000180037d80     libcpmt:cout.obj
 0002:00010db0       ??_R1A@?0A@EA@?$codecvt@DDU_Mbstatet@@@std@@8 0000000180037db0     libcpmt:cout.obj
 0002:00010dd8       ??_R4_Locimp@locale@std@@6B@ 0000000180037dd8     libcpmt:locale0.obj
 0002:00010e00       ??_R3_Locimp@locale@std@@8 0000000180037e00     libcpmt:locale0.obj
 0002:00010e18       ??_R2_Locimp@locale@std@@8 0000000180037e18     libcpmt:locale0.obj
 0002:00010e40       ??_R1A@?0A@EA@_Locimp@locale@std@@8 0000000180037e40     libcpmt:locale0.obj
 0002:00010e68       ??_R4?$basic_istream@DU?$char_traits@D@std@@@std@@6B@ 0000000180037e68     libcpmt:cin.obj
 0002:00010e90       ??_R3?$basic_istream@DU?$char_traits@D@std@@@std@@8 0000000180037e90     libcpmt:cin.obj
 0002:00010ea8       ??_R2?$basic_istream@DU?$char_traits@D@std@@@std@@8 0000000180037ea8     libcpmt:cin.obj
 0002:00010ed0       ??_R1A@?0A@EA@?$basic_istream@DU?$char_traits@D@std@@@std@@8 0000000180037ed0     libcpmt:cin.obj
 0002:00010ef8       ??_R4bad_alloc@std@@6B@    0000000180037ef8     libcpmt:xthrow.obj
 0002:00010f20       ??_R3bad_alloc@std@@8      0000000180037f20     libcpmt:xthrow.obj
 0002:00010f38       ??_R2bad_alloc@std@@8      0000000180037f38     libcpmt:xthrow.obj
 0002:00010f50       ??_R1A@?0A@EA@bad_alloc@std@@8 0000000180037f50     libcpmt:xthrow.obj
 0002:00010f78       ??_R4logic_error@std@@6B@  0000000180037f78     libcpmt:xthrow.obj
 0002:00010fa0       ??_R3logic_error@std@@8    0000000180037fa0     libcpmt:xthrow.obj
 0002:00010fb8       ??_R2logic_error@std@@8    0000000180037fb8     libcpmt:xthrow.obj
 0002:00010fd0       ??_R1A@?0A@EA@logic_error@std@@8 0000000180037fd0     libcpmt:xthrow.obj
 0002:00010ff8       ??_R4length_error@std@@6B@ 0000000180037ff8     libcpmt:xthrow.obj
 0002:00011020       ??_R3length_error@std@@8   0000000180038020     libcpmt:xthrow.obj
 0002:00011038       ??_R2length_error@std@@8   0000000180038038     libcpmt:xthrow.obj
 0002:00011058       ??_R1A@?0A@EA@length_error@std@@8 0000000180038058     libcpmt:xthrow.obj
 0002:00011080       ??_R4out_of_range@std@@6B@ 0000000180038080     libcpmt:xthrow.obj
 0002:000110a8       ??_R3out_of_range@std@@8   00000001800380a8     libcpmt:xthrow.obj
 0002:000110c0       ??_R2out_of_range@std@@8   00000001800380c0     libcpmt:xthrow.obj
 0002:000110e0       ??_R1A@?0A@EA@out_of_range@std@@8 00000001800380e0     libcpmt:xthrow.obj
 0002:00011108       ??_R4?$num_get@DV?$istreambuf_iterator@DU?$char_traits@D@std@@@std@@@std@@6B@ 0000000180038108     libcpmt:locale.obj
 0002:00011130       ??_R3?$num_get@DV?$istreambuf_iterator@DU?$char_traits@D@std@@@std@@@std@@8 0000000180038130     libcpmt:locale.obj
 0002:00011148       ??_R2?$num_get@DV?$istreambuf_iterator@DU?$char_traits@D@std@@@std@@@std@@8 0000000180038148     libcpmt:locale.obj
 0002:00011170       ??_R1A@?0A@EA@?$num_get@DV?$istreambuf_iterator@DU?$char_traits@D@std@@@std@@@std@@8 0000000180038170     libcpmt:locale.obj
 0002:00011198       ??_R4?$numpunct@D@std@@6B@ 0000000180038198     libcpmt:locale.obj
 0002:000111c0       ??_R3?$numpunct@D@std@@8   00000001800381c0     libcpmt:locale.obj
 0002:000111d8       ??_R2?$numpunct@D@std@@8   00000001800381d8     libcpmt:locale.obj
 0002:00011200       ??_R1A@?0A@EA@?$numpunct@D@std@@8 0000000180038200     libcpmt:locale.obj
 0002:00011228       ??_R4type_info@@6B@        0000000180038228     LIBCMT:std_type_info_static.obj
 0002:00011250       ??_R3type_info@@8          0000000180038250     LIBCMT:std_type_info_static.obj
 0002:00011268       ??_R2type_info@@8          0000000180038268     LIBCMT:std_type_info_static.obj
 0002:00011278       ??_R1A@?0A@EA@type_info@@8 0000000180038278     LIBCMT:std_type_info_static.obj
 0002:000112a0       ??_R4bad_array_new_length@std@@6B@ 00000001800382a0     LIBCMT:throw_bad_alloc.obj
 0002:000112c8       ??_R3bad_array_new_length@std@@8 00000001800382c8     LIBCMT:throw_bad_alloc.obj
 0002:000112e0       ??_R2bad_array_new_length@std@@8 00000001800382e0     LIBCMT:throw_bad_alloc.obj
 0002:00011300       ??_R1A@?0A@EA@bad_array_new_length@std@@8 0000000180038300     LIBCMT:throw_bad_alloc.obj
 0002:00011328       ??_R4bad_exception@std@@6B@ 0000000180038328     libvcruntime:frame.obj
 0002:00011350       ??_R3bad_exception@std@@8  0000000180038350     libvcruntime:frame.obj
 0002:00011368       ??_R2bad_exception@std@@8  0000000180038368     libvcruntime:frame.obj
 0002:00011380       ??_R1A@?0A@EA@bad_exception@std@@8 0000000180038380     libvcruntime:frame.obj
 0002:00011820       __rtc_iaa                  0000000180038820     LIBCMT:_initsect_.obj
 0002:00011828       __rtc_izz                  0000000180038828     LIBCMT:_initsect_.obj
 0002:00011830       __rtc_taa                  0000000180038830     LIBCMT:_initsect_.obj
 0002:00011838       __rtc_tzz                  0000000180038838     LIBCMT:_initsect_.obj
 0002:00013748       _CT??_R0?AVexception@std@@@8??0exception@std@@QEAA@AEBV01@@Z24 000000018003a748     libcpmt:cout.obj
 0002:00013770       _TI2?AVbad_cast@std@@      000000018003a770     libcpmt:cout.obj
 0002:00013790       _CTA2?AVbad_cast@std@@     000000018003a790     libcpmt:cout.obj
 0002:000137a8       _CT??_R0?AVbad_cast@std@@@8??0bad_cast@std@@QEAA@AEBV01@@Z24 000000018003a7a8     libcpmt:cout.obj
 0002:000137d0       _TI2?AVbad_alloc@std@@     000000018003a7d0     libcpmt:xthrow.obj
 0002:000137f0       _CTA2?AVbad_alloc@std@@    000000018003a7f0     libcpmt:xthrow.obj
 0002:00013808       _CT??_R0?AVbad_alloc@std@@@8??0bad_alloc@std@@QEAA@AEBV01@@Z24 000000018003a808     libcpmt:xthrow.obj
 0002:00013830       _CT??_R0?AVlogic_error@std@@@8??0logic_error@std@@QEAA@AEBV01@@Z24 000000018003a830     libcpmt:xthrow.obj
 0002:00013858       _TI3?AVlength_error@std@@  000000018003a858     libcpmt:xthrow.obj
 0002:00013878       _CTA3?AVlength_error@std@@ 000000018003a878     libcpmt:xthrow.obj
 0002:00013898       _CT??_R0?AVlength_error@std@@@8??0length_error@std@@QEAA@AEBV01@@Z24 000000018003a898     libcpmt:xthrow.obj
 0002:000138c0       _TI3?AVout_of_range@std@@  000000018003a8c0     libcpmt:xthrow.obj
 0002:000138e0       _CTA3?AVout_of_range@std@@ 000000018003a8e0     libcpmt:xthrow.obj
 0002:00013900       _CT??_R0?AVout_of_range@std@@@8??0out_of_range@std@@QEAA@AEBV01@@Z24 000000018003a900     libcpmt:xthrow.obj
 0002:00013928       _TI3?AVbad_array_new_length@std@@ 000000018003a928     LIBCMT:throw_bad_alloc.obj
 0002:00013948       _CTA3?AVbad_array_new_length@std@@ 000000018003a948     LIBCMT:throw_bad_alloc.obj
 0002:00013968       _CT??_R0?AVbad_array_new_length@std@@@8??0bad_array_new_length@std@@QEAA@AEBV01@@Z24 000000018003a968     LIBCMT:throw_bad_alloc.obj
 0002:00013990       _TI2?AVbad_exception@std@@ 000000018003a990     libvcruntime:frame.obj
 0002:000139b0       _CTA2?AVbad_exception@std@@ 000000018003a9b0     libvcruntime:frame.obj
 0002:000139c8       _CT??_R0?AVbad_exception@std@@@8??0bad_exception@std@@QEAA@AEBV01@@Z24 000000018003a9c8     libvcruntime:frame.obj
 0002:000139ec       __DELAY_IMPORT_DESCRIPTOR_node_exe 000000018003a9ec     node:node.exe
 0002:00013a0c       __NULL_DELAY_IMPORT_DESCRIPTOR 000000018003aa0c     node:node.exe
 0002:00013a90       \177node_NULL_THUNK_DATA_DLN 000000018003aa90     node:node.exe
 0002:00013d90       \177node_NULL_THUNK_DATA_DLB 000000018003ad90     node:node.exe
 0002:00013e3c       __IMPORT_DESCRIPTOR_KERNEL32 000000018003ae3c     kernel32:KERNEL32.dll
 0002:00013e50       __NULL_IMPORT_DESCRIPTOR   000000018003ae50     kernel32:KERNEL32.dll
 0003:00000004       ?_Sync@ios_base@std@@0_NA  000000018003c004     libcpmt:ios.obj
 0003:00000020       ?_PJP_CPP_Copyright@@3PADA 000000018003c020     libcpmt:iosptrs.obj
 0003:00000080       _Init_global_epoch         000000018003c080     LIBCMT:thread_safe_statics.obj
 0003:00000084       __scrt_native_dllmain_reason 000000018003c084     LIBCMT:utility.obj
 0003:00000088       __security_cookie          000000018003c088     LIBCMT:gs_cookie.obj
 0003:00000090       __security_cookie_complement 000000018003c090     LIBCMT:gs_cookie.obj
 0003:00000098       _fltused                   000000018003c098     LIBCMT:fltused.obj
 0003:000000a0       __isa_available            000000018003c0a0     LIBCMT:_cpu_disp_.obj
 0003:000000a4       __isa_enabled              000000018003c0a4     LIBCMT:_cpu_disp_.obj
 0003:000000a8       __memcpy_nt_iters          000000018003c0a8     LIBCMT:_cpu_disp_.obj
 0003:000000c0       __abort_behavior           000000018003c0c0     libucrt:abort.obj
 0003:000000d0       __acrt_lconv_c             000000018003c0d0     libucrt:localeconv.obj
 0003:00000168       __acrt_lconv               000000018003c168     libucrt:localeconv.obj
 0003:00000170       __acrt_lconv_static_decimal 000000018003c170     libucrt:localeconv.obj
 0003:00000174       __acrt_lconv_static_W_decimal 000000018003c174     libucrt:localeconv.obj
 0003:00000180       _iob                       000000018003c180     libucrt:_file.obj
 0003:00000288       _pctype                    000000018003c288     libucrt:ctype.obj
 0003:00000290       _pwctype                   000000018003c290     libucrt:ctype.obj
 0003:000002b0       __acrt_initial_locale_data 000000018003c2b0     libucrt:nlsdata.obj
 0003:00000408       __acrt_initial_locale_pointers 000000018003c408     libucrt:nlsdata.obj
 0003:00000418       __acrt_wide_c_locale_string 000000018003c418     libucrt:nlsdata.obj
 0003:0000041c       __mb_cur_max               000000018003c41c     libucrt:nlsdata.obj
 0003:00000430       __badioinfo                000000018003c430     libucrt:ioinit.obj
 0003:00000470       __globallocalestatus       000000018003c470     libucrt:glstatus.obj
 0003:00000510       __acrt_initial_multibyte_data 000000018003c510     libucrt:mbctype.obj
 0003:00000738       __acrt_current_multibyte_data 000000018003c738     libucrt:mbctype.obj
 0003:00000840       _mbctype                   000000018003c840     libucrt:mbctype.obj
 0003:00000950       _mbcasemap                 000000018003c950     libucrt:mbctype.obj
 0003:00000a50       _lookuptrailbytes          000000018003ca50     libucrt:read.obj
 0003:00000b58       __dcrt_lowio_console_output_handle 000000018003cb58     libucrt:initcon.obj
 0003:00000ba0       ??_R0?AVruntime_error@std@@@8 000000018003cba0     libcpmt:cout.obj
 0003:00000bc8       ??_R0?AVexception@std@@@8  000000018003cbc8     libcpmt:cout.obj
 0003:00000bf0       ??_R0?AVfailure@ios_base@std@@@8 000000018003cbf0     libcpmt:cout.obj
 0003:00000c20       ??_R0?AVsystem_error@std@@@8 000000018003cc20     libcpmt:cout.obj
 0003:00000c48       ??_R0?AV_System_error@std@@@8 000000018003cc48     libcpmt:cout.obj
 0003:00000c70       ??_R0?AVbad_cast@std@@@8   000000018003cc70     libcpmt:cout.obj
 0003:00000c98       ??_R0?AVios_base@std@@@8   000000018003cc98     libcpmt:cout.obj
 0003:00000cc0       ??_R0?AV?$_Iosb@H@std@@@8  000000018003ccc0     libcpmt:cout.obj
 0003:00000ce8       ??_R0?AV?$basic_ios@DU?$char_traits@D@std@@@std@@@8 000000018003cce8     libcpmt:cout.obj
 0003:00000d30       ??_R0?AV?$basic_streambuf@DU?$char_traits@D@std@@@std@@@8 000000018003cd30     libcpmt:cout.obj
 0003:00000d80       ??_R0?AV?$basic_ostream@DU?$char_traits@D@std@@@std@@@8 000000018003cd80     libcpmt:cout.obj
 0003:00000dd0       ??_R0?AV?$basic_filebuf@DU?$char_traits@D@std@@@std@@@8 000000018003cdd0     libcpmt:cout.obj
 0003:00000e18       ??_R0?AV_Facet_base@std@@@8 000000018003ce18     libcpmt:cout.obj
 0003:00000e40       ??_R0?AVfacet@locale@std@@@8 000000018003ce40     libcpmt:cout.obj
 0003:00000e68       ??_R0?AU_Crt_new_delete@std@@@8 000000018003ce68     libcpmt:cout.obj
 0003:00000e98       ??_R0?AVcodecvt_base@std@@@8 000000018003ce98     libcpmt:cout.obj
 0003:00000ec0       ??_R0?AUctype_base@std@@@8 000000018003cec0     libcpmt:cout.obj
 0003:00000ee8       ??_R0?AV?$ctype@D@std@@@8  000000018003cee8     libcpmt:cout.obj
 0003:00000f10       ??_R0?AVerror_category@std@@@8 000000018003cf10     libcpmt:cout.obj
 0003:00000f40       ??_R0?AV_Generic_error_category@std@@@8 000000018003cf40     libcpmt:cout.obj
 0003:00000f78       ??_R0?AV_Iostream_error_category@std@@@8 000000018003cf78     libcpmt:cout.obj
 0003:00000fb0       ??_R0?AV?$codecvt@DDU_Mbstatet@@@std@@@8 000000018003cfb0     libcpmt:cout.obj
 0003:00000fe8       ??_R0?AV_Locimp@locale@std@@@8 000000018003cfe8     libcpmt:locale0.obj
 0003:00001020       ??_R0?AV?$basic_istream@DU?$char_traits@D@std@@@std@@@8 000000018003d020     libcpmt:cin.obj
 0003:00001068       ??_R0?AVbad_alloc@std@@@8  000000018003d068     libcpmt:xthrow.obj
 0003:00001090       ??_R0?AVlogic_error@std@@@8 000000018003d090     libcpmt:xthrow.obj
 0003:000010b8       ??_R0?AVlength_error@std@@@8 000000018003d0b8     libcpmt:xthrow.obj
 0003:000010e0       ??_R0?AVout_of_range@std@@@8 000000018003d0e0     libcpmt:xthrow.obj
 0003:00001110       ??_R0?AV?$num_get@DV?$istreambuf_iterator@DU?$char_traits@D@std@@@std@@@std@@@8 000000018003d110     libcpmt:locale.obj
 0003:00001170       ??_R0?AV?$numpunct@D@std@@@8 000000018003d170     libcpmt:locale.obj
 0003:00001198       ??_R0?AVtype_info@@@8      000000018003d198     LIBCMT:std_type_info_static.obj
 0003:000011b8       ??_R0?AVbad_array_new_length@std@@@8 000000018003d1b8     LIBCMT:throw_bad_alloc.obj
 0003:000011e8       ??_R0?AVbad_exception@std@@@8 000000018003d1e8     libvcruntime:frame.obj
 0003:00001210       __imp_?GetCurrent@Isolate@v8@@SAPEAV12@XZ 000000018003d210     node:node.exe
 0003:00001218       __imp_??1HandleScope@v8@@QEAA@XZ 000000018003d218     node:node.exe
 0003:00001220       __imp_??0HandleScope@v8@@QEAA@PEAVIsolate@1@@Z 000000018003d220     node:node.exe
 0003:00001228       __imp_?GetFunction@FunctionTemplate@v8@@QEAA?AV?$Local@VFunction@v8@@@2@XZ 000000018003d228     node:node.exe
 0003:00001230       __imp_?New@FunctionTemplate@v8@@SA?AV?$Local@VFunctionTemplate@v8@@@2@PEAVIsolate@2@P6AXAEBV?$FunctionCallbackInfo@VValue@v8@@@2@@ZV?$Local@VValue@v8@@@2@V?$Local@VSignature@v8@@@2@H@Z 000000018003d230     node:node.exe
 0003:00001238       __imp_??1Utf8Value@String@v8@@QEAA@XZ 000000018003d238     node:node.exe
 0003:00001240       __imp_??0Utf8Value@String@v8@@QEAA@V?$Local@VValue@v8@@@2@@Z 000000018003d240     node:node.exe
 0003:00001248       __imp_?NewFromUtf8@String@v8@@SA?AV?$Local@VString@v8@@@2@PEAVIsolate@2@PEBDW4NewStringType@12@H@Z 000000018003d248     node:node.exe
 0003:00001250       __imp_?New@Number@v8@@SA?AV?$Local@VNumber@v8@@@2@PEAVIsolate@2@N@Z 000000018003d250     node:node.exe
 0003:00001258       __imp_?Set@Object@v8@@QEAA_NV?$Local@VValue@v8@@@2@0@Z 000000018003d258     node:node.exe
 0003:00001260       __imp_?SetName@Function@v8@@QEAAXV?$Local@VString@v8@@@2@@Z 000000018003d260     node:node.exe
 0003:00001268       __imp_node_module_register 000000018003d268     node:node.exe
 0003:00001270       \177node_NULL_THUNK_DATA_DLA 000000018003d270     node:node.exe
 0003:00001280       __hmod__node_exe           000000018003d280     node:node.exe
 0003:000013f0       ?cout@std@@3V?$basic_ostream@DU?$char_traits@D@std@@@1@A 000000018003d3f0     libcpmt:cout.obj
 0003:000014f8       ?id@?$codecvt@DDU_Mbstatet@@@std@@2V0locale@2@A 000000018003d4f8     libcpmt:cout.obj
 0003:00001500       ?_Stinit@?1??_Init@?$basic_filebuf@DU?$char_traits@D@std@@@std@@IEAAXPEAU_iobuf@@W4_Initfl@23@@Z@4U_Mbstatet@@A 000000018003d500     libcpmt:cout.obj
 0003:00001508       ?_Psave@?$_Facetptr@V?$codecvt@DDU_Mbstatet@@@std@@@std@@2PEBVfacet@locale@2@EB 000000018003d508     libcpmt:cout.obj
 0003:00001518       ?_Id_cnt@id@locale@std@@0HA 000000018003d518     libcpmt:locale0.obj
 0003:00001520       ?_Clocptr@_Locimp@locale@std@@0PEAV123@EA 000000018003d520     libcpmt:locale0.obj
 0003:00001530       ?id@?$ctype@_W@std@@2V0locale@2@A 000000018003d530     libcpmt:locale0.obj
 0003:00001538       ?id@?$ctype@D@std@@2V0locale@2@A 000000018003d538     libcpmt:locale0.obj
 0003:00001540       ?id@?$codecvt@GDU_Mbstatet@@@std@@2V0locale@2@A 000000018003d540     libcpmt:locale0.obj
 0003:00001548       ?id@?$ctype@G@std@@2V0locale@2@A 000000018003d548     libcpmt:locale0.obj
 0003:00001560       ?id@?$codecvt@_WDU_Mbstatet@@@std@@2V0locale@2@A 000000018003d560     libcpmt:locale0.obj
 0003:00001620       ?cin@std@@3V?$basic_istream@DU?$char_traits@D@std@@@1@A 000000018003d620     libcpmt:cin.obj
 0003:00001698       ?_Raise_handler@std@@3P6AXAEBVexception@stdext@@@ZEA 000000018003d698     libcpmt:raisehan.obj
 0003:000016fc       ?_Index@ios_base@std@@0HA  000000018003d6fc     libcpmt:ios.obj
 0003:00001700       ?_Ptr_cin@std@@3PEAV?$basic_istream@DU?$char_traits@D@std@@@1@EA 000000018003d700     libcpmt:iosptrs.obj
 0003:00001708       ?_Ptr_cout@std@@3PEAV?$basic_ostream@DU?$char_traits@D@std@@@1@EA 000000018003d708     libcpmt:iosptrs.obj
 0003:00001710       ?_Ptr_cerr@std@@3PEAV?$basic_ostream@DU?$char_traits@D@std@@@1@EA 000000018003d710     libcpmt:iosptrs.obj
 0003:00001718       ?_Ptr_clog@std@@3PEAV?$basic_ostream@DU?$char_traits@D@std@@@1@EA 000000018003d718     libcpmt:iosptrs.obj
 0003:00001720       ?_Ptr_wcin@std@@3PEAV?$basic_istream@_WU?$char_traits@_W@std@@@1@EA 000000018003d720     libcpmt:iosptrs.obj
 0003:00001728       ?_Ptr_wcout@std@@3PEAV?$basic_ostream@_WU?$char_traits@_W@std@@@1@EA 000000018003d728     libcpmt:iosptrs.obj
 0003:00001730       ?_Ptr_wcerr@std@@3PEAV?$basic_ostream@_WU?$char_traits@_W@std@@@1@EA 000000018003d730     libcpmt:iosptrs.obj
 0003:00001738       ?_Ptr_wclog@std@@3PEAV?$basic_ostream@_WU?$char_traits@_W@std@@@1@EA 000000018003d738     libcpmt:iosptrs.obj
 0003:00001798       ?_OptionsStorage@?1??__local_stdio_printf_options@@9@4_KA 000000018003d798     libcpmt:locale.obj
 0003:000017a0       ?id@?$num_put@DV?$ostreambuf_iterator@DU?$char_traits@D@std@@@std@@@std@@2V0locale@2@A 000000018003d7a0     libcpmt:locale.obj
 0003:000017b0       __encodedKERNEL32Functions 000000018003d7b0     libcpmt:winapisupp.obj
 0003:000018f0       ?id@?$time_put@_WV?$ostreambuf_iterator@_WU?$char_traits@_W@std@@@std@@@std@@2V0locale@2@A 000000018003d8f0     libcpmt:wlocale.obj
 0003:000018f8       ?id@?$num_get@_WV?$istreambuf_iterator@_WU?$char_traits@_W@std@@@std@@@std@@2V0locale@2@A 000000018003d8f8     libcpmt:wlocale.obj
 0003:00001900       ?id@?$num_put@_WV?$ostreambuf_iterator@_WU?$char_traits@_W@std@@@std@@@std@@2V0locale@2@A 000000018003d900     libcpmt:wlocale.obj
 0003:00001908       ?id@?$numpunct@_W@std@@2V0locale@2@A 000000018003d908     libcpmt:wlocale.obj
 0003:00001910       ?id@?$collate@_W@std@@2V0locale@2@A 000000018003d910     libcpmt:wlocale.obj
 0003:00001918       ?id@?$messages@_W@std@@2V0locale@2@A 000000018003d918     libcpmt:wlocale.obj
 0003:00001920       ?id@?$money_get@_WV?$istreambuf_iterator@_WU?$char_traits@_W@std@@@std@@@std@@2V0locale@2@A 000000018003d920     libcpmt:wlocale.obj
 0003:00001928       ?id@?$money_put@_WV?$ostreambuf_iterator@_WU?$char_traits@_W@std@@@std@@@std@@2V0locale@2@A 000000018003d928     libcpmt:wlocale.obj
 0003:00001930       ?id@?$moneypunct@_W$0A@@std@@2V0locale@2@A 000000018003d930     libcpmt:wlocale.obj
 0003:00001938       ?id@?$moneypunct@_W$00@std@@2V0locale@2@A 000000018003d938     libcpmt:wlocale.obj
 0003:00001940       ?id@?$time_get@_WV?$istreambuf_iterator@_WU?$char_traits@_W@std@@@std@@@std@@2V0locale@2@A 000000018003d940     libcpmt:wlocale.obj
 0003:00001948       ?id@?$num_get@GV?$istreambuf_iterator@GU?$char_traits@G@std@@@std@@@std@@2V0locale@2@A 000000018003d948     libcpmt:wlocale.obj
 0003:00001950       ?id@?$num_put@GV?$ostreambuf_iterator@GU?$char_traits@G@std@@@std@@@std@@2V0locale@2@A 000000018003d950     libcpmt:wlocale.obj
 0003:00001958       ?id@?$numpunct@G@std@@2V0locale@2@A 000000018003d958     libcpmt:wlocale.obj
 0003:00001960       ?id@?$collate@G@std@@2V0locale@2@A 000000018003d960     libcpmt:wlocale.obj
 0003:00001968       ?id@?$messages@G@std@@2V0locale@2@A 000000018003d968     libcpmt:wlocale.obj
 0003:00001970       ?id@?$money_get@GV?$istreambuf_iterator@GU?$char_traits@G@std@@@std@@@std@@2V0locale@2@A 000000018003d970     libcpmt:wlocale.obj
 0003:00001978       ?id@?$money_put@GV?$ostreambuf_iterator@GU?$char_traits@G@std@@@std@@@std@@2V0locale@2@A 000000018003d978     libcpmt:wlocale.obj
 0003:00001980       ?id@?$moneypunct@G$0A@@std@@2V0locale@2@A 000000018003d980     libcpmt:wlocale.obj
 0003:00001988       ?id@?$moneypunct@G$00@std@@2V0locale@2@A 000000018003d988     libcpmt:wlocale.obj
 0003:00001990       ?id@?$time_get@GV?$istreambuf_iterator@GU?$char_traits@G@std@@@std@@@std@@2V0locale@2@A 000000018003d990     libcpmt:wlocale.obj
 0003:00001998       ?id@?$time_put@GV?$ostreambuf_iterator@GU?$char_traits@G@std@@@std@@@std@@2V0locale@2@A 000000018003d998     libcpmt:wlocale.obj
 0003:000019a0       ?id@?$collate@D@std@@2V0locale@2@A 000000018003d9a0     libcpmt:xlocale.obj
 0003:000019a8       ?id@?$messages@D@std@@2V0locale@2@A 000000018003d9a8     libcpmt:xlocale.obj
 0003:000019b0       ?id@?$money_get@DV?$istreambuf_iterator@DU?$char_traits@D@std@@@std@@@std@@2V0locale@2@A 000000018003d9b0     libcpmt:xlocale.obj
 0003:000019b8       ?id@?$money_put@DV?$ostreambuf_iterator@DU?$char_traits@D@std@@@std@@@std@@2V0locale@2@A 000000018003d9b8     libcpmt:xlocale.obj
 0003:000019c0       ?id@?$moneypunct@D$0A@@std@@2V0locale@2@A 000000018003d9c0     libcpmt:xlocale.obj
 0003:000019c8       ?id@?$moneypunct@D$00@std@@2V0locale@2@A 000000018003d9c8     libcpmt:xlocale.obj
 0003:000019d0       ?id@?$time_get@DV?$istreambuf_iterator@DU?$char_traits@D@std@@@std@@@std@@2V0locale@2@A 000000018003d9d0     libcpmt:xlocale.obj
 0003:000019d8       ?id@?$time_put@DV?$ostreambuf_iterator@DU?$char_traits@D@std@@@std@@@std@@2V0locale@2@A 000000018003d9d8     libcpmt:xlocale.obj
 0003:00001a28       __scrt_current_native_startup_state 000000018003da28     LIBCMT:utility.obj
 0003:00001a30       __scrt_native_startup_lock 000000018003da30     LIBCMT:utility.obj
 0003:00001fe0       __scrt_debugger_hook_flag  000000018003dfe0     LIBCMT:utility_desktop.obj
 0003:00001fe4       _tls_index                 000000018003dfe4     LIBCMT:tlssup.obj
 0003:00001fe8       __favor                    000000018003dfe8     LIBCMT:_cpu_disp_.obj
 0003:00001ff0       ?__type_info_root_node@@3U__type_info_node@@A 000000018003dff0     LIBCMT:tncleanup.obj
 0003:00002000       ?_OptionsStorage@?1??__local_stdio_scanf_options@@9@4_KA 000000018003e000     LIBCMT:default_local_stdio_options.obj
 0003:00002008       ?g_OutOfMemoryExceptionCallback@@3P6APEAXXZEA 000000018003e008     libvcruntime:frame.obj
 0003:00002078       __pPurecall                000000018003e078     libvcruntime:purevirt_data.obj
 0003:00002128       ?pArgList@UnDecorator@@0PEAVReplicator@@EA 000000018003e128     libvcruntime:undname.obj
 0003:00002130       ?pZNameList@UnDecorator@@0PEAVReplicator@@EA 000000018003e130     libvcruntime:undname.obj
 0003:00002138       ?pTemplateArgList@UnDecorator@@0PEAVReplicator@@EA 000000018003e138     libvcruntime:undname.obj
 0003:00002140       ?gName@UnDecorator@@0PEBDEB 000000018003e140     libvcruntime:undname.obj
 0003:00002148       ?name@UnDecorator@@0PEBDEB 000000018003e148     libvcruntime:undname.obj
 0003:00002150       ?outputString@UnDecorator@@0PEADEA 000000018003e150     libvcruntime:undname.obj
 0003:00002158       ?maxStringLength@UnDecorator@@0HA 000000018003e158     libvcruntime:undname.obj
 0003:0000215c       ?disableFlags@UnDecorator@@0KA 000000018003e15c     libvcruntime:undname.obj
 0003:00002160       ?fExplicitTemplateParams@UnDecorator@@0_NA 000000018003e160     libvcruntime:undname.obj
 0003:00002161       ?fGetTemplateArgumentList@UnDecorator@@0_NA 000000018003e161     libvcruntime:undname.obj
 0003:00002168       ?m_pGetParameter@UnDecorator@@0P6APEADJ@ZEA 000000018003e168     libvcruntime:undname.obj
 0003:000021a0       __acrt_lconv_static_null   000000018003e1a0     libucrt:localeconv.obj
 0003:000021a4       __acrt_lconv_static_W_null 000000018003e1a4     libucrt:localeconv.obj
 0003:000023c0       _nstream                   000000018003e3c0     libucrt:_file.obj
 0003:000023c8       __piob                     000000018003e3c8     libucrt:_file.obj
 0003:000023d0       _cflush                    000000018003e3d0     libucrt:_file.obj
 0003:00002508       _environ_table             000000018003e508     libucrt:environment_initialization.obj
 0003:00002510       _wenviron_table            000000018003e510     libucrt:environment_initialization.obj
 0003:00002518       __dcrt_initial_wide_environment 000000018003e518     libucrt:environment_initialization.obj
 0003:00002520       __dcrt_initial_narrow_environment 000000018003e520     libucrt:environment_initialization.obj
 0003:00002528       __acrt_atexit_table        000000018003e528     libucrt:onexit.obj
 0003:00002540       __acrt_at_quick_exit_table 000000018003e540     libucrt:onexit.obj
 0003:00002578       __acrt_locale_changed_data 000000018003e578     libucrt:wsetlocale.obj
 0003:00002580       __acrt_current_locale_data 000000018003e580     libucrt:nlsdata.obj
 0003:00002740       __pioinfo                  000000018003e740     libucrt:ioinit.obj
 0003:00002b40       _nhandle                   000000018003eb40     libucrt:ioinit.obj
 0003:00002b48       __acrt_stdout_buffer       000000018003eb48     libucrt:_sftbuf.obj
 0003:00002b50       __acrt_stderr_buffer       000000018003eb50     libucrt:_sftbuf.obj
 0003:00002b60       __acrt_heap                000000018003eb60     libucrt:heap_handle.obj
 0003:00002b68       __fma3_is_available        000000018003eb68     libucrt:fma3_available.obj
 0003:00002b6c       __use_fma3_lib             000000018003eb6c     libucrt:fma3_available.obj
 0003:00002b70       ?_timezone@@3V?$dual_state_global@J@__crt_state_management@@A 000000018003eb70     libucrt:timeset.obj
 0003:00002b74       ?_daylight@@3V?$dual_state_global@H@__crt_state_management@@A 000000018003eb74     libucrt:timeset.obj
 0003:00002b78       ?_dstbias@@3V?$dual_state_global@J@__crt_state_management@@A 000000018003eb78     libucrt:timeset.obj
 0003:00002c4c       __mbcodepage               000000018003ec4c     libucrt:mbctype.obj
 0003:00002c50       __ismbcodepage             000000018003ec50     libucrt:mbctype.obj
 0003:00002c58       __mbulinfo                 000000018003ec58     libucrt:mbctype.obj
 0003:00002c68       __mblocalename             000000018003ec68     libucrt:mbctype.obj
 0003:00002c74       __argc                     000000018003ec74     libucrt:argv_data.obj
 0003:00002c78       __argv                     000000018003ec78     libucrt:argv_data.obj
 0003:00002c80       __wargv                    000000018003ec80     libucrt:argv_data.obj
 0003:00002c88       _acmdln                    000000018003ec88     libucrt:argv_data.obj
 0003:00002c90       _wcmdln                    000000018003ec90     libucrt:argv_data.obj
 0003:00002c98       _pgmptr                    000000018003ec98     libucrt:argv_data.obj
 0003:00002cb0       ?DloadKernel32@@3PEAUHINSTANCE__@@EA 000000018003ecb0     DelayImp:delayhlp.obj
 0003:00002cb8       ?DloadAcquireSRWLockExclusive@@3P6AXPEA_K@ZEA 000000018003ecb8     DelayImp:delayhlp.obj
 0003:00002cc0       ?DloadReleaseSRWLockExclusive@@3P6AXPEA_K@ZEA 000000018003ecc0     DelayImp:delayhlp.obj
 0003:00002cc8       ?DloadSrwLock@@3_KA        000000018003ecc8     DelayImp:delayhlp.obj
 0003:00002cd0       ?DloadSectionLockCount@@3KA 000000018003ecd0     DelayImp:delayhlp.obj
 0003:00002cd4       ?DloadSectionOldProtection@@3KA 000000018003ecd4     DelayImp:delayhlp.obj
 0003:00002cd8       ?DloadSectionCommitPermanent@@3KA 000000018003ecd8     DelayImp:delayhlp.obj
 0003:00002ce0       ?_Psave@?$_Facetptr@V?$num_get@DV?$istreambuf_iterator@DU?$char_traits@D@std@@@std@@@std@@@std@@2PEBVfacet@locale@2@EB 000000018003ece0     cio.obj
 0003:00002ce8       ?_Psave@?$_Facetptr@V?$numpunct@D@std@@@std@@2PEBVfacet@locale@2@EB 000000018003ece8     cio.obj
 0003:00002cf0       ?_Psave@?$_Facetptr@V?$ctype@D@std@@@std@@2PEBVfacet@locale@2@EB 000000018003ecf0     cio.obj
 0003:00002cf8       ?id@?$num_get@DV?$istreambuf_iterator@DU?$char_traits@D@std@@@std@@@std@@2V0locale@2@A 000000018003ecf8     cio.obj
 0003:00002d00       ?id@?$numpunct@D@std@@2V0locale@2@A 000000018003ed00     cio.obj
 0003:00002d08       ?$TSS0@?1???$_Immortalize@V_Iostream_error_category@std@@@std@@YAAEAV_Iostream_error_category@1@XZ@4HA 000000018003ed08     cio.obj
 0003:00002d10       ?_Static@?1???$_Immortalize@V_Iostream_error_category@std@@@std@@YAAEAV_Iostream_error_category@1@XZ@4U?$_Immortalizer@V_Iostream_error_category@std@@@1@A 000000018003ed10     cio.obj
 0003:00002d20       __dyn_tls_init_callback    000000018003ed20     <common>
 0003:00002d28       __scrt_ucrt_dll_is_in_use  000000018003ed28     <common>
 0006:00000000       _tls_start                 0000000180043000     LIBCMT:tlssup.obj
 0006:00000004       _Init_thread_epoch         0000000180043004     LIBCMT:thread_safe_statics.obj
 0006:00000008       _tls_end                   0000000180043008     LIBCMT:tlssup.obj

 entry point at        0001:0000abfc

 Static symbols

 0000:fffba000       .debug$S                   0000000180000000     kernel32:KERNEL32.dll
 0000:fffba000       .debug$S                   0000000180000000     kernel32:KERNEL32.dll
 0000:fffba000       .debug$S                   0000000180000000     kernel32:KERNEL32.dll
 0000:fffba000       .debug$S                   0000000180000000     kernel32:KERNEL32.dll
 0000:fffba000       .debug$S                   0000000180000000     kernel32:KERNEL32.dll
 0000:fffba000       .debug$S                   0000000180000000     kernel32:KERNEL32.dll
 0000:fffba000       .debug$S                   0000000180000000     kernel32:KERNEL32.dll
 0000:fffba000       .debug$S                   0000000180000000     kernel32:KERNEL32.dll
 0000:fffba000       .debug$S                   0000000180000000     kernel32:KERNEL32.dll
 0000:fffba000       .debug$S                   0000000180000000     kernel32:KERNEL32.dll
 0000:fffba000       .debug$S                   0000000180000000     kernel32:KERNEL32.dll
 0000:fffba000       .debug$S                   0000000180000000     kernel32:KERNEL32.dll
 0000:fffba000       .debug$S                   0000000180000000     kernel32:KERNEL32.dll
 0000:fffba000       .debug$S                   0000000180000000     kernel32:KERNEL32.dll
 0000:fffba000       .debug$S                   0000000180000000     kernel32:KERNEL32.dll
 0000:fffba000       .debug$S                   0000000180000000     kernel32:KERNEL32.dll
 0000:fffba000       .debug$S                   0000000180000000     kernel32:KERNEL32.dll
 0000:fffba000       .debug$S                   0000000180000000     kernel32:KERNEL32.dll
 0000:fffba000       .debug$S                   0000000180000000     kernel32:KERNEL32.dll
 0000:fffba000       .debug$S                   0000000180000000     kernel32:KERNEL32.dll
 0000:fffba000       .debug$S                   0000000180000000     kernel32:KERNEL32.dll
 0000:fffba000       .debug$S                   0000000180000000     kernel32:KERNEL32.dll
 0000:fffba000       .debug$S                   0000000180000000     kernel32:KERNEL32.dll
 0000:fffba000       .debug$S                   0000000180000000     kernel32:KERNEL32.dll
 0000:fffba000       .debug$S                   0000000180000000     kernel32:KERNEL32.dll
 0000:fffba000       .debug$S                   0000000180000000     kernel32:KERNEL32.dll
 0000:fffba000       .debug$S                   0000000180000000     kernel32:KERNEL32.dll
 0000:fffba000       .debug$S                   0000000180000000     kernel32:KERNEL32.dll
 0000:fffba000       .debug$S                   0000000180000000     cio.exp
 0000:fffba000       .debug$S                   0000000180000000     kernel32:KERNEL32.dll
 0000:fffba000       .debug$S                   0000000180000000     kernel32:KERNEL32.dll
 0000:fffba000       .debug$S                   0000000180000000     kernel32:KERNEL32.dll
 0000:fffba000       .debug$S                   0000000180000000     kernel32:KERNEL32.dll
 0000:fffba000       .debug$S                   0000000180000000     kernel32:KERNEL32.dll
 0000:fffba000       .debug$S                   0000000180000000     kernel32:KERNEL32.dll
 0000:fffba000       .debug$S                   0000000180000000     kernel32:KERNEL32.dll
 0000:fffba000       .debug$S                   0000000180000000     kernel32:KERNEL32.dll
 0000:fffba000       .debug$S                   0000000180000000     kernel32:KERNEL32.dll
 0000:fffba000       .debug$S                   0000000180000000     kernel32:KERNEL32.dll
 0000:fffba000       .debug$S                   0000000180000000     kernel32:KERNEL32.dll
 0000:fffba000       .debug$S                   0000000180000000     kernel32:KERNEL32.dll
 0000:fffba000       .debug$S                   0000000180000000     kernel32:KERNEL32.dll
 0000:fffba000       .debug$S                   0000000180000000     kernel32:KERNEL32.dll
 0000:fffba000       .debug$S                   0000000180000000     kernel32:KERNEL32.dll
 0000:fffba000       .debug$S                   0000000180000000     kernel32:KERNEL32.dll
 0000:fffba000       .debug$S                   0000000180000000     kernel32:KERNEL32.dll
 0000:fffba000       .debug$S                   0000000180000000     kernel32:KERNEL32.dll
 0000:fffba000       .debug$S                   0000000180000000     kernel32:KERNEL32.dll
 0000:fffba000       .debug$S                   0000000180000000     kernel32:KERNEL32.dll
 0000:fffba000       .debug$S                   0000000180000000     kernel32:KERNEL32.dll
 0000:fffba000       .debug$S                   0000000180000000     kernel32:KERNEL32.dll
 0000:fffba000       .debug$S                   0000000180000000     kernel32:KERNEL32.dll
 0000:fffba000       .debug$S                   0000000180000000     kernel32:KERNEL32.dll
 0000:fffba000       .debug$S                   0000000180000000     kernel32:KERNEL32.dll
 0000:fffba000       .debug$S                   0000000180000000     kernel32:KERNEL32.dll
 0000:fffba000       .debug$S                   0000000180000000     kernel32:KERNEL32.dll
 0000:fffba000       .debug$S                   0000000180000000     kernel32:KERNEL32.dll
 0000:fffba000       .debug$S                   0000000180000000     kernel32:KERNEL32.dll
 0000:fffba000       .debug$S                   0000000180000000     kernel32:KERNEL32.dll
 0000:fffba000       .debug$S                   0000000180000000     kernel32:KERNEL32.dll
 0000:fffba000       .debug$S                   0000000180000000     kernel32:KERNEL32.dll
 0000:fffba000       .debug$S                   0000000180000000     kernel32:KERNEL32.dll
 0000:fffba000       .debug$S                   0000000180000000     kernel32:KERNEL32.dll
 0000:fffba000       .debug$S                   0000000180000000     kernel32:KERNEL32.dll
 0000:fffba000       .debug$S                   0000000180000000     kernel32:KERNEL32.dll
 0000:fffba000       .debug$S                   0000000180000000     kernel32:KERNEL32.dll
 0000:fffba000       .debug$S                   0000000180000000     kernel32:KERNEL32.dll
 0000:fffba000       .debug$S                   0000000180000000     kernel32:KERNEL32.dll
 0000:fffba000       .debug$S                   0000000180000000     kernel32:KERNEL32.dll
 0000:fffba000       .debug$S                   0000000180000000     kernel32:KERNEL32.dll
 0000:fffba000       .debug$S                   0000000180000000     kernel32:KERNEL32.dll
 0000:fffba000       .debug$S                   0000000180000000     kernel32:KERNEL32.dll
 0000:fffba000       .debug$S                   0000000180000000     kernel32:KERNEL32.dll
 0000:fffba000       .debug$S                   0000000180000000     kernel32:KERNEL32.dll
 0000:fffba000       .debug$S                   0000000180000000     kernel32:KERNEL32.dll
 0000:fffba000       .debug$S                   0000000180000000     kernel32:KERNEL32.dll
 0000:fffba000       .debug$S                   0000000180000000     kernel32:KERNEL32.dll
 0000:fffba000       .debug$S                   0000000180000000     kernel32:KERNEL32.dll
 0000:fffba000       .debug$S                   0000000180000000     kernel32:KERNEL32.dll
 0000:fffba000       .debug$S                   0000000180000000     kernel32:KERNEL32.dll
 0000:fffba000       .debug$S                   0000000180000000     kernel32:KERNEL32.dll
 0000:fffba000       .debug$S                   0000000180000000     kernel32:KERNEL32.dll
 0000:fffba000       .debug$S                   0000000180000000     kernel32:KERNEL32.dll
 0000:fffba000       .debug$S                   0000000180000000     kernel32:KERNEL32.dll
 0000:fffba000       .debug$S                   0000000180000000     kernel32:KERNEL32.dll
 0000:fffba000       .debug$S                   0000000180000000     kernel32:KERNEL32.dll
 0000:fffba000       .debug$S                   0000000180000000     kernel32:KERNEL32.dll
 0000:fffba000       .debug$S                   0000000180000000     kernel32:KERNEL32.dll
 0000:fffba000       .debug$S                   0000000180000000     kernel32:KERNEL32.dll
 0000:fffba000       .debug$S                   0000000180000000     kernel32:KERNEL32.dll
 0000:fffba000       .debug$S                   0000000180000000     kernel32:KERNEL32.dll
 0000:fffba000       .debug$S                   0000000180000000     kernel32:KERNEL32.dll
 0000:fffba000       .debug$S                   0000000180000000     kernel32:KERNEL32.dll
 0000:fffba000       .debug$S                   0000000180000000     kernel32:KERNEL32.dll
 0000:fffba000       .debug$S                   0000000180000000     kernel32:KERNEL32.dll
 0000:fffba000       .debug$S                   0000000180000000     kernel32:KERNEL32.dll
 0000:fffba000       .debug$S                   0000000180000000     kernel32:KERNEL32.dll
 0000:fffba000       .debug$S                   0000000180000000     kernel32:KERNEL32.dll
 0000:fffba000       .debug$S                   0000000180000000     kernel32:KERNEL32.dll
 0000:fffba000       .debug$S                   0000000180000000     kernel32:KERNEL32.dll
 0000:fffba000       .debug$S                   0000000180000000     kernel32:KERNEL32.dll
 0000:fffba000       .debug$S                   0000000180000000     kernel32:KERNEL32.dll
 0000:fffba000       .debug$S                   0000000180000000     node:node.exe
 0000:fffba000       .debug$S                   0000000180000000     node:node.exe
 0000:fffba000       .debug$S                   0000000180000000     node:node.exe
 0000:fffba000       .debug$S                   0000000180000000     node:node.exe
 0000:fffba000       .debug$S                   0000000180000000     node:node.exe
 0000:fffba000       .debug$S                   0000000180000000     node:node.exe
 0000:fffba000       .debug$S                   0000000180000000     node:node.exe
 0000:fffba000       .debug$S                   0000000180000000     node:node.exe
 0000:fffba000       .debug$S                   0000000180000000     node:node.exe
 0000:fffba000       .debug$S                   0000000180000000     node:node.exe
 0000:fffba000       .debug$S                   0000000180000000     node:node.exe
 0000:fffba000       .debug$S                   0000000180000000     node:node.exe
 0000:fffba000       .debug$S                   0000000180000000     node:node.exe
 0000:fffba000       .debug$S                   0000000180000000     node:node.exe
 0000:fffba000       .debug$S                   0000000180000000     kernel32:KERNEL32.dll
 0001:00000000       ??__Einitlocks@std@@YAXXZ  0000000180001000 f   libcpmt:xlock.obj
 0001:00000020       ??__Ecout@std@@YAXXZ       0000000180001020 f   libcpmt:cout.obj
 0001:00000050       ??__Efout@std@@YAXXZ       0000000180001050 f   libcpmt:cout.obj
 0001:000000a0       ??__Einit_cout@std@@YAXXZ  00000001800010a0 f   libcpmt:cout.obj
 0001:000000ac       ??__Einitlocks@@YAXXZ      00000001800010ac f   libcpmt:cout.obj
 0001:000000cc       ??__E_Fac_tidy_reg@std@@YAXXZ 00000001800010cc f   libcpmt:locale0.obj
 0001:000000d8       ??__Eclassic_locale@std@@YAXXZ 00000001800010d8 f   libcpmt:locale0.obj
 0001:000000e4       ??__Ecin@std@@YAXXZ        00000001800010e4 f   libcpmt:cin.obj
 0001:00000114       ??__Efin@std@@YAXXZ        0000000180001114 f   libcpmt:cin.obj
 0001:00000164       ??__Einit_cin@std@@YAXXZ   0000000180001164 f   libcpmt:cin.obj
 0001:0000018c       ??__Einitlocks@@YAXXZ      000000018000118c f   libcpmt:cin.obj
 0001:000001ac       ??__Einit_atexit@@YAXXZ    00000001800011ac f   libcpmt:iosptrs.obj
 0001:000001b8       ??__Einitlocks@std@@YAXXZ  00000001800011b8 f   libcpmt:iosptrs.obj
 0001:00001380       _register_cio              0000000180002380 f   cio.obj
 0001:00006b00       ?load_exe_hook@@YAP6A_JXZIPEAUDelayLoadInfo@@@Z 0000000180007b00 f   win_delay_load_hook.obj
 0001:00008c50       tidy_global                0000000180009c50 f   libcpmt:locale0.obj
 0001:00009a40       ?initialize_pointers@@YAHXZ 000000018000aa40 f   libcpmt:winapisupp.obj
 0001:0000a150       $$000000                   000000018000b150     LIBCMT:_amdsecgs_.obj
 0001:0000a18c       ?__scrt_initialize_thread_safe_statics@@YAHXZ 000000018000b18c f   LIBCMT:thread_safe_statics.obj
 0001:0000a2ac       ?__scrt_uninitialize_thread_safe_statics@@YAXXZ 000000018000b2ac f   LIBCMT:thread_safe_statics.obj
 0001:0000a8b0       ?dllmain_crt_dispatch@@YAHQEAUHINSTANCE__@@KQEAX@Z 000000018000b8b0 f   LIBCMT:dll_dllmain.obj
 0001:0000a900       ?dllmain_crt_process_attach@@YAHQEAUHINSTANCE__@@QEAX@Z 000000018000b900 f   LIBCMT:dll_dllmain.obj
 0001:0000aa2c       ?dllmain_crt_process_detach@@YAH_N@Z 000000018000ba2c f   LIBCMT:dll_dllmain.obj
 0001:0000aab0       ?dllmain_dispatch@@YAHQEAUHINSTANCE__@@KQEAX@Z 000000018000bab0 f   LIBCMT:dll_dllmain.obj
 0001:0000aba8       ?dllmain_raw@@YAHQEAUHINSTANCE__@@KQEAX@Z 000000018000bba8 f   LIBCMT:dll_dllmain.obj
 0001:0000ad70       $$000000                   000000018000bd70     LIBCMT:_chkstk_.obj
 0001:0000af8c       capture_current_context    000000018000bf8c f   LIBCMT:gs_report.obj
 0001:0000affc       capture_previous_context   000000018000bffc f   LIBCMT:gs_report.obj
 0001:0000b5a0       $$000000                   000000018000c5a0     libvcruntime:memcpy.obj
 0001:0000b647       MoveSmall                  000000018000c647     libvcruntime:memcpy.obj
 0001:0000bb6c       ?CatchIt@@YAXPEAUEHExceptionRecord@@PEA_KPEAU_CONTEXT@@PEAU_xDISPATCHER_CONTEXT@@PEBU_s_FuncInfo@@PEBU_s_HandlerType@@PEBU_s_CatchableType@@PEBU_s_TryBlockMapEntry@@H1EE@Z 000000018000cb6c f   libvcruntime:frame.obj
 0001:0000bc30       ?ExFilterRethrow@@YAHPEAU_EXCEPTION_POINTERS@@PEAUEHExceptionRecord@@PEAH@Z 000000018000cc30 f   libvcruntime:frame.obj
 0001:0000bcb8       ?FindHandler@@YAXPEAUEHExceptionRecord@@PEA_KPEAU_CONTEXT@@PEAU_xDISPATCHER_CONTEXT@@PEBU_s_FuncInfo@@EH1@Z 000000018000ccb8 f   libvcruntime:frame.obj
 0001:0000c188       ?FindHandlerForForeignException@@YAXPEAUEHExceptionRecord@@PEA_KPEAU_CONTEXT@@PEAU_xDISPATCHER_CONTEXT@@PEBU_s_FuncInfo@@HH1@Z 000000018000d188 f   libvcruntime:frame.obj
 0001:0000c3f4       ?IsInExceptionSpec@@YAEPEAUEHExceptionRecord@@PEBU_s_ESTypeList@@@Z 000000018000d3f4 f   libvcruntime:frame.obj
 0001:0000d760       $$000000                   000000018000e760     libvcruntime:memset.obj
 0001:0000d84c       MsetTab                    000000018000e84c     libvcruntime:memset.obj
 0001:0000d910       $$000000                   000000018000e910     libvcruntime:memcmp.obj
 0001:0000d9e8       ?try_get_function@@YAPEAXW4function_id@?A0x679b24ab@@QEBDQEBW4module_id@2@2@Z 000000018000e9e8 f   libvcruntime:winapi_downlevel.obj
 0001:0000e3d0       $$000000                   000000018000f3d0     libvcruntime:handlers.obj
 0001:0000e420       $$000000                   000000018000f420     libvcruntime:_jmpuwind_.obj
 0001:0000e574       ??$common_strtod_l@MD@@YAMQEBDQEAPEADQEAU__crt_locale_pointers@@@Z 000000018000f574 f   libucrt:strtod.obj
 0001:0000e618       ??$common_strtod_l@ND@@YANQEBDQEAPEADQEAU__crt_locale_pointers@@@Z 000000018000f618 f   libucrt:strtod.obj
 0001:0000f2f4       ??R<lambda_40385e98d533db2d20b425b7120454e9>@@QEBA_NXZ 00000001800102f4 f   libucrt:strtod.obj
 0001:0000f2f4       ??R<lambda_abd75b4de29fe12b5de19178c3a83741>@@QEBA_NXZ 00000001800102f4 f   libucrt:strtod.obj
 0001:0000f2f4       ??R<lambda_e43ce5e7f5cdc2f75e08ba6b290a6899>@@QEBA_NXZ 00000001800102f4 f   libucrt:strtod.obj
 0001:00011c40       memcpy_s                   0000000180012c40 f   libucrt:strtod.obj
 0001:00012498       ?internal_isupper_l@@YA_NHQEAU__crt_locale_pointers@@@Z 0000000180013498 f   libucrt:tolower_toupper.obj
 0001:00012adc       common_flush_all           0000000180013adc f   libucrt:fflush.obj
 0001:00012ef0       ?common_fseek@@YAHV__crt_stdio_stream@@_JH@Z 0000000180013ef0 f   libucrt:fseek.obj
 0001:00012f5c       ?common_fseek_binary_mode_read_only_fast_track_nolock@@YA_NV__crt_stdio_stream@@_JH@Z 0000000180013f5c f   libucrt:fseek.obj
 0001:0001306c       ?common_fseek_nolock@@YAHV__crt_stdio_stream@@_JH@Z 000000018001406c f   libucrt:fseek.obj
 0001:000131ac       ??R<lambda_532e024f4337e6fc7ad266c2bef9f4ed>@@QEBA_KXZ 00000001800141ac f   libucrt:fwrite.obj
 0001:00013470       ??R<lambda_b721fa326cdb32351d23dfa67958c160>@@QEBAHXZ 0000000180014470 f   libucrt:setvbuf.obj
 0001:00013778       call_wsetlocale            0000000180014778 f   libucrt:setlocale.obj
 0001:000141c0       ?x_ismbbtype_l@@YAHPEAU__crt_locale_pointers@@IHH@Z 00000001800151c0 f   libucrt:ismbbyte.obj
 0001:00014330       $$000000                   0000000180015330     libucrt:pow.obj
 0001:000159d0       $$000000                   00000001800169d0     libucrt:powf.obj
 0001:00016d68       ?atexit_exception_filter@@YAHK@Z 0000000180017d68 f   libucrt:exit.obj
 0001:00016d74       ?common_exit@@YAXHW4_crt_exit_cleanup_mode@@W4_crt_exit_return_mode@@@Z 0000000180017d74 f   libucrt:exit.obj
 0001:00016ee0       ?exit_or_terminate_process@@YAXI@Z 0000000180017ee0 f   libucrt:exit.obj
 0001:00016f2c       ?try_cor_exit_process@@YAXI@Z 0000000180017f2c f   libucrt:exit.obj
 0001:00016fc4       ??$parse_command_line@D@@YAXPEADPEAPEAD0PEA_K2@Z 0000000180017fc4 f   libucrt:argv_parsing.obj
 0001:0001735c       ??$common_initialize_environment_nolock@D@@YAHXZ 000000018001835c f   libucrt:environment_initialization.obj
 0001:000173c8       ??$create_environment@D@@YAQEAPEADQEAD@Z 00000001800183c8 f   libucrt:environment_initialization.obj
 0001:000174c4       ??$free_environment@_W@@YAXQEAPEA_W@Z 00000001800184c4 f   libucrt:environment_initialization.obj
 0001:000174c4       ??$free_environment@D@@YAXQEAPEAD@Z 00000001800184c4 f   libucrt:environment_initialization.obj
 0001:00017508       ??$uninitialize_environment_internal@D@@YAXAEAPEAPEAD@Z 0000000180018508 f   libucrt:environment_initialization.obj
 0001:00017524       ??$uninitialize_environment_internal@_W@@YAXAEAPEAPEA_W@Z 0000000180018524 f   libucrt:environment_initialization.obj
 0001:0001775c       ??R<lambda_4e60a939b0d047cfe11ddc22648dfba9>@@QEBAHXZ 000000018001875c f   libucrt:onexit.obj
 0001:00017a0c       initialize_global_variables 0000000180018a0c f   libucrt:initialization.obj
 0001:00017a20       initialize_c               0000000180018a20 f   libucrt:initialization.obj
 0001:00017a44       initialize_global_state_isolation 0000000180018a44 f   libucrt:initialization.obj
 0001:00017a44       uninitialize_c             0000000180018a44 f   libucrt:initialization.obj
 0001:00017a44       initialize_environment     0000000180018a44 f   libucrt:initialization.obj
 0001:00017a44       report_memory_leaks        0000000180018a44 f   libucrt:initialization.obj
 0001:00017a44       uninitialize_global_state_isolation 0000000180018a44 f   libucrt:initialization.obj
 0001:00017a48       uninitialize_environment   0000000180018a48 f   libucrt:initialization.obj
 0001:00017a58       initialize_pointers        0000000180018a58 f   libucrt:initialization.obj
 0001:00017aac       uninitialize_vcruntime     0000000180018aac f   libucrt:initialization.obj
 0001:00017ab4       uninitialize_allocated_memory 0000000180018ab4 f   libucrt:initialization.obj
 0001:00018a08       ?construct_ptd_array@@YAXQEAU__acrt_ptd@@@Z 0000000180019a08 f   libucrt:per_thread_data.obj
 0001:00018ad8       ?destroy_fls@@YAXPEAX@Z    0000000180019ad8 f   libucrt:per_thread_data.obj
 0001:00018af8       ?destroy_ptd_array@@YAXQEAU__acrt_ptd@@@Z 0000000180019af8 f   libucrt:per_thread_data.obj
 0001:00018bf0       ?replace_current_thread_locale_nolock@@YAXQEAU__acrt_ptd@@QEAU__crt_locale_data@@@Z 0000000180019bf0 f   libucrt:per_thread_data.obj
 0001:00018eac       no_op_initialize           0000000180019eac f   libucrt:wsetlocale.obj
 0001:00019018       ??R<lambda_2af78c5f5901b1372d98f9ab3177dfa6>@@QEBAXXZ 000000018001a018 f   libucrt:wsetlocale.obj
 0001:000193dc       _copytlocinfo_nolock       000000018001a3dc f   libucrt:wsetlocale.obj
 0001:0001999c       _wsetlocale_get_all        000000018001a99c f   libucrt:wsetlocale.obj
 0001:00019b84       _wsetlocale_nolock         000000018001ab84 f   libucrt:wsetlocale.obj
 0001:00019e0c       _wsetlocale_set_cat        000000018001ae0c f   libucrt:wsetlocale.obj
 0001:0001ac90       ?__acrt_LCMapStringA_stat@@YAHPEAU__crt_locale_pointers@@PEB_WKPEBDHPEADHHH@Z 000000018001bc90 f   libucrt:lcmapstringa.obj
 0001:0001b084       ?<helper_func_cdecl>@<lambda_e2bb8337c48846e80c921ea5ddadc92d>@@CAHPEA_W@Z 000000018001c084 f   libucrt:winapi_thunks.obj
 0001:0001b160       ?try_get_function@@YAPEAXW4function_id@?A0x63058377@@QEBDQEBW4module_id@2@2@Z 000000018001c160 f   libucrt:winapi_thunks.obj
 0001:0001bb10       ?initialize_inherited_file_handles_nolock@@YAXXZ 000000018001cb10 f   libucrt:ioinit.obj
 0001:0001bbfc       ?initialize_stdio_handles_nolock@@YAXXZ 000000018001cbfc f   libucrt:ioinit.obj
 0001:0001c0d4       ?write_double_translated_ansi_nolock@@YA?AUwrite_result@?A0x9c548279@@HQEBDI@Z 000000018001d0d4 f   libucrt:write.obj
 0001:0001c2dc       ?write_text_ansi_nolock@@YA?AUwrite_result@?A0x9c548279@@HQEBDI@Z 000000018001d2dc f   libucrt:write.obj
 0001:0001c3e4       ?write_text_utf16le_nolock@@YA?AUwrite_result@?A0x9c548279@@HQEBDI@Z 000000018001d3e4 f   libucrt:write.obj
 0001:0001c500       ?write_text_utf8_nolock@@YA?AUwrite_result@?A0x9c548279@@HQEBDI@Z 000000018001d500 f   libucrt:write.obj
 0001:0001ca44       ??$common_refill_and_read_nolock@D@@YAHV__crt_stdio_stream@@@Z 000000018001da44 f   libucrt:_filbuf.obj
 0001:0001cbf4       ??$common_ftell@_J@@YA_JV__crt_stdio_stream@@@Z 000000018001dbf4 f   libucrt:ftell.obj
 0001:0001cc48       ??$common_ftell_nolock@_J@@YA_JV__crt_stdio_stream@@@Z 000000018001dc48 f   libucrt:ftell.obj
 0001:0001cdc0       ?common_ftell_read_mode_nolock@@YA_JV__crt_stdio_stream@@_J1@Z 000000018001ddc0 f   libucrt:ftell.obj
 0001:0001cf38       ?common_ftell_translated_utf8_nolock@@YA_JV__crt_stdio_stream@@_J@Z 000000018001df38 f   libucrt:ftell.obj
 0001:0001d0c0       ??$write_buffer_nolock@D@@YA_NDV__crt_stdio_stream@@@Z 000000018001e0c0 f   libucrt:_flsbuf.obj
 0001:0001d2ac       ??$common_lseek@_J@@YA_JH_JH@Z 000000018001e2ac f   libucrt:lseek.obj
 0001:0001d39c       ??$common_lseek_nolock@_J@@YA_JH_JH@Z 000000018001e39c f   libucrt:lseek.obj
 0001:0001d5b8       ?_mbstowcs_l_helper@@YA_KPEA_WPEBD_KPEAU__crt_locale_pointers@@@Z 000000018001e5b8 f   libucrt:mbstowcs.obj
 0001:0001d8e4       ?_wcstombs_l_helper@@YA_KPEADPEB_W_KPEAU__crt_locale_pointers@@@Z 000000018001e8e4 f   libucrt:wcstombs.obj
 0001:0001dd34       ?InternalGetLocaleInfoA@@YAHQEAU__crt_locale_pointers@@QEB_WKQEADH@Z 000000018001ed34 f   libucrt:getlocaleinfoa.obj
 0001:0001e868       ?<helper_func_cdecl>@<lambda_2feae5270eb4d0d5532525f423405775>@@CAHPEBX0@Z 000000018001f868 f   libucrt:argv_wildcards.obj
 0001:0001e87c       ??$common_expand_argv_wildcards@D@@YAHQEAPEADQEAPEAPEAD@Z 000000018001f87c f   libucrt:argv_wildcards.obj
 0001:0001ea88       ??$copy_and_add_argument_to_buffer@D@@YAHQEBD0_KAEAV?$argument_list@D@?A0xca0879c4@@@Z 000000018001fa88 f   libucrt:argv_wildcards.obj
 0001:0001eb98       ??$expand_argument_wildcards@D@@YAHQEAD0AEAV?$argument_list@D@?A0xca0879c4@@@Z 000000018001fb98 f   libucrt:argv_wildcards.obj
 0001:0001ee4c       ??R<lambda_ad1ced32f4ac17aa236e5ef05d6b3b7c>@@QEBAXXZ 000000018001fe4c f   libucrt:mbctype.obj
 0001:0001f064       ?getSystemCP@@YAHH@Z       0000000180020064 f   libucrt:mbctype.obj
 0001:0001f0e4       ?setSBCS@@YAXPEAU__crt_multibyte_data@@@Z 00000001800200e4 f   libucrt:mbctype.obj
 0001:0001f174       ?setSBUpLow@@YAXPEAU__crt_multibyte_data@@@Z 0000000180020174 f   libucrt:mbctype.obj
 0001:0001f358       ?setmbcp_internal@@YAHH_N@Z 0000000180020358 f   libucrt:mbctype.obj
 0001:00020974       ?free_crt_array_internal@@YAXQEAPEBX_K@Z 0000000180021974 f   libucrt:inittime.obj
 0001:000209cc       ?initialize_lc_time@@YA_NQEAU__crt_lc_time_data@@QEAU__crt_locale_data@@@Z 00000001800219cc f   libucrt:inittime.obj
 0001:000210bc       GetLocaleNameFromDefault   00000001800220bc f   libucrt:get_qualified_locale.obj
 0001:00021164       GetLocaleNameFromLangCountry 0000000180022164 f   libucrt:get_qualified_locale.obj
 0001:00021234       GetLocaleNameFromLanguage  0000000180022234 f   libucrt:get_qualified_locale.obj
 0001:000212d0       LangCountryEnumProcEx      00000001800222d0 f   libucrt:get_qualified_locale.obj
 0001:00021684       LanguageEnumProcEx         0000000180022684 f   libucrt:get_qualified_locale.obj
 0001:00021770       ProcessCodePage            0000000180022770 f   libucrt:get_qualified_locale.obj
 0001:00021824       TestDefaultCountry         0000000180022824 f   libucrt:get_qualified_locale.obj
 0001:0002188c       TranslateName              000000018002288c f   libucrt:get_qualified_locale.obj
 0001:00021b48       CountryEnumProc            0000000180022b48 f   libucrt:getqloc_downlevel.obj
 0001:00021c34       GetLcidFromLangCountry     0000000180022c34 f   libucrt:getqloc_downlevel.obj
 0001:00021d04       GetLcidFromLanguage        0000000180022d04 f   libucrt:getqloc_downlevel.obj
 0001:00021d9c       LangCountryEnumProc        0000000180022d9c f   libucrt:getqloc_downlevel.obj
 0001:00021fe0       LanguageEnumProc           0000000180022fe0 f   libucrt:getqloc_downlevel.obj
 0001:000220dc       LcidFromHexString          00000001800230dc f   libucrt:getqloc_downlevel.obj
 0001:0002212c       ProcessCodePage            000000018002312c f   libucrt:getqloc_downlevel.obj
 0001:000221dc       TestDefaultLanguage        00000001800231dc f   libucrt:getqloc_downlevel.obj
 0001:00022288       TranslateName              0000000180023288 f   libucrt:getqloc_downlevel.obj
 0001:000225b0       $$000000                   00000001800235b0     libucrt:fpsr.obj
 0001:00022610       ?GetTableIndexFromLocaleName@@YAHPEB_W@Z 0000000180023610 f   libucrt:lcidtoname_downlevel.obj
 0001:00022bc8       ??$translate_text_mode_nolock@_W@@YAHHQEA_W_K@Z 0000000180023bc8 f   libucrt:read.obj
 0001:00022df8       ?translate_ansi_or_utf8_nolock@@YAHHQEAD_KQEA_W1@Z 0000000180023df8 f   libucrt:read.obj
 0001:0002374c       _call_matherr              000000018002474c f   libucrt:libm_error.obj
 0001:000237b4       _exception_enabled         00000001800247b4 f   libucrt:libm_error.obj
 0001:00023bc0       ?shortsort@@YAXPEAD0_KP6AHPEBX2@Z@Z 0000000180024bc0 f   libucrt:qsort.obj
 0001:00024104       ?initialize_multibyte@@YAHXZ 0000000180025104 f   libucrt:multibyte_initializer.obj
 0001:00024164       common_control87           0000000180025164 f   libucrt:ieee.obj
 0001:000243fc       ??$common_xtox@K_W@@YAHKQEA_W_KI_N@Z 00000001800253fc f   libucrt:xtoa.obj
 0001:000244a8       ??$common_xtox_s@K_W@@YAHKQEA_W_KI_N@Z 00000001800254a8 f   libucrt:xtoa.obj
 0001:000247a0       $$000000                   00000001800257a0     libucrt:log10.obj
 0001:00024e00       _log_special_common        0000000180025e00 f   libucrt:log_special.obj
 0001:000256d0       $$000000                   00000001800266d0     LIBCMT:_guard_dispatch_.obj
 0001:000256f0       ?dtor$0@?0???$use_facet@V?$codecvt@DDU_Mbstatet@@@std@@@std@@YAAEBV?$codecvt@DDU_Mbstatet@@@0@AEBVlocale@0@@Z@4HA 00000001800266f0 f   libcpmt:cout.obj
 0001:000256fc       ?dtor$0@?0???0?$basic_ostream@DU?$char_traits@D@std@@@std@@QEAA@PEAV?$basic_streambuf@DU?$char_traits@D@std@@@1@_N@Z@4HA 00000001800266fc f   libcpmt:cout.obj
 0001:00025726       ?dtor$0@?0??_Endwrite@?$basic_filebuf@DU?$char_traits@D@std@@@std@@IEAA_NXZ@4HA 0000000180026726 f   libcpmt:cout.obj
 0001:00025732       ?dtor$0@?0??_Getcat@?$codecvt@DDU_Mbstatet@@@std@@SA_KPEAPEBVfacet@locale@2@PEBV42@@Z@4HA 0000000180026732 f   libcpmt:cout.obj
 0001:00025752       ?dtor$0@?0??uflow@?$basic_filebuf@DU?$char_traits@D@std@@@std@@MEAAHXZ@4HA 0000000180026752 f   libcpmt:cout.obj
 0001:00025752       ?dtor$0@?0??overflow@?$basic_filebuf@DU?$char_traits@D@std@@@std@@MEAAHH@Z@4HA 0000000180026752 f   libcpmt:cout.obj
 0001:0002575e       ?dtor$0@?0??_Locimp_dtor@_Locimp@locale@std@@CAXPEAV123@@Z@4HA 000000018002675e f   libcpmt:locale0.obj
 0001:0002575e       ?dtor$0@?0??_Init@locale@std@@CAPEAV_Locimp@12@_N@Z@4HA 000000018002675e f   libcpmt:locale0.obj
 0001:0002576a       ?dtor$0@?0???0?$basic_istream@DU?$char_traits@D@std@@@std@@QEAA@PEAV?$basic_streambuf@DU?$char_traits@D@std@@@1@_N@Z@4HA 000000018002676a f   libcpmt:cin.obj
 0001:00025794       __scrt_is_nonwritable_in_current_image$filt$0 0000000180026794 f   LIBCMT:utility.obj
 0001:000257ac       ?fin$0@?0??dllmain_crt_process_attach@@YAHQEAUHINSTANCE__@@QEAX@Z@4HA 00000001800267ac f   LIBCMT:dll_dllmain.obj
 0001:000257c3       ?fin$0@?0??dllmain_crt_process_detach@@YAH_N@Z@4HA 00000001800267c3 f   LIBCMT:dll_dllmain.obj
 0001:000257df       ?filt$0@?0??dllmain_dispatch@@YAHQEAUHINSTANCE__@@KQEAX@Z@4HA 00000001800267df f   LIBCMT:dll_dllmain.obj
 0001:00025815       __CxxCallCatchBlock$filt$0 0000000180026815 f   libvcruntime:frame.obj
 0001:0002583a       __CxxCallCatchBlock$fin$1  000000018002683a f   libvcruntime:frame.obj
 0001:000258b2       __DestructExceptionObject$filt$0 00000001800268b2 f   libvcruntime:frame.obj
 0001:000258ca       __FrameUnwindToState$filt$0 00000001800268ca f   libvcruntime:frame.obj
 0001:000258e0       __FrameUnwindToState$fin$1 00000001800268e0 f   libvcruntime:frame.obj
 0001:00025903       _CallSETranslator$filt$0   0000000180026903 f   libvcruntime:trnsctrl.obj
 0001:0002594f       fflush$fin$0               000000018002694f f   libucrt:fflush.obj
 0001:0002594f       fclose$fin$0               000000018002694f f   libucrt:fclose.obj
 0001:00025967       common_flush_all$fin$0     0000000180026967 f   libucrt:fflush.obj
 0001:00025981       common_flush_all$fin$1     0000000180026981 f   libucrt:fflush.obj
 0001:0002599a       fgetc$fin$0                000000018002699a f   libucrt:fgetc.obj
 0001:000259b4       fputc$fin$0                00000001800269b4 f   libucrt:fputc.obj
 0001:000259ce       ?fin$0@?0???$common_ftell@_J@@YA_JV__crt_stdio_stream@@@Z@4HA 00000001800269ce f   libucrt:ftell.obj
 0001:000259ce       ?fin$0@?0??common_fseek@@YAHV__crt_stdio_stream@@_JH@Z@4HA 00000001800269ce f   libucrt:fseek.obj
 0001:000259e8       ?fin$0@?0???$?RV<lambda_5d4c3fee44080f75d5d9762853974fe0>@@AEAV<lambda_532e024f4337e6fc7ad266c2bef9f4ed>@@V<lambda_c87bdc10097eb2402edb8ba9bdf0697b>@@@?$__crt_seh_guarded_call@_K@@QEAA_K$$QEAV<lambda_5d4c3fee44080f75d5d9762853974fe0>@@AEAV<lambda_532e024f4337e6fc7ad266c2bef9f4ed>@@$$QEAV<lambda_c87bdc10097eb2402edb8ba9bdf0697b>@@@Z@4HA 00000001800269e8 f   libucrt:fwrite.obj
 0001:000259e8       ?fin$0@?0???$?RV<lambda_7a5ef57ff966f610505f1d28a3d40618>@@AEAV<lambda_b721fa326cdb32351d23dfa67958c160>@@V<lambda_5e0fb27672408a07956fe59e48ccb2aa>@@@?$__crt_seh_guarded_call@H@@QEAAH$$QEAV<lambda_7a5ef57ff966f610505f1d28a3d40618>@@AEAV<lambda_b721fa326cdb32351d23dfa67958c160>@@$$QEAV<lambda_5e0fb27672408a07956fe59e48ccb2aa>@@@Z@4HA 00000001800269e8 f   libucrt:setvbuf.obj
 0001:00025a03       ungetc$fin$0               0000000180026a03 f   libucrt:ungetc.obj
 0001:00025a1b       setlocale$fin$0            0000000180026a1b f   libucrt:setlocale.obj
 0001:00025a36       _query_new_handler$fin$0   0000000180026a36 f   libucrt:new_handler.obj
 0001:00025a4c       ?filt$0@?0??common_exit@@YAXHW4_crt_exit_cleanup_mode@@W4_crt_exit_return_mode@@@Z@4HA 0000000180026a4c f   libucrt:exit.obj
 0001:00025a67       ?fin$1@?0??common_exit@@YAXHW4_crt_exit_cleanup_mode@@W4_crt_exit_return_mode@@@Z@4HA 0000000180026a67 f   libucrt:exit.obj
 0001:00025a80       ?fin$0@?0???$?RV<lambda_e24bbb7b643b32fcea6fa61b31d4c984>@@AEAV<lambda_275893d493268fdec8709772e3fcec0e>@@V<lambda_9d71df4d7cf3f480f8d633942495c3b0>@@@?$__crt_seh_guarded_call@H@@QEAAH$$QEAV<lambda_e24bbb7b643b32fcea6fa61b31d4c984>@@AEAV<lambda_275893d493268fdec8709772e3fcec0e>@@$$QEAV<lambda_9d71df4d7cf3f480f8d633942495c3b0>@@@Z@4HA 0000000180026a80 f   libucrt:onexit.obj
 0001:00025a9d       ?fin$0@?0???$?RV<lambda_72d1df2b273a38828b1ce30cbf4cdab5>@@AEAV<lambda_876a65b173b8412d3a47c70a915b0cf4>@@V<lambda_41932305e351933ebe8f8be3ed8bb5dc>@@@?$__crt_seh_guarded_call@X@@QEAAX$$QEAV<lambda_72d1df2b273a38828b1ce30cbf4cdab5>@@AEAV<lambda_876a65b173b8412d3a47c70a915b0cf4>@@$$QEAV<lambda_41932305e351933ebe8f8be3ed8bb5dc>@@@Z@4HA 0000000180026a9d f   libucrt:per_thread_data.obj
 0001:00025a9d       ?fin$0@?0???$?RV<lambda_c36588078e9f5dfd39652860aa6b3aaf>@@AEAV<lambda_ec61778202f4f5fc7e7711acc23c3bca>@@V<lambda_dc9d2797ccde5d239b4a0efae8ebd7db>@@@?$__crt_seh_guarded_call@P6AXH@Z@@QEAAP6AXH@Z$$QEAV<lambda_c36588078e9f5dfd39652860aa6b3aaf>@@AEAV<lambda_ec61778202f4f5fc7e7711acc23c3bca>@@$$QEAV<lambda_dc9d2797ccde5d239b4a0efae8ebd7db>@@@Z@4HA 0000000180026a9d f   libucrt:signal.obj
 0001:00025a9d       ?fin$0@?0???$?RV<lambda_5e887d1dcbef67a5eb4283622ba103bf>@@AEAV<lambda_4466841279450cc726390878d4a41900>@@V<lambda_341c25c0346d94847f1f3c463c57e077>@@@?$__crt_seh_guarded_call@X@@QEAAX$$QEAV<lambda_5e887d1dcbef67a5eb4283622ba103bf>@@AEAV<lambda_4466841279450cc726390878d4a41900>@@$$QEAV<lambda_341c25c0346d94847f1f3c463c57e077>@@@Z@4HA 0000000180026a9d f   libucrt:per_thread_data.obj
 0001:00025a9d       ?fin$0@?0???$?RV<lambda_630b2aca97f6d20d5b5ea6529ea6b6af>@@AEAV<lambda_af91936f1d075d609f72d9d8cba980af>@@V<lambda_e82fa975f615b5c7c7b0e4d178fdae67>@@@?$__crt_seh_guarded_call@H@@QEAAH$$QEAV<lambda_630b2aca97f6d20d5b5ea6529ea6b6af>@@AEAV<lambda_af91936f1d075d609f72d9d8cba980af>@@$$QEAV<lambda_e82fa975f615b5c7c7b0e4d178fdae67>@@@Z@4HA 0000000180026a9d f   libucrt:winapi_thunks.obj
 0001:00025a9d       ?fin$0@?0???$?RV<lambda_46352004c1216016012b18bd6f87e700>@@AEAV<lambda_3bd07e1a1191394380780325891bf33f>@@V<lambda_334532d3f185bcaa59b5be82d7d22bff>@@@?$__crt_seh_guarded_call@X@@QEAAX$$QEAV<lambda_46352004c1216016012b18bd6f87e700>@@AEAV<lambda_3bd07e1a1191394380780325891bf33f>@@$$QEAV<lambda_334532d3f185bcaa59b5be82d7d22bff>@@@Z@4HA 0000000180026a9d f   libucrt:per_thread_data.obj
 0001:00025a9d       ?fin$0@?0???$?RV<lambda_fb3a7dec4e47f37f22dae91bb15c9095>@@AEAV<lambda_698284760c8add0bfb0756c19673e34b>@@V<lambda_dfb8eca1e75fef3034a8fb18dd509707>@@@?$__crt_seh_guarded_call@X@@QEAAX$$QEAV<lambda_fb3a7dec4e47f37f22dae91bb15c9095>@@AEAV<lambda_698284760c8add0bfb0756c19673e34b>@@$$QEAV<lambda_dfb8eca1e75fef3034a8fb18dd509707>@@@Z@4HA 0000000180026a9d f   libucrt:per_thread_data.obj
 0001:00025a9d       ?fin$0@?0???$?RV<lambda_99476a1ad63dd22509b5d3e65b0ffc95>@@AEAV<lambda_ad1ced32f4ac17aa236e5ef05d6b3b7c>@@V<lambda_f7424dd8d45958661754dc4f2697e9c3>@@@?$__crt_seh_guarded_call@X@@QEAAX$$QEAV<lambda_99476a1ad63dd22509b5d3e65b0ffc95>@@AEAV<lambda_ad1ced32f4ac17aa236e5ef05d6b3b7c>@@$$QEAV<lambda_f7424dd8d45958661754dc4f2697e9c3>@@@Z@4HA 0000000180026a9d f   libucrt:mbctype.obj
 0001:00025a9d       ?fin$0@?0???$?RV<lambda_d67e8342c384adda8f857579ab50b2ae>@@AEAV<lambda_30712929f77e709619002f448b6a9510>@@V<lambda_4525336fd7e478d965fb7ca7a337cad8>@@@?$__crt_seh_guarded_call@X@@QEAAX$$QEAV<lambda_d67e8342c384adda8f857579ab50b2ae>@@AEAV<lambda_30712929f77e709619002f448b6a9510>@@$$QEAV<lambda_4525336fd7e478d965fb7ca7a337cad8>@@@Z@4HA 0000000180026a9d f   libucrt:wsetlocale.obj
 0001:00025a9d       ?fin$0@?0???$?RV<lambda_b8c45f8f788dd370798f47cfe8ac3a86>@@AEAV<lambda_4e60a939b0d047cfe11ddc22648dfba9>@@V<lambda_332c3edc96d0294ec56c57d38c1cdfd5>@@@?$__crt_seh_guarded_call@H@@QEAAH$$QEAV<lambda_b8c45f8f788dd370798f47cfe8ac3a86>@@AEAV<lambda_4e60a939b0d047cfe11ddc22648dfba9>@@$$QEAV<lambda_332c3edc96d0294ec56c57d38c1cdfd5>@@@Z@4HA 0000000180026a9d f   libucrt:onexit.obj
 0001:00025ab7       raise$fin$0                0000000180026ab7 f   libucrt:signal.obj
 0001:00025adb       ?fin$0@?0???$?RV<lambda_5df02c53a8f32f81fd64e5bbb78039f1>@@AEAV<lambda_2af78c5f5901b1372d98f9ab3177dfa6>@@AEAV<lambda_f51fe5fd7c79a33db34fc9310f277369>@@@?$__crt_seh_guarded_call@X@@QEAAX$$QEAV<lambda_5df02c53a8f32f81fd64e5bbb78039f1>@@AEAV<lambda_2af78c5f5901b1372d98f9ab3177dfa6>@@AEAV<lambda_f51fe5fd7c79a33db34fc9310f277369>@@@Z@4HA 0000000180026adb f   libucrt:wsetlocale.obj
 0001:00025afc       __acrt_uninitialize_locale$fin$0 0000000180026afc f   libucrt:wsetlocale.obj
 0001:00025afc       __acrt_update_thread_locale_data$fin$0 0000000180026afc f   libucrt:locale_refcounting.obj
 0001:00025b15       _ctrlfp$filt$0             0000000180026b15 f   libucrt:fpctrl.obj
 0001:00025b15       common_control87$filt$0    0000000180026b15 f   libucrt:ieee.obj
 0001:00025b41       _fcloseall$fin$0           0000000180026b41 f   libucrt:closeall.obj
 0001:00025b5a       __acrt_initialize_lowio$fin$0 0000000180026b5a f   libucrt:ioinit.obj
 0001:00025b5a       __acrt_lowio_ensure_fh_exists$fin$0 0000000180026b5a f   libucrt:osfinfo.obj
 0001:00025b73       ?fin$0@?0???$?RV<lambda_b521505b218e5242e90febf6bfebc422>@@AEAV<lambda_6978c1fb23f02e42e1d9e99668cc68aa>@@V<lambda_314360699dd331753a4119843814e9a7>@@@?$__crt_seh_guarded_call@H@@QEAAH$$QEAV<lambda_b521505b218e5242e90febf6bfebc422>@@AEAV<lambda_6978c1fb23f02e42e1d9e99668cc68aa>@@$$QEAV<lambda_314360699dd331753a4119843814e9a7>@@@Z@4HA 0000000180026b73 f   libucrt:commit.obj
 0001:00025b73       ?fin$0@?0???$?RV<lambda_bfedae4ebbf01fab1bb6dcc6a9e276e0>@@AEAV<lambda_2fe9b910cf3cbf4a0ab98a02ba45b3ec>@@V<lambda_237c231691f317818eb88cc1d5d642d6>@@@?$__crt_seh_guarded_call@H@@QEAAH$$QEAV<lambda_bfedae4ebbf01fab1bb6dcc6a9e276e0>@@AEAV<lambda_2fe9b910cf3cbf4a0ab98a02ba45b3ec>@@$$QEAV<lambda_237c231691f317818eb88cc1d5d642d6>@@@Z@4HA 0000000180026b73 f   libucrt:close.obj
 0001:00025b8d       __acrt_update_thread_multibyte_data$fin$0 0000000180026b8d f   libucrt:mbctype.obj
 0001:00025ba6       ?fin$0@?0???$common_lseek@_J@@YA_JH_JH@Z@4HA 0000000180026ba6 f   libucrt:lseek.obj
 0001:00025ba6       _read$fin$0                0000000180026ba6 f   libucrt:read.obj
 0001:00025ba6       _write$fin$0               0000000180026ba6 f   libucrt:write.obj
 0001:00025bc0       _IsNonwritableInCurrentImage$filt$0 0000000180026bc0 f   LIBCMT:pesect.obj
 0001:00025be4       ??__Finitlocks@std@@YAXXZ  0000000180026be4 f   libcpmt:xlock.obj
 0001:00025bf0       ??__Fcout@std@@YAXXZ       0000000180026bf0 f   libcpmt:cout.obj
 0001:00025c50       ??__Ffout@std@@YAXXZ       0000000180026c50 f   libcpmt:cout.obj
 0001:00025c5c       ??__Finitlocks@@YAXXZ      0000000180026c5c f   libcpmt:cout.obj
 0001:00025c68       ??__F_Fac_tidy_reg@std@@YAXXZ 0000000180026c68 f   libcpmt:locale0.obj
 0001:00025c94       ??__Fclassic_locale@std@@YAXXZ 0000000180026c94 f   libcpmt:locale0.obj
 0001:00025cf4       ??__Fcin@std@@YAXXZ        0000000180026cf4 f   libcpmt:cin.obj
 0001:00025d54       ??__Ffin@std@@YAXXZ        0000000180026d54 f   libcpmt:cin.obj
 0001:00025d60       ??__Finitlocks@@YAXXZ      0000000180026d60 f   libcpmt:cin.obj
 0001:00025d6c       ??__Finit_atexit@@YAXXZ    0000000180026d6c f   libcpmt:iosptrs.obj
 0001:00025dc0       ??__Finitlocks@std@@YAXXZ  0000000180026dc0 f   libcpmt:iosptrs.obj
 0002:000002c0       ?initlocks$initializer$@std@@3P6AXXZEA 00000001800272c0     libcpmt:xlock.obj
 0002:000002c8       ?initlocks$initializer$@@3P6AXXZEA 00000001800272c8     libcpmt:cout.obj
 0002:000002d0       ?fout$initializer$@std@@3P6AXXZEA 00000001800272d0     libcpmt:cout.obj
 0002:000002d8       ?cout$initializer$@std@@3P6AXXZEA 00000001800272d8     libcpmt:cout.obj
 0002:000002e0       ?init_cout$initializer$@std@@3P6AXXZEA 00000001800272e0     libcpmt:cout.obj
 0002:000002e8       ?initlocks$initializer$@@3P6AXXZEA 00000001800272e8     libcpmt:cin.obj
 0002:000002f0       ?fin$initializer$@std@@3P6AXXZEA 00000001800272f0     libcpmt:cin.obj
 0002:000002f8       ?cin$initializer$@std@@3P6AXXZEA 00000001800272f8     libcpmt:cin.obj
 0002:00000300       ?init_cin$initializer$@std@@3P6AXXZEA 0000000180027300     libcpmt:cin.obj
 0002:00000308       ?initlocks$initializer$@std@@3P6AXXZEA 0000000180027308     libcpmt:iosptrs.obj
 0002:00000310       ?init_atexit$initializer$@@3P6AXXZEA 0000000180027310     libcpmt:iosptrs.obj
 0002:00000318       ?_Fac_tidy_reg$initializer$@std@@3P6AXXZEA 0000000180027318     libcpmt:locale0.obj
 0002:00000320       ?classic_locale$initializer$@std@@3P6AXXZEA 0000000180027320     libcpmt:locale0.obj
 0002:00000340       ?pinit@@3P6AHXZEA          0000000180027340     libcpmt:winapisupp.obj
 0002:00000348       ?__scrt_initialize_tss_var@@3P6AHXZEA 0000000180027348     LIBCMT:thread_safe_statics.obj
 0002:000003d0       digits                     00000001800273d0     libcpmt:xstoul.obj
 0002:000003f8       ndigs                      00000001800273f8     libcpmt:xstoul.obj
 0002:00000420       $cppxdata$??_Glocale@std@@QEAAPEAXI@Z 0000000180027420     libcpmt:cout.obj
 0002:00000448       $cppxdata$?_Init@ios_base@std@@IEAAXXZ 0000000180027448     libcpmt:cout.obj
 0002:00000470       $cppxdata$??_Gios_base@std@@UEAAPEAXI@Z 0000000180027470     libcpmt:cout.obj
 0002:00000498       $cppxdata$??0?$basic_streambuf@DU?$char_traits@D@std@@@std@@IEAA@XZ 0000000180027498     libcpmt:cout.obj
 0002:000004c0       $cppxdata$??1?$basic_filebuf@DU?$char_traits@D@std@@@std@@UEAA@XZ 00000001800274c0     libcpmt:cout.obj
 0002:000004e8       $cppxdata$?overflow@?$basic_filebuf@DU?$char_traits@D@std@@@std@@MEAAHH@Z 00000001800274e8     libcpmt:cout.obj
 0002:00000510       $cppxdata$?uflow@?$basic_filebuf@DU?$char_traits@D@std@@@std@@MEAAHXZ 0000000180027510     libcpmt:cout.obj
 0002:00000538       $cppxdata$?_Endwrite@?$basic_filebuf@DU?$char_traits@D@std@@@std@@IEAA_NXZ 0000000180027538     libcpmt:cout.obj
 0002:00000560       $cppxdata$??1?$basic_ios@DU?$char_traits@D@std@@@std@@UEAA@XZ 0000000180027560     libcpmt:cout.obj
 0002:00000588       $cppxdata$??_G?$basic_ios@DU?$char_traits@D@std@@@std@@UEAAPEAXI@Z 0000000180027588     libcpmt:cout.obj
 0002:000005b0       $cppxdata$??0?$basic_ostream@DU?$char_traits@D@std@@@std@@QEAA@PEAV?$basic_streambuf@DU?$char_traits@D@std@@@1@_N@Z 00000001800275b0     libcpmt:cout.obj
 0002:000005d8       $cppxdata$??_G?$basic_ostream@DU?$char_traits@D@std@@@std@@UEAAPEAXI@Z 00000001800275d8     libcpmt:cout.obj
 0002:00000600       $cppxdata$??__Fcout@std@@YAXXZ 0000000180027600     libcpmt:cout.obj
 0002:00000628       $cppxdata$??$use_facet@V?$codecvt@DDU_Mbstatet@@@std@@@std@@YAAEBV?$codecvt@DDU_Mbstatet@@@0@AEBVlocale@0@@Z 0000000180027628     libcpmt:cout.obj
 0002:00000650       $cppxdata$?_Getcat@?$codecvt@DDU_Mbstatet@@@std@@SA_KPEAPEBVfacet@locale@2@PEBV42@@Z 0000000180027650     libcpmt:cout.obj
 0002:00000998       $cppxdata$??_G_Fac_node@std@@QEAAPEAXI@Z 0000000180027998     libcpmt:locale0.obj
 0002:000009c0       $cppxdata$?_Locimp_dtor@_Locimp@locale@std@@CAXPEAV123@@Z 00000001800279c0     libcpmt:locale0.obj
 0002:000009e8       $cppxdata$??_G_Locimp@locale@std@@MEAAPEAXI@Z 00000001800279e8     libcpmt:locale0.obj
 0002:00000a10       $cppxdata$?_Init@locale@std@@CAPEAV_Locimp@12@_N@Z 0000000180027a10     libcpmt:locale0.obj
 0002:00000a38       $cppxdata$??__Fclassic_locale@std@@YAXXZ 0000000180027a38     libcpmt:locale0.obj
 0002:00000a88       $cppxdata$??0?$basic_istream@DU?$char_traits@D@std@@@std@@QEAA@PEAV?$basic_streambuf@DU?$char_traits@D@std@@@1@_N@Z 0000000180027a88     libcpmt:cin.obj
 0002:00000ab0       $cppxdata$??_G?$basic_istream@DU?$char_traits@D@std@@@std@@UEAAPEAXI@Z 0000000180027ab0     libcpmt:cin.obj
 0002:00000ad8       $cppxdata$??__Fcin@std@@YAXXZ 0000000180027ad8     libcpmt:cin.obj
 0002:00000b90       ?_Win_errtab@std@@3QBU_Win_errtab_t@1@B 0000000180027b90     libcpmt:syserror.obj
 0002:00000de0       ?_Sys_errtab@std@@3QBU_Sys_errtab_t@1@B 0000000180027de0     libcpmt:syserror.obj
 0002:00001980       digits                     0000000180028980     libcpmt:xstoull.obj
 0002:000019a8       ndigs                      00000001800289a8     libcpmt:xstoull.obj
 0002:000019d8       $cppxdata$??__Finit_atexit@@YAXXZ 00000001800289d8     libcpmt:iosptrs.obj
 0002:00002500       ?LcidToLocaleNameTable@@3QBULcidToLocaleName@@B 0000000180029500     libcpmt:winapinls.obj
 0002:00003340       ?LocaleNameToIndexTable@@3QBULocaleNameIndex@@B 000000018002a340     libcpmt:winapinls.obj
 0002:00005228       GS_ExceptionPointers       000000018002c228     LIBCMT:gs_report.obj
 0002:000052a0       ?ExceptionTemplate@?1??_CxxThrowException@@9@4UEHExceptionRecord@@B 000000018002c2a0     libvcruntime:throw.obj
 0002:000052e0       ?ExceptionTemplate@?1??_UnwindNestedFrames@@9@4U_EXCEPTION_RECORD@@B 000000018002c2e0     libvcruntime:trnsctrl.obj
 0002:00005378       ?module_names@?A0x679b24ab@@3QBQEB_WB 000000018002c378     libvcruntime:winapi_downlevel.obj
 0002:00005448       ?candidate_modules@?1??try_get_FlsAlloc@@YAP6AKP6AXPEAX@Z@ZXZ@4QBW4module_id@?A0x679b24ab@@B 000000018002c448     libvcruntime:winapi_downlevel.obj
 0002:00005450       ?candidate_modules@?1??try_get_FlsFree@@YAP6AHK@ZXZ@4QBW4module_id@?A0x679b24ab@@B 000000018002c450     libvcruntime:winapi_downlevel.obj
 0002:00005458       ?candidate_modules@?1??try_get_FlsGetValue@@YAP6APEAXK@ZXZ@4QBW4module_id@?A0x679b24ab@@B 000000018002c458     libvcruntime:winapi_downlevel.obj
 0002:00005460       ?candidate_modules@?1??try_get_FlsSetValue@@YAP6AHKPEAX@ZXZ@4QBW4module_id@?A0x679b24ab@@B 000000018002c460     libvcruntime:winapi_downlevel.obj
 0002:00005468       ?candidate_modules@?1??try_get_InitializeCriticalSectionEx@@YAP6AHPEAU_RTL_CRITICAL_SECTION@@KK@ZXZ@4QBW4module_id@?A0x679b24ab@@B 000000018002c468     libvcruntime:winapi_downlevel.obj
 0002:00005470       ?tokenTable@@3QBQEBDB      000000018002c470     libvcruntime:undname.obj
 0002:000054e0       ?nameTable@@3QBQEBDB       000000018002c4e0     libvcruntime:undname.obj
 0002:00005768       ?rttiTable@@3QBQEBDB       000000018002c768     libvcruntime:undname.obj
 0002:00006950       errtable                   000000018002d950     libucrt:errno.obj
 0002:000072e0       __flag_x_one_y_snan        000000018002e2e0     libucrt:pow.obj
 0002:000072e4       __flag_x_zero_z_inf        000000018002e2e4     libucrt:pow.obj
 0002:000072e8       __flag_x_nan               000000018002e2e8     libucrt:pow.obj
 0002:000072ec       __flag_y_nan               000000018002e2ec     libucrt:pow.obj
 0002:000072f0       __flag_x_nan_y_nan         000000018002e2f0     libucrt:pow.obj
 0002:000072f4       __flag_x_neg_y_notint      000000018002e2f4     libucrt:pow.obj
 0002:000072f8       __flag_z_zero              000000018002e2f8     libucrt:pow.obj
 0002:000072fc       __flag_z_denormal          000000018002e2fc     libucrt:pow.obj
 0002:00007300       __flag_z_inf               000000018002e300     libucrt:pow.obj
 0002:00007310       __ay_max_bound             000000018002e310     libucrt:pow.obj
 0002:00007318       __ay_min_bound             000000018002e318     libucrt:pow.obj
 0002:00007320       __sign_mask                000000018002e320     libucrt:pow.obj
 0002:00007328       __sign_and_exp_mask        000000018002e328     libucrt:pow.obj
 0002:00007330       __exp_mask                 000000018002e330     libucrt:pow.obj
 0002:00007338       __neg_inf                  000000018002e338     libucrt:pow.obj
 0002:00007340       __pos_inf                  000000018002e340     libucrt:pow.obj
 0002:00007348       __pos_one                  000000018002e348     libucrt:pow.obj
 0002:00007350       __pos_zero                 000000018002e350     libucrt:pow.obj
 0002:00007358       __exp_mant_mask            000000018002e358     libucrt:pow.obj
 0002:00007360       __mant_mask                000000018002e360     libucrt:pow.obj
 0002:00007368       __ind_pattern              000000018002e368     libucrt:pow.obj
 0002:00007370       __neg_qnan                 000000018002e370     libucrt:pow.obj
 0002:00007378       __qnan                     000000018002e378     libucrt:pow.obj
 0002:00007380       __qnan_set                 000000018002e380     libucrt:pow.obj
 0002:00007388       __neg_one                  000000018002e388     libucrt:pow.obj
 0002:00007390       __neg_zero                 000000018002e390     libucrt:pow.obj
 0002:00007398       __exp_shift                000000018002e398     libucrt:pow.obj
 0002:000073a0       __exp_bias                 000000018002e3a0     libucrt:pow.obj
 0002:000073a8       __exp_bias_m1              000000018002e3a8     libucrt:pow.obj
 0002:000073b0       __yexp_53                  000000018002e3b0     libucrt:pow.obj
 0002:000073b8       __mant_full                000000018002e3b8     libucrt:pow.obj
 0002:000073c0       __1_before_mant            000000018002e3c0     libucrt:pow.obj
 0002:000073c8       __mask_mant_all8           000000018002e3c8     libucrt:pow.obj
 0002:000073d0       __mask_mant9               000000018002e3d0     libucrt:pow.obj
 0002:000073e0       __real_fffffffff8000000    000000018002e3e0     libucrt:pow.obj
 0002:000073f0       __mask_8000000000000000    000000018002e3f0     libucrt:pow.obj
 0002:00007400       __real_4090040000000000    000000018002e400     libucrt:pow.obj
 0002:00007410       __real_C090C80000000000    000000018002e410     libucrt:pow.obj
 0002:00007420       __real_ninf                000000018002e420     libucrt:pow.obj
 0002:00007430       __real_inf                 000000018002e430     libucrt:pow.obj
 0002:00007440       __real_nan                 000000018002e440     libucrt:pow.obj
 0002:00007450       __real_mant                000000018002e450     libucrt:pow.obj
 0002:00007460       __mask_1023                000000018002e460     libucrt:pow.obj
 0002:00007470       __mask_001                 000000018002e470     libucrt:pow.obj
 0002:00007480       __real_log2_lead           000000018002e480     libucrt:pow.obj
 0002:00007490       __real_log2_tail           000000018002e490     libucrt:pow.obj
 0002:000074a0       __real_two                 000000018002e4a0     libucrt:pow.obj
 0002:000074b0       __real_one                 000000018002e4b0     libucrt:pow.obj
 0002:000074c0       __real_half                000000018002e4c0     libucrt:pow.obj
 0002:000074d0       __mask_100                 000000018002e4d0     libucrt:pow.obj
 0002:000074e0       __real_1_over_2            000000018002e4e0     libucrt:pow.obj
 0002:000074f0       __real_1_over_3            000000018002e4f0     libucrt:pow.obj
 0002:00007500       __real_1_over_4            000000018002e500     libucrt:pow.obj
 0002:00007510       __real_1_over_5            000000018002e510     libucrt:pow.obj
 0002:00007520       __real_1_over_6            000000018002e520     libucrt:pow.obj
 0002:00007530       __real_1_over_7            000000018002e530     libucrt:pow.obj
 0002:00007540       __mask_1023_f              000000018002e540     libucrt:pow.obj
 0002:00007550       __mask_2045                000000018002e550     libucrt:pow.obj
 0002:00007560       __real_threshold           000000018002e560     libucrt:pow.obj
 0002:00007570       __real_notsign             000000018002e570     libucrt:pow.obj
 0002:00007580       __log_F_inv_head           000000018002e580     libucrt:pow.obj
 0002:00007d90       __log_F_inv_tail           000000018002ed90     libucrt:pow.obj
 0002:000085a0       __denormal_threshold       000000018002f5a0     libucrt:pow.obj
 0002:000085b0       __enable_almost_inf        000000018002f5b0     libucrt:pow.obj
 0002:000085c0       __real_zero                000000018002f5c0     libucrt:pow.obj
 0002:000085d0       __real_smallest_denormal   000000018002f5d0     libucrt:pow.obj
 0002:000085e0       __denormal_tiny_threshold  000000018002f5e0     libucrt:pow.obj
 0002:000085f0       __real_p65536              000000018002f5f0     libucrt:pow.obj
 0002:00008600       __real_m68800              000000018002f600     libucrt:pow.obj
 0002:00008610       __real_64_by_log2          000000018002f610     libucrt:pow.obj
 0002:00008620       __real_log2_by_64_head     000000018002f620     libucrt:pow.obj
 0002:00008630       __real_log2_by_64_tail     000000018002f630     libucrt:pow.obj
 0002:00008640       __real_1_by_720            000000018002f640     libucrt:pow.obj
 0002:00008650       __real_1_by_120            000000018002f650     libucrt:pow.obj
 0002:00008660       __real_1_by_24             000000018002f660     libucrt:pow.obj
 0002:00008670       __real_1_by_6              000000018002f670     libucrt:pow.obj
 0002:00008680       __real_1_by_2              000000018002f680     libucrt:pow.obj
 0002:00008690       __flag_x_one_y_snan        000000018002f690     libucrt:powf.obj
 0002:00008694       __flag_x_zero_z_inf        000000018002f694     libucrt:powf.obj
 0002:00008698       __flag_x_nan               000000018002f698     libucrt:powf.obj
 0002:0000869c       __flag_y_nan               000000018002f69c     libucrt:powf.obj
 0002:000086a0       __flag_x_nan_y_nan         000000018002f6a0     libucrt:powf.obj
 0002:000086a4       __flag_x_neg_y_notint      000000018002f6a4     libucrt:powf.obj
 0002:000086a8       __flag_z_zero              000000018002f6a8     libucrt:powf.obj
 0002:000086ac       __flag_z_denormal          000000018002f6ac     libucrt:powf.obj
 0002:000086b0       __flag_z_inf               000000018002f6b0     libucrt:powf.obj
 0002:000086b4       L__1_by_3                  000000018002f6b4     libucrt:powf.obj
 0002:000086bc       L__log2                    000000018002f6bc     libucrt:powf.obj
 0002:000086c4       L__max_exp_arg             000000018002f6c4     libucrt:powf.obj
 0002:000086cc       L__min_exp_arg             000000018002f6cc     libucrt:powf.obj
 0002:000086d4       L__real_log2_by_64         000000018002f6d4     libucrt:powf.obj
 0002:000086dc       L__1_by_6                  000000018002f6dc     libucrt:powf.obj
 0002:000086e4       L__real_threshold          000000018002f6e4     libucrt:powf.obj
 0002:000086ec       L__real_one                000000018002f6ec     libucrt:powf.obj
 0002:000086f4       L__real_two                000000018002f6f4     libucrt:powf.obj
 0002:000086fc       L__neg_zero                000000018002f6fc     libucrt:powf.obj
 0002:00008710       L__real_ca42               000000018002f710     libucrt:powf.obj
 0002:00008718       L__real_ca4                000000018002f718     libucrt:powf.obj
 0002:00008720       L__real_ca31               000000018002f720     libucrt:powf.obj
 0002:00008728       L__real_ca3                000000018002f728     libucrt:powf.obj
 0002:00008730       L__clear_sign              000000018002f730     libucrt:powf.obj
 0002:00008740       L__real_64_by_log2         000000018002f740     libucrt:powf.obj
 0002:00008750       L__1_by_2                  000000018002f750     libucrt:powf.obj
 0002:00008760       L__1023                    000000018002f760     libucrt:powf.obj
 0002:00008770       L__xexp_bits_xmantissa_bits 000000018002f770     libucrt:powf.obj
 0002:00009090       __acrt_initializers        0000000180030090     libucrt:initialization.obj
 0002:00009290       _first_127char             0000000180030290     libucrt:wsetlocale.obj
 0002:000099c0       ?_names@?1??_get_fname@@9@9 00000001800309c0     libucrt:fpexcept.obj
 0002:00009c60       module_names               0000000180030c60     libucrt:winapi_thunks.obj
 0002:0000a190       ?candidate_modules@?1??try_get_CompareStringEx@@YAP6AHPEB_WK0H0HPEAU_nlsversioninfo@@PEAX_J@ZXZ@4QBW4module_id@?A0x63058377@@B 0000000180031190     libucrt:winapi_thunks.obj
 0002:0000a198       ?candidate_modules@?1??try_get_EnumSystemLocalesEx@@YAP6AHP6AHPEA_WK_J@ZK1PEAX@ZXZ@4QBW4module_id@?A0x63058377@@B 0000000180031198     libucrt:winapi_thunks.obj
 0002:0000a1b8       ?candidate_modules@?1??try_get_FlsAlloc@@YAP6AKP6AXPEAX@Z@ZXZ@4QBW4module_id@?A0x63058377@@B 00000001800311b8     libucrt:winapi_thunks.obj
 0002:0000a1c0       ?candidate_modules@?1??try_get_FlsFree@@YAP6AHK@ZXZ@4QBW4module_id@?A0x63058377@@B 00000001800311c0     libucrt:winapi_thunks.obj
 0002:0000a1c8       ?candidate_modules@?1??try_get_FlsGetValue@@YAP6APEAXK@ZXZ@4QBW4module_id@?A0x63058377@@B 00000001800311c8     libucrt:winapi_thunks.obj
 0002:0000a1d0       ?candidate_modules@?1??try_get_FlsSetValue@@YAP6AHKPEAX@ZXZ@4QBW4module_id@?A0x63058377@@B 00000001800311d0     libucrt:winapi_thunks.obj
 0002:0000a1d8       ?candidate_modules@?1??try_get_GetCurrentPackageId@@YAP6AJPEAIPEAE@ZXZ@4QBW4module_id@?A0x63058377@@B 00000001800311d8     libucrt:winapi_thunks.obj
 0002:0000a1e0       ?candidate_modules@?1??try_get_GetLocaleInfoEx@@YAP6AHPEB_WKPEA_WH@ZXZ@4QBW4module_id@?A0x63058377@@B 00000001800311e0     libucrt:winapi_thunks.obj
 0002:0000a1e8       ?candidate_modules@?1??try_get_GetUserDefaultLocaleName@@YAP6AHPEA_WH@ZXZ@4QBW4module_id@?A0x63058377@@B 00000001800311e8     libucrt:winapi_thunks.obj
 0002:0000a210       ?candidate_modules@?1??try_get_InitializeCriticalSectionEx@@YAP6AHPEAU_RTL_CRITICAL_SECTION@@KK@ZXZ@4QBW4module_id@?A0x63058377@@B 0000000180031210     libucrt:winapi_thunks.obj
 0002:0000a218       ?candidate_modules@?1??try_get_IsValidLocaleName@@YAP6AHPEB_W@ZXZ@4QBW4module_id@?A0x63058377@@B 0000000180031218     libucrt:winapi_thunks.obj
 0002:0000a238       ?candidate_modules@?1??try_get_LCMapStringEx@@YAP6AHPEB_WK0HPEA_WHPEAU_nlsversioninfo@@PEAX_J@ZXZ@4QBW4module_id@?A0x63058377@@B 0000000180031238     libucrt:winapi_thunks.obj
 0002:0000a240       ?candidate_modules@?1??try_get_LCIDToLocaleName@@YAP6AHKPEA_WHK@ZXZ@4QBW4module_id@?A0x63058377@@B 0000000180031240     libucrt:winapi_thunks.obj
 0002:0000a260       ?candidate_modules@?1??try_get_LocaleNameToLCID@@YAP6AKPEB_WK@ZXZ@4QBW4module_id@?A0x63058377@@B 0000000180031260     libucrt:winapi_thunks.obj
 0002:0000c0c0       _mb_locale_names           00000001800330c0     libucrt:mbctype.obj
 0002:0000d0b0       __real@433fffffffffffff    00000001800340b0     libucrt:fpsr.obj
 0002:0000d0b8       __real@c33fffffffffffff    00000001800340b8     libucrt:fpsr.obj
 0002:0000d0c0       LcidToLocaleNameTable      00000001800340c0     libucrt:lcidtoname_downlevel.obj
 0002:0000df00       LocaleNameToIndexTable     0000000180034f00     libucrt:lcidtoname_downlevel.obj
 0002:0000ed50       __real_ninf                0000000180035d50     libucrt:log10.obj
 0002:0000ed60       __real_inf                 0000000180035d60     libucrt:log10.obj
 0002:0000ed70       __real_neg_qnan            0000000180035d70     libucrt:log10.obj
 0002:0000ed80       __real_qnanbit             0000000180035d80     libucrt:log10.obj
 0002:0000ed90       __int_1023                 0000000180035d90     libucrt:log10.obj
 0002:0000eda0       __mask_001                 0000000180035da0     libucrt:log10.obj
 0002:0000edb0       __mask_mant                0000000180035db0     libucrt:log10.obj
 0002:0000edc0       __mask_mant_top8           0000000180035dc0     libucrt:log10.obj
 0002:0000edd0       __mask_mant9               0000000180035dd0     libucrt:log10.obj
 0002:0000ede0       __real_log10_e             0000000180035de0     libucrt:log10.obj
 0002:0000edf0       __real_log10_e_lead        0000000180035df0     libucrt:log10.obj
 0002:0000ee00       __real_log10_e_tail        0000000180035e00     libucrt:log10.obj
 0002:0000ee10       __real_log10_2_lead        0000000180035e10     libucrt:log10.obj
 0002:0000ee20       __real_log10_2_tail        0000000180035e20     libucrt:log10.obj
 0002:0000ee30       __real_two                 0000000180035e30     libucrt:log10.obj
 0002:0000ee40       __real_one                 0000000180035e40     libucrt:log10.obj
 0002:0000ee50       __real_half                0000000180035e50     libucrt:log10.obj
 0002:0000ee60       __mask_100                 0000000180035e60     libucrt:log10.obj
 0002:0000ee70       __real_1_over_512          0000000180035e70     libucrt:log10.obj
 0002:0000ee80       __real_1_over_2            0000000180035e80     libucrt:log10.obj
 0002:0000ee90       __real_1_over_3            0000000180035e90     libucrt:log10.obj
 0002:0000eea0       __real_1_over_4            0000000180035ea0     libucrt:log10.obj
 0002:0000eeb0       __real_1_over_5            0000000180035eb0     libucrt:log10.obj
 0002:0000eec0       __real_1_over_6            0000000180035ec0     libucrt:log10.obj
 0002:0000eed0       __real_neg_1023            0000000180035ed0     libucrt:log10.obj
 0002:0000eee0       __mask_2045                0000000180035ee0     libucrt:log10.obj
 0002:0000eef0       __real_threshold           0000000180035ef0     libucrt:log10.obj
 0002:0000ef00       __real_near_one_lt         0000000180035f00     libucrt:log10.obj
 0002:0000ef10       __real_near_one_gt         0000000180035f10     libucrt:log10.obj
 0002:0000ef20       __real_min_norm            0000000180035f20     libucrt:log10.obj
 0002:0000ef30       __real_notsign             0000000180035f30     libucrt:log10.obj
 0002:0000ef40       __real_ca1                 0000000180035f40     libucrt:log10.obj
 0002:0000ef50       __real_ca2                 0000000180035f50     libucrt:log10.obj
 0002:0000ef60       __real_ca3                 0000000180035f60     libucrt:log10.obj
 0002:0000ef70       __real_ca4                 0000000180035f70     libucrt:log10.obj
 0002:0000ef80       __mask_lower               0000000180035f80     libucrt:log10.obj
 0002:0000ef90       __flag_x_zero              0000000180035f90     libucrt:log10.obj
 0002:0000ef94       __flag_x_neg               0000000180035f94     libucrt:log10.obj
 0002:0000ef98       __flag_x_nan               0000000180035f98     libucrt:log10.obj
 0002:00011840       $unwind$__acrt_allocate_buffer_for_argv 0000000180038840     libucrt:argv_parsing.obj
 0002:00011840       $unwind$??__Efin@std@@YAXXZ 0000000180038840     libcpmt:cin.obj
 0002:00011840       $unwind$?flush@?$basic_ostream@DU?$char_traits@D@std@@@std@@QEAAAEAV12@XZ 0000000180038840     cio.obj
 0002:00011840       $unwind$_set_statfp        0000000180038840     libucrt:fpctrl.obj
 0002:00011840       $unwind$?snextc@?$basic_streambuf@DU?$char_traits@D@std@@@std@@QEAAHXZ 0000000180038840     cio.obj
 0002:00011840       $unwind$__acrt_uninitialize_stdio 0000000180038840     libucrt:_file.obj
 0002:00011840       $unwind$??0_Lockit@std@@QEAA@H@Z 0000000180038840     libcpmt:xlock.obj
 0002:00011840       $unwind$_clrfp             0000000180038840     libucrt:fpctrl.obj
 0002:00011840       $unwind$__acrt_uninitialize_winapi_thunks 0000000180038840     libucrt:winapi_thunks.obj
 0002:00011840       $unwind$??_G?$codecvt@DDU_Mbstatet@@@std@@MEAAPEAXI@Z 0000000180038840     libcpmt:cout.obj
 0002:00011840       $unwind$??D?$istreambuf_iterator@DU?$char_traits@D@std@@@std@@QEBADXZ 0000000180038840     cio.obj
 0002:00011840       $unwind$_IsExceptionObjectToBeDestroyed 0000000180038840     libvcruntime:trnsctrl.obj
 0002:00011840       $unwind$??0exception@std@@QEAA@AEBV01@@Z 0000000180038840     libcpmt:cout.obj
 0002:00011840       $unwind$_CreateFrameInfo   0000000180038840     libvcruntime:trnsctrl.obj
 0002:00011840       $unwind$_Getctype          0000000180038840     libcpmt:_tolower.obj
 0002:00011840       $unwind$??R<lambda_e43ce5e7f5cdc2f75e08ba6b290a6899>@@QEBA_NXZ 0000000180038840     libucrt:strtod.obj
 0002:00011840       $unwind$??E?$istreambuf_iterator@DU?$char_traits@D@std@@@std@@QEAAAEAV01@XZ 0000000180038840     cio.obj
 0002:00011840       $unwind$??0bad_cast@std@@QEAA@AEBV01@@Z 0000000180038840     libcpmt:cout.obj
 0002:00011840       $unwind$__acrt_stdio_allocate_buffer_nolock 0000000180038840     libucrt:_getbuf.obj
 0002:00011840       $unwind$_SetThrowImageBase 0000000180038840     libvcruntime:trnsctrl.obj
 0002:00011840       $unwind$__raise_securityfailure 0000000180038840     LIBCMT:gs_report.obj
 0002:00011840       $unwind$_SetImageBase      0000000180038840     libvcruntime:trnsctrl.obj
 0002:00011840       $unwind$??0bad_exception@std@@QEAA@AEBV01@@Z 0000000180038840     libvcruntime:frame.obj
 0002:00011840       $unwind$?__StateFromIp@@YAHPEBU_s_FuncInfo@@PEAU_xDISPATCHER_CONTEXT@@_J@Z 0000000180038840     libvcruntime:ehstate.obj
 0002:00011840       $unwind$?DloadReleaseSectionWriteAccess@@YAXXZ 0000000180038840     DelayImp:delayhlp.obj
 0002:00011840       $unwind$?__GetUnwindTryBlock@@YAHPEA_KPEAU_xDISPATCHER_CONTEXT@@PEBU_s_FuncInfo@@@Z 0000000180038840     libvcruntime:ehstate.obj
 0002:00011840       $unwind$??R<lambda_abd75b4de29fe12b5de19178c3a83741>@@QEBA_NXZ 0000000180038840     libucrt:strtod.obj
 0002:00011840       $unwind$??_Gtype_info@@UEAAPEAXI@Z 0000000180038840     LIBCMT:std_type_info_static.obj
 0002:00011840       $unwind$?load_exe_hook@@YAP6A_JXZIPEAUDelayLoadInfo@@@Z 0000000180038840     win_delay_load_hook.obj
 0002:00011840       $unwind$??_Gexception@stdext@@UEAAPEAXI@Z 0000000180038840     cio.obj
 0002:00011840       $unwind$??2@YAPEAX_K@Z     0000000180038840     LIBCMT:new_scalar.obj
 0002:00011840       $unwind$??0bad_array_new_length@std@@QEAA@AEBV01@@Z 0000000180038840     LIBCMT:throw_bad_alloc.obj
 0002:00011840       $unwind$??R<lambda_40385e98d533db2d20b425b7120454e9>@@QEBA_NXZ 0000000180038840     libucrt:strtod.obj
 0002:00011840       $unwind$?exit_or_terminate_process@@YAXI@Z 0000000180038840     libucrt:exit.obj
 0002:00011840       $unwind$?_Setgloballocale@locale@std@@CAXPEAX@Z 0000000180038840     libcpmt:locale0.obj
 0002:00011840       $unwind$??_Gruntime_error@std@@UEAAPEAXI@Z 0000000180038840     cio.obj
 0002:00011840       $unwind$??0bad_alloc@std@@QEAA@AEBV01@@Z 0000000180038840     libcpmt:xthrow.obj
 0002:00011840       $unwind$_purecall          0000000180038840     libvcruntime:purevirt.obj
 0002:00011840       $unwind$_fflush_nolock     0000000180038840     libucrt:fflush.obj
 0002:00011840       $unwind$?_Addstd@ios_base@std@@SAXPEAV12@@Z 0000000180038840     libcpmt:ios.obj
 0002:00011840       $unwind$__vcrt_freeptd     0000000180038840     libvcruntime:per_thread_data.obj
 0002:00011840       $unwind$__scrt_uninitialize_crt 0000000180038840     LIBCMT:utility.obj
 0002:00011840       $unwind$__scrt_initialize_crt 0000000180038840     LIBCMT:utility.obj
 0002:00011840       $unwind$?_Ios_base_dtor@ios_base@std@@CAXPEAV12@@Z 0000000180038840     libcpmt:ios.obj
 0002:00011840       $unwind$??_G_Facet_base@std@@UEAAPEAXI@Z 0000000180038840     cio.obj
 0002:00011840       $unwind$__std_exception_destroy 0000000180038840     libvcruntime:std_exception.obj
 0002:00011840       $unwind$__scrt_release_startup_lock 0000000180038840     LIBCMT:utility.obj
 0002:00011840       $unwind$__acrt_freeptd     0000000180038840     libucrt:per_thread_data.obj
 0002:00011840       $unwind$?do_widen@?$ctype@D@std@@MEBAPEBDPEBD0PEAD@Z 0000000180038840     cio.obj
 0002:00011840       $unwind$?do_narrow@?$ctype@D@std@@MEBAPEBDPEBD0DPEAD@Z 0000000180038840     cio.obj
 0002:00011840       $unwind$??_Gerror_category@std@@UEAAPEAXI@Z 0000000180038840     cio.obj
 0002:00011840       $unwind$??__Efout@std@@YAXXZ 0000000180038840     libcpmt:cout.obj
 0002:00011840       $unwind$__std_type_info_destroy_list 0000000180038840     libvcruntime:std_type_info.obj
 0002:00011840       $unwind$_Init_thread_header 0000000180038840     LIBCMT:thread_safe_statics.obj
 0002:00011840       $unwind$?initialize_pointers@@YAHXZ 0000000180038840     libcpmt:winapisupp.obj
 0002:00011840       $unwind$__acrt_initialize_locks 0000000180038840     libucrt:locks.obj
 0002:00011840       $unwind$_onexit            0000000180038840     LIBCMT:utility.obj
 0002:00011840       $unwind$??0logic_error@std@@QEAA@AEBV01@@Z 0000000180038840     libcpmt:xthrow.obj
 0002:00011840       $unwind$__acrt_uninitialize_locks 0000000180038840     libucrt:locks.obj
 0002:00011840       $unwind$??_G_System_error@std@@UEAAPEAXI@Z 0000000180038840     cio.obj
 0002:00011840       $unwind$_Init_thread_footer 0000000180038840     LIBCMT:thread_safe_statics.obj
 0002:00011840       $unwind$_Init_thread_notify 0000000180038840     LIBCMT:thread_safe_statics.obj
 0002:00011840       $unwind$?imbue@?$basic_filebuf@DU?$char_traits@D@std@@@std@@MEAAXAEBVlocale@2@@Z 0000000180038840     libcpmt:cout.obj
 0002:00011840       $unwind$strcpy_s           0000000180038840     libucrt:strcpy_s.obj
 0002:00011840       $unwind$?message@_Iostream_error_category@std@@UEBA?AV?$basic_string@DU?$char_traits@D@std@@V?$allocator@D@2@@2@H@Z 0000000180038840     cio.obj
 0002:00011840       $unwind$??_G_Iostream_error_category@std@@UEAAPEAXI@Z 0000000180038840     cio.obj
 0002:00011840       $unwind$??_Gfailure@ios_base@std@@UEAAPEAXI@Z 0000000180038840     cio.obj
 0002:00011840       $unwind$__acrt_update_multibyte_info 0000000180038840     libucrt:locale_update.obj
 0002:00011840       $unwind$__acrt_update_locale_info 0000000180038840     libucrt:locale_update.obj
 0002:00011840       $unwind$wcscat_s           0000000180038840     libucrt:wcscat_s.obj
 0002:00011840       $unwind$__vcrt_uninitialize_locks 0000000180038840     libvcruntime:locks.obj
 0002:00011840       $unwind$??1?$basic_string@DU?$char_traits@D@std@@V?$allocator@D@2@@std@@QEAA@XZ 0000000180038840     cio.obj
 0002:00011840       $unwind$__vcrt_initialize_locks 0000000180038840     libvcruntime:locks.obj
 0002:00011840       $unwind$??0length_error@std@@QEAA@AEBV01@@Z 0000000180038840     libcpmt:xthrow.obj
 0002:00011840       $unwind$?setbuf@?$basic_filebuf@DU?$char_traits@D@std@@@std@@MEAAPEAV?$basic_streambuf@DU?$char_traits@D@std@@@2@PEAD_J@Z 0000000180038840     libcpmt:cout.obj
 0002:00011840       $unwind$wcscpy_s           0000000180038840     libucrt:wcscpy_s.obj
 0002:00011840       $unwind$initialize_pointers 0000000180038840     libucrt:initialization.obj
 0002:00011840       $unwind$uninitialize_allocated_memory 0000000180038840     libucrt:initialization.obj
 0002:00011840       $unwind$__acrt_stdio_free_buffer_nolock 0000000180038840     libucrt:_freebuf.obj
 0002:00011840       $unwind$?_Facet_Register@std@@YAXPEAV_Facet_base@1@@Z 0000000180038840     libcpmt:locale0.obj
 0002:00011840       $unwind$?do_grouping@?$numpunct@D@std@@MEBA?AV?$basic_string@DU?$char_traits@D@std@@V?$allocator@D@2@@2@XZ 0000000180038840     cio.obj
 0002:00011840       $unwind$_malloc_base       0000000180038840     libucrt:malloc_base.obj
 0002:00011840       $unwind$?do_falsename@?$numpunct@D@std@@MEBA?AV?$basic_string@DU?$char_traits@D@std@@V?$allocator@D@2@@2@XZ 0000000180038840     cio.obj
 0002:00011840       $unwind$_calloc_base       0000000180038840     libucrt:calloc_base.obj
 0002:00011840       $unwind$??_G?$num_get@DV?$istreambuf_iterator@DU?$char_traits@D@std@@@std@@@std@@MEAAPEAXI@Z 0000000180038840     cio.obj
 0002:00011840       $unwind$?do_truename@?$numpunct@D@std@@MEBA?AV?$basic_string@DU?$char_traits@D@std@@V?$allocator@D@2@@2@XZ 0000000180038840     cio.obj
 0002:00011840       $unwind$??0out_of_range@std@@QEAA@AEBV01@@Z 0000000180038840     libcpmt:xthrow.obj
 0002:00011848       $unwind$??__F_Fac_tidy_reg@std@@YAXXZ 0000000180038848     libcpmt:locale0.obj
 0002:00011848       $unwind$_msize             0000000180038848     libucrt:msize.obj
 0002:00011848       $unwind$tolower            0000000180038848     libucrt:tolower_toupper.obj
 0002:00011848       $unwind$?initialize_multibyte@@YAHXZ 0000000180038848     libucrt:multibyte_initializer.obj
 0002:00011848       $unwind$?_Locinfo_dtor@_Locinfo@std@@SAXPEAV12@@Z 0000000180038848     libcpmt:locale0.obj
 0002:00011848       $unwind$uninitialize_environment 0000000180038848     libucrt:initialization.obj
 0002:00011848       $unwind$initialize_c       0000000180038848     libucrt:initialization.obj
 0002:00011848       $unwind$__acrt_thread_detach 0000000180038848     libucrt:initialization.obj
 0002:00011848       $unwind$__acrt_thread_attach 0000000180038848     libucrt:initialization.obj
 0002:00011848       $unwind$?dllmain_crt_dispatch@@YAHQEAUHINSTANCE__@@KQEAX@Z 0000000180038848     LIBCMT:dll_dllmain.obj
 0002:00011848       $unwind$__acrt_uninitialize_critical 0000000180038848     libucrt:initialization.obj
 0002:00011848       $unwind$__acrt_initialize_multibyte 0000000180038848     libucrt:mbctype.obj
 0002:00011848       $unwind$__acrt_release_locale_ref 0000000180038848     libucrt:locale_refcounting.obj
 0002:00011848       $unwind$?__scrt_uninitialize_thread_safe_statics@@YAXXZ 0000000180038848     LIBCMT:thread_safe_statics.obj
 0002:00011848       $unwind$__doserrno         0000000180038848     libucrt:errno.obj
 0002:00011848       $unwind$_errno             0000000180038848     libucrt:errno.obj
 0002:00011848       $unwind$_copytlocinfo_nolock 0000000180038848     libucrt:wsetlocale.obj
 0002:00011848       $unwind$atexit             0000000180038848     LIBCMT:utility.obj
 0002:00011848       $unwind$??__Einitlocks@std@@YAXXZ 0000000180038848     libcpmt:iosptrs.obj
 0002:00011848       $unwind$__scrt_acquire_startup_lock 0000000180038848     LIBCMT:utility.obj
 0002:00011848       $unwind$localeconv         0000000180038848     libucrt:localeconv.obj
 0002:00011848       $unwind$?_Atexit@@YAXP6AXXZ@Z 0000000180038848     libcpmt:iosptrs.obj
 0002:00011848       $unwind$_wcsicmp           0000000180038848     libucrt:wcsicmp.obj
 0002:00011848       $unwind$_invoke_watson     0000000180038848     libucrt:invalid_parameter.obj
 0002:00011848       $unwind$__scrt_dllmain_before_initialize_c 0000000180038848     LIBCMT:utility.obj
 0002:00011848       $unwind$__acrt_uninitialize_ptd 0000000180038848     libucrt:per_thread_data.obj
 0002:00011848       $unwind$__acrt_DownlevelLocaleNameToLCID 0000000180038848     libucrt:lcidtoname_downlevel.obj
 0002:00011848       $unwind$__acrt_initialize_ptd 0000000180038848     libucrt:per_thread_data.obj
 0002:00011848       $unwind$__scrt_dllmain_after_initialize_c 0000000180038848     LIBCMT:utility.obj
 0002:00011848       $unwind$?_Deallocate@std@@YAXPEAX_K1@Z 0000000180038848     cio.obj
 0002:00011848       $unwind$tidy_global        0000000180038848     libcpmt:locale0.obj
 0002:00011848       $unwind$__scrt_dllmain_uninitialize_c 0000000180038848     LIBCMT:utility.obj
 0002:00011848       $unwind$__scrt_dllmain_uninitialize_critical 0000000180038848     LIBCMT:utility.obj
 0002:00011848       $unwind$__scrt_initialize_default_local_stdio_options 0000000180038848     LIBCMT:default_local_stdio_options.obj
 0002:00011848       $unwind$_getfpcontrolword  0000000180038848     libucrt:_fenvutils.obj
 0002:00011848       $unwind$__scrt_dllmain_crt_thread_attach 0000000180038848     LIBCMT:utility.obj
 0002:00011848       $unwind$__scrt_dllmain_crt_thread_detach 0000000180038848     LIBCMT:utility.obj
 0002:00011848       $unwind$abort              0000000180038848     libucrt:abort.obj
 0002:00011848       $unwind$__acrt_initialize_command_line 0000000180038848     libucrt:argv_data.obj
 0002:00011848       $unwind$__dcrt_terminate_console_output 0000000180038848     libucrt:initcon.obj
 0002:00011848       $unwind$___mb_cur_max_func 0000000180038848     libucrt:initctype.obj
 0002:00011848       $unwind$___lc_locale_name_func 0000000180038848     libucrt:initctype.obj
 0002:00011848       $unwind$___lc_codepage_func 0000000180038848     libucrt:initctype.obj
 0002:00011848       $unwind$_get_stream_buffer_pointers 0000000180038848     libucrt:_file.obj
 0002:00011848       $unwind$??$uninitialize_environment_internal@_W@@YAXAEAPEAPEA_W@Z 0000000180038848     libucrt:environment_initialization.obj
 0002:00011848       $unwind$??$uninitialize_environment_internal@D@@YAXAEAPEAPEAD@Z 0000000180038848     libucrt:environment_initialization.obj
 0002:00011848       $unwind$__dcrt_uninitialize_environments_nolock 0000000180038848     libucrt:environment_initialization.obj
 0002:00011848       $unwind$__crtDownlevelLocaleNameToLCID 0000000180038848     libcpmt:winapinls.obj
 0002:00011848       $unwind$??__Einitlocks@@YAXXZ 0000000180038848     libcpmt:cin.obj
 0002:00011848       $unwind$_statfp            0000000180038848     libucrt:fpctrl.obj
 0002:00011848       $unwind$__acrt_can_use_vista_locale_apis 0000000180038848     libucrt:winapi_thunks.obj
 0002:00011848       $unwind$??__Ecin@std@@YAXXZ 0000000180038848     libcpmt:cin.obj
 0002:00011848       $unwind$??__Ecout@std@@YAXXZ 0000000180038848     libcpmt:cout.obj
 0002:00011848       $unwind$??1_Lockit@std@@QEAA@XZ 0000000180038848     libcpmt:xlock.obj
 0002:00011848       $unwind$fsetpos            0000000180038848     libucrt:fsetpos.obj
 0002:00011848       $unwind$__report_rangecheckfailure 0000000180038848     LIBCMT:gs_report.obj
 0002:00011848       $unwind$_GetThrowImageBase 0000000180038848     libvcruntime:trnsctrl.obj
 0002:00011848       $unwind$_get_osfhandle     0000000180038848     libucrt:osfinfo.obj
 0002:00011848       $unwind$??$_Immortalize@V_Iostream_error_category@std@@@std@@YAAEAV_Iostream_error_category@0@XZ 0000000180038848     cio.obj
 0002:00011848       $unwind$__std_terminate    0000000180038848     libvcruntime:frame.obj
 0002:00011848       $unwind$??__Einitlocks@std@@YAXXZ 0000000180038848     libcpmt:xlock.obj
 0002:00011848       $unwind$_GetImageBase      0000000180038848     libvcruntime:trnsctrl.obj
 0002:00011848       $unwind$_fileno            0000000180038848     libucrt:fileno.obj
 0002:00011848       $unwind$??__Einitlocks@@YAXXZ 0000000180038848     libcpmt:cout.obj
 0002:00011848       $unwind$__pctype_func      0000000180038848     libucrt:ctype.obj
 0002:00011848       $unwind$__FrameUnwindFilter 0000000180038848     libvcruntime:frame.obj
 0002:00011848       $unwind$?__GetCurrentState@@YAHPEA_KPEAU_xDISPATCHER_CONTEXT@@PEBU_s_FuncInfo@@@Z 0000000180038848     libvcruntime:ehstate.obj
 0002:00011848       $unwind$__GSHandlerCheck   0000000180038848     LIBCMT:_gshandler_.obj
 0002:00011848       $unwind$_fgetc_nolock      0000000180038848     libucrt:fgetc.obj
 0002:00011848       $unwind$?_Lock@?$basic_filebuf@DU?$char_traits@D@std@@@std@@UEAAXXZ 0000000180038848     libcpmt:cout.obj
 0002:00011848       $unwind$?_Unlock@?$basic_filebuf@DU?$char_traits@D@std@@@std@@UEAAXXZ 0000000180038848     libcpmt:cout.obj
 0002:00011848       $unwind$__vcrt_freefls     0000000180038848     libvcruntime:per_thread_data.obj
 0002:00011848       $unwind$__vcrt_getptd      0000000180038848     libvcruntime:per_thread_data.obj
 0002:00011848       $unwind$__vcrt_uninitialize_ptd 0000000180038848     libvcruntime:per_thread_data.obj
 0002:00011848       $unwind$_set_errno_from_matherr 0000000180038848     libucrt:fpexcept.obj
 0002:00011848       $unwind$__vcrt_initialize_ptd 0000000180038848     libvcruntime:per_thread_data.obj
 0002:00011848       $unwind$__vcrt_initialize  0000000180038848     libvcruntime:initialization.obj
 0002:00011848       $unwind$__vcrt_uninitialize 0000000180038848     libvcruntime:initialization.obj
 0002:00011848       $unwind$_stricmp           0000000180038848     libucrt:stricmp.obj
 0002:00011848       $unwind$fegetround         0000000180038848     libucrt:fegetround.obj
 0002:00011848       $unwind$_isatty            0000000180038848     libucrt:isatty.obj
 0002:00011848       $unwind$__vcrt_uninitialize_critical 0000000180038848     libvcruntime:initialization.obj
 0002:00011848       $unwind$__vcrt_thread_attach 0000000180038848     libvcruntime:initialization.obj
 0002:00011848       $unwind$__vcrt_thread_detach 0000000180038848     libvcruntime:initialization.obj
 0002:00011848       $unwind$_wcsnicmp          0000000180038848     libucrt:wcsnicmp.obj
 0002:00011848       $unwind$__acrt_initialize_heap 0000000180038848     libucrt:heap_handle.obj
 0002:00011850       $unwind$?x_ismbbtype_l@@YAHPEAU__crt_locale_pointers@@IHH@Z 0000000180038850     libucrt:ismbbyte.obj
 0002:00011850       $unwind$??0_Locinfo@std@@QEAA@PEBD@Z 0000000180038850     cio.obj
 0002:00011850       $unwind$_stricmp_l         0000000180038850     libucrt:stricmp.obj
 0002:00011860       $unwind$strncpy_s          0000000180038860     libucrt:strncpy_s.obj
 0002:00011860       $unwind$??_Gout_of_range@std@@UEAAPEAXI@Z 0000000180038860     libcpmt:xthrow.obj
 0002:00011860       $unwind$??_Glength_error@std@@UEAAPEAXI@Z 0000000180038860     libcpmt:xthrow.obj
 0002:00011860       $unwind$__acrt_uninitialize_lowio 0000000180038860     libucrt:ioinit.obj
 0002:00011860       $unwind$?equal@?$istreambuf_iterator@DU?$char_traits@D@std@@@std@@QEBA_NAEBV12@@Z 0000000180038860     cio.obj
 0002:00011860       $unwind$?_Locinfo_ctor@_Locinfo@std@@SAXPEAV12@PEBD@Z 0000000180038860     libcpmt:locale0.obj
 0002:00011860       $unwind$??_G?$numpunct@D@std@@MEAAPEAXI@Z 0000000180038860     cio.obj
 0002:00011860       $unwind$??_Glogic_error@std@@UEAAPEAXI@Z 0000000180038860     libcpmt:xthrow.obj
 0002:00011860       $unwind$__acrt_invoke_user_matherr 0000000180038860     libucrt:matherr.obj
 0002:00011860       $unwind$??0_LocaleUpdate@@QEAA@QEAU__crt_locale_pointers@@@Z 0000000180038860     libucrt:strtod.obj
 0002:00011860       $unwind$?erase@?$basic_string@DU?$char_traits@D@std@@V?$allocator@D@2@@std@@QEAAAEAV12@_K0@Z 0000000180038860     cio.obj
 0002:00011860       $unwind$?internal_isupper_l@@YA_NHQEAU__crt_locale_pointers@@@Z 0000000180038860     libucrt:tolower_toupper.obj
 0002:00011860       $unwind$?_Assign_rv@?$basic_string@DU?$char_traits@D@std@@V?$allocator@D@2@@std@@QEAAX$$QEAV12@@Z 0000000180038860     cio.obj
 0002:00011860       $unwind$??$common_xtox@K_W@@YAHKQEA_W_KI_N@Z 0000000180038860     libucrt:xtoa.obj
 0002:00011860       $unwind$__acrt_errno_map_os_error 0000000180038860     libucrt:errno.obj
 0002:00011860       $unwind$wcsncpy_s          0000000180038860     libucrt:wcsncpy_s.obj
 0002:00011860       $unwind$_realloc_base      0000000180038860     libucrt:realloc_base.obj
 0002:00011860       $unwind$_updatetlocinfoEx_nolock 0000000180038860     libucrt:locale_refcounting.obj
 0002:00011860       $unwind$??_G?$ctype@D@std@@MEAAPEAXI@Z 0000000180038860     cio.obj
 0002:00011860       $unwind$__acrt_locale_initialize_time 0000000180038860     libucrt:inittime.obj
 0002:00011860       $unwind$GetLocaleNameFromLangCountry 0000000180038860     libucrt:get_qualified_locale.obj
 0002:00011860       $unwind$GetLocaleNameFromLanguage 0000000180038860     libucrt:get_qualified_locale.obj
 0002:00011860       $unwind$_Deletegloballocale 0000000180038860     libcpmt:locale0.obj
 0002:00011860       $unwind$??_Gbad_exception@std@@UEAAPEAXI@Z 0000000180038860     libvcruntime:frame.obj
 0002:00011860       $unwind$?try_cor_exit_process@@YAXI@Z 0000000180038860     libucrt:exit.obj
 0002:00011860       $unwind$??_Gbad_alloc@std@@UEAAPEAXI@Z 0000000180038860     libcpmt:xthrow.obj
 0002:00011860       $unwind$??_Gbad_array_new_length@std@@UEAAPEAXI@Z 0000000180038860     LIBCMT:throw_bad_alloc.obj
 0002:00011860       $unwind$?replace_current_thread_locale_nolock@@YAXQEAU__acrt_ptd@@QEAU__crt_locale_data@@@Z 0000000180038860     libucrt:per_thread_data.obj
 0002:00011860       $unwind$_close_nolock      0000000180038860     libucrt:close.obj
 0002:00011860       $unwind$?ExFilterRethrow@@YAHPEAU_EXCEPTION_POINTERS@@PEAUEHExceptionRecord@@PEAH@Z 0000000180038860     libvcruntime:frame.obj
 0002:00011860       $unwind$??_G?$basic_filebuf@DU?$char_traits@D@std@@@std@@UEAAPEAXI@Z 0000000180038860     libcpmt:cout.obj
 0002:00011860       $unwind$??1_Locinfo@std@@QEAA@XZ 0000000180038860     cio.obj
 0002:00011860       $unwind$__acrt_getptd      0000000180038860     libucrt:per_thread_data.obj
 0002:00011860       $unwind$_callnewh          0000000180038860     libucrt:new_handler.obj
 0002:00011860       $unwind$?DloadGetSRWLockFunctionPointers@@YAEXZ 0000000180038860     DelayImp:delayhlp.obj
 0002:00011860       $unwind$?DloadAcquireSectionWriteAccess@@YAXXZ 0000000180038860     DelayImp:delayhlp.obj
 0002:00011860       $unwind$??1_Init_locks@std@@QEAA@XZ 0000000180038860     libcpmt:xlock.obj
 0002:00011860       $unwind$__acrt_stdio_begin_temporary_buffering_nolock 0000000180038860     libucrt:_sftbuf.obj
 0002:00011860       $unwind$??$common_initialize_environment_nolock@D@@YAHXZ 0000000180038860     libucrt:environment_initialization.obj
 0002:00011860       $unwind$?__SetUnwindTryBlock@@YAXPEA_KPEAU_xDISPATCHER_CONTEXT@@PEBU_s_FuncInfo@@H@Z 0000000180038860     libvcruntime:ehstate.obj
 0002:00011860       $unwind$?<helper_func_cdecl>@<lambda_e2bb8337c48846e80c921ea5ddadc92d>@@CAHPEA_W@Z 0000000180038860     libucrt:winapi_thunks.obj
 0002:00011860       $unwind$_ungetc_nolock     0000000180038860     libucrt:ungetc.obj
 0002:00011860       $unwind$_fclose_nolock     0000000180038860     libucrt:fclose.obj
 0002:00011860       $unwind$__acrt_IsValidLocaleName 0000000180038860     libucrt:winapi_thunks.obj
 0002:00011860       $unwind$_FindAndUnlinkFrame 0000000180038860     libvcruntime:trnsctrl.obj
 0002:00011860       $unwind$??_Gexception@std@@UEAAPEAXI@Z 0000000180038860     libcpmt:cout.obj
 0002:00011860       $unwind$__acrt_FlsGetValue 0000000180038860     libucrt:winapi_thunks.obj
 0002:00011860       $unwind$__acrt_FlsFree     0000000180038860     libucrt:winapi_thunks.obj
 0002:00011860       $unwind$??_Gbad_cast@std@@UEAAPEAXI@Z 0000000180038860     libcpmt:cout.obj
 0002:00011860       $unwind$__acrt_FlsAlloc    0000000180038860     libucrt:winapi_thunks.obj
 0002:00011860       $unwind$GetLcidFromLangCountry 0000000180038860     libucrt:getqloc_downlevel.obj
 0002:00011860       $unwind$fgetpos            0000000180038860     libucrt:fgetpos.obj
 0002:00011860       $unwind$?uflow@?$basic_streambuf@DU?$char_traits@D@std@@@std@@MEAAHXZ 0000000180038860     libcpmt:cout.obj
 0002:00011860       $unwind$?pbackfail@?$basic_filebuf@DU?$char_traits@D@std@@@std@@MEAAHH@Z 0000000180038860     libcpmt:cout.obj
 0002:00011860       $unwind$??_G?$basic_streambuf@DU?$char_traits@D@std@@@std@@UEAAPEAXI@Z 0000000180038860     libcpmt:cout.obj
 0002:00011860       $unwind$__vcrt_FlsAlloc    0000000180038860     libvcruntime:winapi_downlevel.obj
 0002:00011860       $unwind$GetLcidFromLanguage 0000000180038860     libucrt:getqloc_downlevel.obj
 0002:00011860       $unwind$__vcrt_FlsGetValue 0000000180038860     libvcruntime:winapi_downlevel.obj
 0002:00011860       $unwind$__vcrt_FlsFree     0000000180038860     libvcruntime:winapi_downlevel.obj
 0002:00011860       $unwind$?_New_Locimp@_Locimp@locale@std@@CAPEAV123@_N@Z 0000000180038860     libcpmt:locale0.obj
 0002:0001186c       $unwind$?_Getcat@?$ctype@D@std@@SA_KPEAPEBVfacet@locale@2@PEBV42@@Z 000000018003886c     cio.obj
 0002:0001187c       $chain$0$?_Getcat@?$ctype@D@std@@SA_KPEAPEBVfacet@locale@2@PEBV42@@Z 000000018003887c     cio.obj
 0002:00011890       $chain$1$?_Getcat@?$ctype@D@std@@SA_KPEAPEBVfacet@locale@2@PEBV42@@Z 0000000180038890     cio.obj
 0002:000118a0       $unwind$ProcessCodePage    00000001800388a0     libucrt:get_qualified_locale.obj
 0002:000118a0       $unwind$??R<lambda_b721fa326cdb32351d23dfa67958c160>@@QEBAHXZ 00000001800388a0     libucrt:setvbuf.obj
 0002:000118a0       $unwind$?do_toupper@?$ctype@D@std@@MEBAPEBDPEADPEBD@Z 00000001800388a0     cio.obj
 0002:000118a0       $unwind$TestDefaultLanguage 00000001800388a0     libucrt:getqloc_downlevel.obj
 0002:000118a0       $unwind$?do_tolower@?$ctype@D@std@@MEBAPEBDPEADPEBD@Z 00000001800388a0     cio.obj
 0002:000118a0       $unwind$ProcessCodePage    00000001800388a0     libucrt:getqloc_downlevel.obj
 0002:000118b0       $chain$0$?do_tolower@?$ctype@D@std@@MEBAPEBDPEADPEBD@Z 00000001800388b0     cio.obj
 0002:000118c4       $chain$1$?do_tolower@?$ctype@D@std@@MEBAPEBDPEADPEBD@Z 00000001800388c4     cio.obj
 0002:000118d4       $chain$0$?do_toupper@?$ctype@D@std@@MEBAPEBDPEADPEBD@Z 00000001800388d4     cio.obj
 0002:000118e8       $chain$1$?do_toupper@?$ctype@D@std@@MEBAPEBDPEADPEBD@Z 00000001800388e8     cio.obj
 0002:000118f8       $unwind$??$common_xtox_s@K_W@@YAHKQEA_W_KI_N@Z 00000001800388f8     libucrt:xtoa.obj
 0002:000118f8       $unwind$??0length_error@std@@QEAA@PEBD@Z 00000001800388f8     libcpmt:xthrow.obj
 0002:000118f8       $unwind$?equivalent@error_category@std@@UEBA_NHAEBVerror_condition@2@@Z 00000001800388f8     cio.obj
 0002:000118f8       $unwind$??0out_of_range@std@@QEAA@PEBD@Z 00000001800388f8     libcpmt:xthrow.obj
 0002:00011900       $unwind$??0_System_error@std@@IEAA@Verror_code@1@AEBV?$basic_string@DU?$char_traits@D@std@@V?$allocator@D@2@@1@@Z 0000000180038900     cio.obj
 0002:0001191c       $unwind$?clear@ios_base@std@@QEAAXH_N@Z 000000018003891c     cio.obj
 0002:00011930       $chain$0$?clear@ios_base@std@@QEAAXH_N@Z 0000000180038930     cio.obj
 0002:00011944       $chain$1$?clear@ios_base@std@@QEAAXH_N@Z 0000000180038944     cio.obj
 0002:00011954       $chain$2$?clear@ios_base@std@@QEAAXH_N@Z 0000000180038954     cio.obj
 0002:00011968       $unwind$?Input@cio@@YAXAEBV?$FunctionCallbackInfo@VValue@v8@@@v8@@@Z 0000000180038968     cio.obj
 0002:00011988       $chain$0$?Input@cio@@YAXAEBV?$FunctionCallbackInfo@VValue@v8@@@v8@@@Z 0000000180038988     cio.obj
 0002:0001199c       $chain$1$?Input@cio@@YAXAEBV?$FunctionCallbackInfo@VValue@v8@@@v8@@@Z 000000018003899c     cio.obj
 0002:000119ac       $unwind$?init@cio@@YAXV?$Local@VObject@v8@@@v8@@@Z 00000001800389ac     cio.obj
 0002:000119b8       $unwind$??5?$basic_istream@DU?$char_traits@D@std@@@std@@QEAAAEAV01@AEAN@Z 00000001800389b8     cio.obj
 0002:000119c0       $chain$0$??5?$basic_istream@DU?$char_traits@D@std@@@std@@QEAAAEAV01@AEAN@Z 00000001800389c0     cio.obj
 0002:000119d4       $chain$2$??5?$basic_istream@DU?$char_traits@D@std@@@std@@QEAAAEAV01@AEAN@Z 00000001800389d4     cio.obj
 0002:000119ec       $chain$3$??5?$basic_istream@DU?$char_traits@D@std@@@std@@QEAAAEAV01@AEAN@Z 00000001800389ec     cio.obj
 0002:00011a00       $chain$4$??5?$basic_istream@DU?$char_traits@D@std@@@std@@QEAAAEAV01@AEAN@Z 0000000180038a00     cio.obj
 0002:00011a10       $chain$5$??5?$basic_istream@DU?$char_traits@D@std@@@std@@QEAAAEAV01@AEAN@Z 0000000180038a10     cio.obj
 0002:00011a20       $unwind$?do_get@?$num_get@DV?$istreambuf_iterator@DU?$char_traits@D@std@@@std@@@std@@MEBA?AV?$istreambuf_iterator@DU?$char_traits@D@std@@@2@V32@0AEAVios_base@2@AEAHAEAPEAX@Z 0000000180038a20     cio.obj
 0002:00011a3c       $unwind$?do_get@?$num_get@DV?$istreambuf_iterator@DU?$char_traits@D@std@@@std@@@std@@MEBA?AV?$istreambuf_iterator@DU?$char_traits@D@std@@@2@V32@0AEAVios_base@2@AEAHAEAO@Z 0000000180038a3c     cio.obj
 0002:00011a3c       $unwind$?do_get@?$num_get@DV?$istreambuf_iterator@DU?$char_traits@D@std@@@std@@@std@@MEBA?AV?$istreambuf_iterator@DU?$char_traits@D@std@@@2@V32@0AEAVios_base@2@AEAHAEAN@Z 0000000180038a3c     cio.obj
 0002:00011a3c       $unwind$?do_get@?$num_get@DV?$istreambuf_iterator@DU?$char_traits@D@std@@@std@@@std@@MEBA?AV?$istreambuf_iterator@DU?$char_traits@D@std@@@2@V32@0AEAVios_base@2@AEAHAEAM@Z 0000000180038a3c     cio.obj
 0002:00011a60       $unwind$?do_get@?$num_get@DV?$istreambuf_iterator@DU?$char_traits@D@std@@@std@@@std@@MEBA?AV?$istreambuf_iterator@DU?$char_traits@D@std@@@2@V32@0AEAVios_base@2@AEAHAEAG@Z 0000000180038a60     cio.obj
 0002:00011a60       $unwind$?do_get@?$num_get@DV?$istreambuf_iterator@DU?$char_traits@D@std@@@std@@@std@@MEBA?AV?$istreambuf_iterator@DU?$char_traits@D@std@@@2@V32@0AEAVios_base@2@AEAHAEA_K@Z 0000000180038a60     cio.obj
 0002:00011a60       $unwind$?do_get@?$num_get@DV?$istreambuf_iterator@DU?$char_traits@D@std@@@std@@@std@@MEBA?AV?$istreambuf_iterator@DU?$char_traits@D@std@@@2@V32@0AEAVios_base@2@AEAHAEA_J@Z 0000000180038a60     cio.obj
 0002:00011a60       $unwind$?do_get@?$num_get@DV?$istreambuf_iterator@DU?$char_traits@D@std@@@std@@@std@@MEBA?AV?$istreambuf_iterator@DU?$char_traits@D@std@@@2@V32@0AEAVios_base@2@AEAHAEAK@Z 0000000180038a60     cio.obj
 0002:00011a60       $unwind$?do_get@?$num_get@DV?$istreambuf_iterator@DU?$char_traits@D@std@@@std@@@std@@MEBA?AV?$istreambuf_iterator@DU?$char_traits@D@std@@@2@V32@0AEAVios_base@2@AEAHAEAJ@Z 0000000180038a60     cio.obj
 0002:00011a60       $unwind$?do_get@?$num_get@DV?$istreambuf_iterator@DU?$char_traits@D@std@@@std@@@std@@MEBA?AV?$istreambuf_iterator@DU?$char_traits@D@std@@@2@V32@0AEAVios_base@2@AEAHAEAI@Z 0000000180038a60     cio.obj
 0002:00011a7c       $unwind$?do_get@?$num_get@DV?$istreambuf_iterator@DU?$char_traits@D@std@@@std@@@std@@MEBA?AV?$istreambuf_iterator@DU?$char_traits@D@std@@@2@V32@0AEAVios_base@2@AEAHAEA_N@Z 0000000180038a7c     cio.obj
 0002:00011a9c       $unwind$?underflow@?$basic_filebuf@DU?$char_traits@D@std@@@std@@MEAAHXZ 0000000180038a9c     libcpmt:cout.obj
 0002:00011a9c       $unwind$?sync@?$basic_filebuf@DU?$char_traits@D@std@@@std@@MEAAHXZ 0000000180038a9c     libcpmt:cout.obj
 0002:00011a9c       $unwind$?_Initcvt@?$basic_filebuf@DU?$char_traits@D@std@@@std@@IEAAXPEBV?$codecvt@DDU_Mbstatet@@@2@@Z 0000000180038a9c     libcpmt:cout.obj
 0002:00011a9c       $unwind$_Init_thread_wait  0000000180038a9c     LIBCMT:thread_safe_statics.obj
 0002:00011a9c       $unwind$??$common_lseek_nolock@_J@@YA_JH_JH@Z 0000000180038a9c     libucrt:lseek.obj
 0002:00011a9c       $unwind$__acrt_GetUserDefaultLocaleName 0000000180038a9c     libucrt:winapi_thunks.obj
 0002:00011a9c       $unwind$_initterm_e        0000000180038a9c     libucrt:initterm.obj
 0002:00011a9c       $unwind$??4?$_Yarn@D@std@@QEAAAEAV01@PEBD@Z 0000000180038a9c     libcpmt:locale0.obj
 0002:00011a9c       $unwind$_RTC_Terminate     0000000180038a9c     LIBCMT:_initsect_.obj
 0002:00011a9c       $unwind$?free_crt_array_internal@@YAXQEAPEBX_K@Z 0000000180038a9c     libucrt:inittime.obj
 0002:00011a9c       $unwind$__acrt_getptd_noexit 0000000180038a9c     libucrt:per_thread_data.obj
 0002:00011a9c       $unwind$??0_Init_locks@std@@QEAA@XZ 0000000180038a9c     libcpmt:xlock.obj
 0002:00011a9c       $unwind$__acrt_execute_uninitializers 0000000180038a9c     libucrt:shared_initialization.obj
 0002:00011a9c       $unwind$memcpy_s           0000000180038a9c     libucrt:strtod.obj
 0002:00011a9c       $unwind$__acrt_stdio_flush_and_write_narrow_nolock 0000000180038a9c     libucrt:_flsbuf.obj
 0002:00011a9c       $unwind$_Getcvt            0000000180038a9c     libcpmt:xwctomb.obj
 0002:00011a9c       $unwind$_exception_enabled 0000000180038a9c     libucrt:libm_error.obj
 0002:00011a9c       $unwind$__acrt_LocaleNameToLCID 0000000180038a9c     libucrt:winapi_thunks.obj
 0002:00011a9c       $unwind$_RTC_Initialize    0000000180038a9c     LIBCMT:_initsect_.obj
 0002:00011a9c       $unwind$_DllMainCRTStartup 0000000180038a9c     LIBCMT:dll_dllmain.obj
 0002:00011a9c       $unwind$??R<lambda_532e024f4337e6fc7ad266c2bef9f4ed>@@QEBA_KXZ 0000000180038a9c     libucrt:fwrite.obj
 0002:00011a9c       $unwind$__acrt_FlsSetValue 0000000180038a9c     libucrt:winapi_thunks.obj
 0002:00011a9c       $unwind$?__scrt_initialize_thread_safe_statics@@YAHXZ 0000000180038a9c     LIBCMT:thread_safe_statics.obj
 0002:00011a9c       $unwind$__vcrt_FlsSetValue 0000000180038a9c     libvcruntime:winapi_downlevel.obj
 0002:00011a9c       $unwind$?put@?$basic_ostream@DU?$char_traits@D@std@@@std@@QEAAAEAV12@D@Z 0000000180038a9c     cio.obj
 0002:00011a9c       $unwind$__acrt_stdio_flush_nolock 0000000180038a9c     libucrt:fflush.obj
 0002:00011a9c       $unwind$?_Tidy@ios_base@std@@AEAAXXZ 0000000180038a9c     libcpmt:ios.obj
 0002:00011a9c       $unwind$??R<lambda_ad1ced32f4ac17aa236e5ef05d6b3b7c>@@QEBAXXZ 0000000180038a9c     libucrt:mbctype.obj
 0002:00011a9c       $unwind$__vcrt_getptd_noexit 0000000180038a9c     libvcruntime:per_thread_data.obj
 0002:00011a9c       $unwind$?assign@?$basic_string@DU?$char_traits@D@std@@V?$allocator@D@2@@std@@QEAAAEAV12@_KD@Z 0000000180038a9c     cio.obj
 0002:00011a9c       $unwind$?assign@?$basic_string@DU?$char_traits@D@std@@V?$allocator@D@2@@std@@QEAAAEAV12@PEBD_K@Z 0000000180038a9c     cio.obj
 0002:00011aac       $unwind$?initialize_stdio_handles_nolock@@YAXXZ 0000000180038aac     libucrt:ioinit.obj
 0002:00011aac       $unwind$__std_exception_copy 0000000180038aac     libvcruntime:std_exception.obj
 0002:00011aac       $unwind$?assign@?$basic_string@DU?$char_traits@D@std@@V?$allocator@D@2@@std@@QEAAAEAV12@AEBV12@_K1@Z 0000000180038aac     cio.obj
 0002:00011aac       $unwind$_free_osfhnd       0000000180038aac     libucrt:osfinfo.obj
 0002:00011aac       $unwind$_wcstombs_s_l      0000000180038aac     libucrt:wcstombs.obj
 0002:00011ac0       $unwind$?append@?$basic_string@DU?$char_traits@D@std@@V?$allocator@D@2@@std@@QEAAAEAV12@_KD@Z 0000000180038ac0     cio.obj
 0002:00011ac0       $unwind$?append@?$basic_string@DU?$char_traits@D@std@@V?$allocator@D@2@@std@@QEAAAEAV12@PEBD_K@Z 0000000180038ac0     cio.obj
 0002:00011ad0       $chain$0$?append@?$basic_string@DU?$char_traits@D@std@@V?$allocator@D@2@@std@@QEAAAEAV12@PEBD_K@Z 0000000180038ad0     cio.obj
 0002:00011ae4       $chain$1$?append@?$basic_string@DU?$char_traits@D@std@@V?$allocator@D@2@@std@@QEAAAEAV12@PEBD_K@Z 0000000180038ae4     cio.obj
 0002:00011af4       $chain$2$?append@?$basic_string@DU?$char_traits@D@std@@V?$allocator@D@2@@std@@QEAAAEAV12@PEBD_K@Z 0000000180038af4     cio.obj
 0002:00011b08       $unwind$?append@?$basic_string@DU?$char_traits@D@std@@V?$allocator@D@2@@std@@QEAAAEAV12@AEBV12@_K1@Z 0000000180038b08     cio.obj
 0002:00011b1c       $chain$0$?append@?$basic_string@DU?$char_traits@D@std@@V?$allocator@D@2@@std@@QEAAAEAV12@AEBV12@_K1@Z 0000000180038b1c     cio.obj
 0002:00011b30       $chain$1$?append@?$basic_string@DU?$char_traits@D@std@@V?$allocator@D@2@@std@@QEAAAEAV12@AEBV12@_K1@Z 0000000180038b30     cio.obj
 0002:00011b40       $chain$2$?append@?$basic_string@DU?$char_traits@D@std@@V?$allocator@D@2@@std@@QEAAAEAV12@AEBV12@_K1@Z 0000000180038b40     cio.obj
 0002:00011b54       $unwind$?_Getffld@?$num_get@DV?$istreambuf_iterator@DU?$char_traits@D@std@@@std@@@std@@AEBAHPEADAEAV?$istreambuf_iterator@DU?$char_traits@D@std@@@2@1AEAVios_base@2@PEAH@Z 0000000180038b54     cio.obj
 0002:00011b70       $chain$2$?_Getffld@?$num_get@DV?$istreambuf_iterator@DU?$char_traits@D@std@@@std@@@std@@AEBAHPEADAEAV?$istreambuf_iterator@DU?$char_traits@D@std@@@2@1AEAVios_base@2@PEAH@Z 0000000180038b70     cio.obj
 0002:00011b8c       $chain$3$?_Getffld@?$num_get@DV?$istreambuf_iterator@DU?$char_traits@D@std@@@std@@@std@@AEBAHPEADAEAV?$istreambuf_iterator@DU?$char_traits@D@std@@@2@1AEAVios_base@2@PEAH@Z 0000000180038b8c     cio.obj
 0002:00011b9c       $chain$4$?_Getffld@?$num_get@DV?$istreambuf_iterator@DU?$char_traits@D@std@@@std@@@std@@AEBAHPEADAEAV?$istreambuf_iterator@DU?$char_traits@D@std@@@2@1AEAVios_base@2@PEAH@Z 0000000180038b9c     cio.obj
 0002:00011bb8       $unwind$?_Getifld@?$num_get@DV?$istreambuf_iterator@DU?$char_traits@D@std@@@std@@@std@@AEBAHPEADAEAV?$istreambuf_iterator@DU?$char_traits@D@std@@@2@1HAEBVlocale@2@@Z 0000000180038bb8     cio.obj
 0002:00011bdc       $chain$0$?append@?$basic_string@DU?$char_traits@D@std@@V?$allocator@D@2@@std@@QEAAAEAV12@_KD@Z 0000000180038bdc     cio.obj
 0002:00011bf0       $chain$1$?append@?$basic_string@DU?$char_traits@D@std@@V?$allocator@D@2@@std@@QEAAAEAV12@_KD@Z 0000000180038bf0     cio.obj
 0002:00011c00       $chain$2$?append@?$basic_string@DU?$char_traits@D@std@@V?$allocator@D@2@@std@@QEAAAEAV12@_KD@Z 0000000180038c00     cio.obj
 0002:00011c14       $unwind$??Y?$basic_string@DU?$char_traits@D@std@@V?$allocator@D@2@@std@@QEAAAEAV01@D@Z 0000000180038c14     cio.obj
 0002:00011c20       $chain$0$??Y?$basic_string@DU?$char_traits@D@std@@V?$allocator@D@2@@std@@QEAAAEAV01@D@Z 0000000180038c20     cio.obj
 0002:00011c34       $chain$4$??Y?$basic_string@DU?$char_traits@D@std@@V?$allocator@D@2@@std@@QEAAAEAV01@D@Z 0000000180038c34     cio.obj
 0002:00011c34       $chain$6$??Y?$basic_string@DU?$char_traits@D@std@@V?$allocator@D@2@@std@@QEAAAEAV01@D@Z 0000000180038c34     cio.obj
 0002:00011c34       $chain$2$??Y?$basic_string@DU?$char_traits@D@std@@V?$allocator@D@2@@std@@QEAAAEAV01@D@Z 0000000180038c34     cio.obj
 0002:00011c48       $chain$5$??Y?$basic_string@DU?$char_traits@D@std@@V?$allocator@D@2@@std@@QEAAAEAV01@D@Z 0000000180038c48     cio.obj
 0002:00011c58       $unwind$?_Ipfx@?$basic_istream@DU?$char_traits@D@std@@@std@@QEAA_N_N@Z 0000000180038c58     cio.obj
 0002:00011c60       $chain$1$?_Ipfx@?$basic_istream@DU?$char_traits@D@std@@@std@@QEAA_N_N@Z 0000000180038c60     cio.obj
 0002:00011c78       $chain$2$?_Ipfx@?$basic_istream@DU?$char_traits@D@std@@@std@@QEAA_N_N@Z 0000000180038c78     cio.obj
 0002:00011c8c       $chain$3$?_Ipfx@?$basic_istream@DU?$char_traits@D@std@@@std@@QEAA_N_N@Z 0000000180038c8c     cio.obj
 0002:00011c9c       $unwind$?_Getffldx@?$num_get@DV?$istreambuf_iterator@DU?$char_traits@D@std@@@std@@@std@@AEBAHPEADAEAV?$istreambuf_iterator@DU?$char_traits@D@std@@@2@1AEAVios_base@2@PEAH@Z 0000000180038c9c     cio.obj
 0002:00011cc0       $unwind$?_Copy@?$basic_string@DU?$char_traits@D@std@@V?$allocator@D@2@@std@@QEAAX_K0@Z 0000000180038cc0     cio.obj
 0002:00011cd4       $unwind$??$use_facet@V?$ctype@D@std@@@std@@YAAEBV?$ctype@D@0@AEBVlocale@0@@Z 0000000180038cd4     cio.obj
 0002:00011cd4       $unwind$??$use_facet@V?$numpunct@D@std@@@std@@YAAEBV?$numpunct@D@0@AEBVlocale@0@@Z 0000000180038cd4     cio.obj
 0002:00011ce4       $unwind$??$?6DU?$char_traits@D@std@@V?$allocator@D@1@@std@@YAAEAV?$basic_ostream@DU?$char_traits@D@std@@@0@AEAV10@AEBV?$basic_string@DU?$char_traits@D@std@@V?$allocator@D@2@@0@@Z 0000000180038ce4     cio.obj
 0002:00011cfc       $unwind$??$use_facet@V?$num_get@DV?$istreambuf_iterator@DU?$char_traits@D@std@@@std@@@std@@@std@@YAAEBV?$num_get@DV?$istreambuf_iterator@DU?$char_traits@D@std@@@std@@@0@AEBVlocale@0@@Z 0000000180038cfc     cio.obj
 0002:00011d10       $unwind$??$_Getloctxt@DV?$istreambuf_iterator@DU?$char_traits@D@std@@@std@@@std@@YAHAEAV?$istreambuf_iterator@DU?$char_traits@D@std@@@0@0_KPEBD@Z 0000000180038d10     cio.obj
 0002:00011d30       $unwind$?_Getcat@?$numpunct@D@std@@SA_KPEAPEBVfacet@locale@2@PEBV42@@Z 0000000180038d30     cio.obj
 0002:00011d40       $chain$0$?_Getcat@?$numpunct@D@std@@SA_KPEAPEBVfacet@locale@2@PEBV42@@Z 0000000180038d40     cio.obj
 0002:00011d54       $chain$1$?_Getcat@?$numpunct@D@std@@SA_KPEAPEBVfacet@locale@2@PEBV42@@Z 0000000180038d54     cio.obj
 0002:00011d64       $unwind$__acrt_copy_locale_name 0000000180038d64     libucrt:wsetlocale.obj
 0002:00011d64       $unwind$?widen@?$basic_ios@DU?$char_traits@D@std@@@std@@QEBADD@Z 0000000180038d64     cio.obj
 0002:00011d74       $unwind$?_Init@?$numpunct@D@std@@IEAAXAEBV_Locinfo@2@_N@Z 0000000180038d74     cio.obj
 0002:00011d8c       $unwind$??$?5DU?$char_traits@D@std@@V?$allocator@D@1@@std@@YAAEAV?$basic_istream@DU?$char_traits@D@std@@@0@$$QEAV10@AEAV?$basic_string@DU?$char_traits@D@std@@V?$allocator@D@2@@0@@Z 0000000180038d8c     cio.obj
 0002:00011dac       xdata                      0000000180038dac     node:node.exe
 0002:00011db4       $unwind$_Stollx            0000000180038db4     libcpmt:xstoll.obj
 0002:00011db4       $unwind$_Stolx             0000000180038db4     libcpmt:xstol.obj
 0002:00011dcc       $unwind$_Stoulx            0000000180038dcc     libcpmt:xstoul.obj
 0002:00011de4       $unwind$??_Glocale@std@@QEAAPEAXI@Z 0000000180038de4     libcpmt:cout.obj
 0002:00011e00       $ip2state$??_Glocale@std@@QEAAPEAXI@Z 0000000180038e00     libcpmt:cout.obj
 0002:00011e18       $unwind$?_Init@ios_base@std@@IEAAXXZ 0000000180038e18     libcpmt:cout.obj
 0002:00011e30       $ip2state$?_Init@ios_base@std@@IEAAXXZ 0000000180038e30     libcpmt:cout.obj
 0002:00011e48       $unwind$??_Gios_base@std@@UEAAPEAXI@Z 0000000180038e48     libcpmt:cout.obj
 0002:00011e60       $ip2state$??_Gios_base@std@@UEAAPEAXI@Z 0000000180038e60     libcpmt:cout.obj
 0002:00011e78       $unwind$??0?$basic_streambuf@DU?$char_traits@D@std@@@std@@IEAA@XZ 0000000180038e78     libcpmt:cout.obj
 0002:00011e8c       $stateUnwindMap$??__Fcout@std@@YAXXZ 0000000180038e8c     libcpmt:cout.obj
 0002:00011e8c       $stateUnwindMap$??0?$basic_streambuf@DU?$char_traits@D@std@@@std@@IEAA@XZ 0000000180038e8c     libcpmt:cout.obj
 0002:00011e8c       $stateUnwindMap$??_G_Fac_node@std@@QEAAPEAXI@Z 0000000180038e8c     libcpmt:locale0.obj
 0002:00011e8c       $stateUnwindMap$??__Finit_atexit@@YAXXZ 0000000180038e8c     libcpmt:iosptrs.obj
 0002:00011e8c       $stateUnwindMap$??__Fcin@std@@YAXXZ 0000000180038e8c     libcpmt:cin.obj
 0002:00011e8c       $stateUnwindMap$??1?$basic_ios@DU?$char_traits@D@std@@@std@@UEAA@XZ 0000000180038e8c     libcpmt:cout.obj
 0002:00011e8c       $stateUnwindMap$??_G_Locimp@locale@std@@MEAAPEAXI@Z 0000000180038e8c     libcpmt:locale0.obj
 0002:00011e8c       $stateUnwindMap$??_Gios_base@std@@UEAAPEAXI@Z 0000000180038e8c     libcpmt:cout.obj
 0002:00011e8c       $stateUnwindMap$??_G?$basic_ios@DU?$char_traits@D@std@@@std@@UEAAPEAXI@Z 0000000180038e8c     libcpmt:cout.obj
 0002:00011e8c       $stateUnwindMap$??__Fclassic_locale@std@@YAXXZ 0000000180038e8c     libcpmt:locale0.obj
 0002:00011e8c       $stateUnwindMap$??_Glocale@std@@QEAAPEAXI@Z 0000000180038e8c     libcpmt:cout.obj
 0002:00011e8c       $stateUnwindMap$?_Init@ios_base@std@@IEAAXXZ 0000000180038e8c     libcpmt:cout.obj
 0002:00011e8c       $stateUnwindMap$??_G?$basic_ostream@DU?$char_traits@D@std@@@std@@UEAAPEAXI@Z 0000000180038e8c     libcpmt:cout.obj
 0002:00011e8c       $stateUnwindMap$??_G?$basic_istream@DU?$char_traits@D@std@@@std@@UEAAPEAXI@Z 0000000180038e8c     libcpmt:cin.obj
 0002:00011e98       $ip2state$??0?$basic_streambuf@DU?$char_traits@D@std@@@std@@IEAA@XZ 0000000180038e98     libcpmt:cout.obj
 0002:00011eb0       $unwind$?xsputn@?$basic_streambuf@DU?$char_traits@D@std@@@std@@MEAA_JPEBD_J@Z 0000000180038eb0     libcpmt:cout.obj
 0002:00011ec8       $unwind$??1?$basic_filebuf@DU?$char_traits@D@std@@@std@@UEAA@XZ 0000000180038ec8     libcpmt:cout.obj
 0002:00011ed8       $ip2state$??1?$basic_filebuf@DU?$char_traits@D@std@@@std@@UEAA@XZ 0000000180038ed8     libcpmt:cout.obj
 0002:00011ee0       $unwind$?overflow@?$basic_filebuf@DU?$char_traits@D@std@@@std@@MEAAHH@Z 0000000180038ee0     libcpmt:cout.obj
 0002:00011f08       $stateUnwindMap$?uflow@?$basic_filebuf@DU?$char_traits@D@std@@@std@@MEAAHXZ 0000000180038f08     libcpmt:cout.obj
 0002:00011f08       $stateUnwindMap$?overflow@?$basic_filebuf@DU?$char_traits@D@std@@@std@@MEAAHH@Z 0000000180038f08     libcpmt:cout.obj
 0002:00011f10       $ip2state$?overflow@?$basic_filebuf@DU?$char_traits@D@std@@@std@@MEAAHH@Z 0000000180038f10     libcpmt:cout.obj
 0002:00011f28       $unwind$?uflow@?$basic_filebuf@DU?$char_traits@D@std@@@std@@MEAAHXZ 0000000180038f28     libcpmt:cout.obj
 0002:00011f58       $ip2state$?uflow@?$basic_filebuf@DU?$char_traits@D@std@@@std@@MEAAHXZ 0000000180038f58     libcpmt:cout.obj
 0002:00011f70       $unwind$?seekoff@?$basic_filebuf@DU?$char_traits@D@std@@@std@@MEAA?AV?$fpos@U_Mbstatet@@@2@_JHH@Z 0000000180038f70     libcpmt:cout.obj
 0002:00011f84       $unwind$?seekpos@?$basic_filebuf@DU?$char_traits@D@std@@@std@@MEAA?AV?$fpos@U_Mbstatet@@@2@V32@H@Z 0000000180038f84     libcpmt:cout.obj
 0002:00011f98       $unwind$?_Init@?$basic_filebuf@DU?$char_traits@D@std@@@std@@IEAAXPEAU_iobuf@@W4_Initfl@12@@Z 0000000180038f98     libcpmt:cout.obj
 0002:00011fa4       $unwind$?_Endwrite@?$basic_filebuf@DU?$char_traits@D@std@@@std@@IEAA_NXZ 0000000180038fa4     libcpmt:cout.obj
 0002:00011fcc       $stateUnwindMap$?_Endwrite@?$basic_filebuf@DU?$char_traits@D@std@@@std@@IEAA_NXZ 0000000180038fcc     libcpmt:cout.obj
 0002:00011fd8       $ip2state$?_Endwrite@?$basic_filebuf@DU?$char_traits@D@std@@@std@@IEAA_NXZ 0000000180038fd8     libcpmt:cout.obj
 0002:00011ff0       $unwind$??1?$basic_ios@DU?$char_traits@D@std@@@std@@UEAA@XZ 0000000180038ff0     libcpmt:cout.obj
 0002:00012000       $ip2state$??1?$basic_ios@DU?$char_traits@D@std@@@std@@UEAA@XZ 0000000180039000     libcpmt:cout.obj
 0002:00012018       $unwind$??_G?$basic_ios@DU?$char_traits@D@std@@@std@@UEAAPEAXI@Z 0000000180039018     libcpmt:cout.obj
 0002:00012030       $ip2state$??_G?$basic_ios@DU?$char_traits@D@std@@@std@@UEAAPEAXI@Z 0000000180039030     libcpmt:cout.obj
 0002:00012048       $unwind$??0?$basic_ostream@DU?$char_traits@D@std@@@std@@QEAA@PEAV?$basic_streambuf@DU?$char_traits@D@std@@@1@_N@Z 0000000180039048     libcpmt:cout.obj
 0002:00012060       $stateUnwindMap$??0?$basic_ostream@DU?$char_traits@D@std@@@std@@QEAA@PEAV?$basic_streambuf@DU?$char_traits@D@std@@@1@_N@Z 0000000180039060     libcpmt:cout.obj
 0002:00012068       $ip2state$??0?$basic_ostream@DU?$char_traits@D@std@@@std@@QEAA@PEAV?$basic_streambuf@DU?$char_traits@D@std@@@1@_N@Z 0000000180039068     libcpmt:cout.obj
 0002:00012080       $unwind$??_G?$basic_ostream@DU?$char_traits@D@std@@@std@@UEAAPEAXI@Z 0000000180039080     libcpmt:cout.obj
 0002:00012098       $ip2state$??_G?$basic_ostream@DU?$char_traits@D@std@@@std@@UEAAPEAXI@Z 0000000180039098     libcpmt:cout.obj
 0002:000120b0       $unwind$??__Fcout@std@@YAXXZ 00000001800390b0     libcpmt:cout.obj
 0002:000120c0       $ip2state$??__Fcout@std@@YAXXZ 00000001800390c0     libcpmt:cout.obj
 0002:000120d8       $unwind$??$use_facet@V?$codecvt@DDU_Mbstatet@@@std@@@std@@YAAEBV?$codecvt@DDU_Mbstatet@@@0@AEBVlocale@0@@Z 00000001800390d8     libcpmt:cout.obj
 0002:000120f0       $stateUnwindMap$??$use_facet@V?$codecvt@DDU_Mbstatet@@@std@@@std@@YAAEBV?$codecvt@DDU_Mbstatet@@@0@AEBVlocale@0@@Z 00000001800390f0     libcpmt:cout.obj
 0002:000120f8       $ip2state$??$use_facet@V?$codecvt@DDU_Mbstatet@@@std@@@std@@YAAEBV?$codecvt@DDU_Mbstatet@@@0@AEBVlocale@0@@Z 00000001800390f8     libcpmt:cout.obj
 0002:00012110       $unwind$?_Getcat@?$codecvt@DDU_Mbstatet@@@std@@SA_KPEAPEBVfacet@locale@2@PEBV42@@Z 0000000180039110     libcpmt:cout.obj
 0002:00012130       $stateUnwindMap$?_Getcat@?$codecvt@DDU_Mbstatet@@@std@@SA_KPEAPEBVfacet@locale@2@PEBV42@@Z 0000000180039130     libcpmt:cout.obj
 0002:00012138       $ip2state$?_Getcat@?$codecvt@DDU_Mbstatet@@@std@@SA_KPEAPEBVfacet@locale@2@PEBV42@@Z 0000000180039138     libcpmt:cout.obj
 0002:00012150       $unwind$??_G_Fac_node@std@@QEAAPEAXI@Z 0000000180039150     libcpmt:locale0.obj
 0002:00012170       $ip2state$??_G_Fac_node@std@@QEAAPEAXI@Z 0000000180039170     libcpmt:locale0.obj
 0002:00012188       $unwind$?_Locimp_dtor@_Locimp@locale@std@@CAXPEAV123@@Z 0000000180039188     libcpmt:locale0.obj
 0002:000121a8       $ip2state$?_Locimp_dtor@_Locimp@locale@std@@CAXPEAV123@@Z 00000001800391a8     libcpmt:locale0.obj
 0002:000121c0       $unwind$??_G_Locimp@locale@std@@MEAAPEAXI@Z 00000001800391c0     libcpmt:locale0.obj
 0002:000121d8       $ip2state$??_G_Locimp@locale@std@@MEAAPEAXI@Z 00000001800391d8     libcpmt:locale0.obj
 0002:000121f0       $unwind$?_Init@locale@std@@CAPEAV_Locimp@12@_N@Z 00000001800391f0     libcpmt:locale0.obj
 0002:00012208       $stateUnwindMap$?_Init@locale@std@@CAPEAV_Locimp@12@_N@Z 0000000180039208     libcpmt:locale0.obj
 0002:00012208       $stateUnwindMap$?_Locimp_dtor@_Locimp@locale@std@@CAXPEAV123@@Z 0000000180039208     libcpmt:locale0.obj
 0002:00012210       $ip2state$?_Init@locale@std@@CAPEAV_Locimp@12@_N@Z 0000000180039210     libcpmt:locale0.obj
 0002:00012228       $unwind$??__Fclassic_locale@std@@YAXXZ 0000000180039228     libcpmt:locale0.obj
 0002:00012240       $ip2state$??__Fclassic_locale@std@@YAXXZ 0000000180039240     libcpmt:locale0.obj
 0002:00012258       $unwind$??0?$basic_istream@DU?$char_traits@D@std@@@std@@QEAA@PEAV?$basic_streambuf@DU?$char_traits@D@std@@@1@_N@Z 0000000180039258     libcpmt:cin.obj
 0002:00012270       $stateUnwindMap$??0?$basic_istream@DU?$char_traits@D@std@@@std@@QEAA@PEAV?$basic_streambuf@DU?$char_traits@D@std@@@1@_N@Z 0000000180039270     libcpmt:cin.obj
 0002:00012278       $ip2state$??0?$basic_istream@DU?$char_traits@D@std@@@std@@QEAA@PEAV?$basic_streambuf@DU?$char_traits@D@std@@@1@_N@Z 0000000180039278     libcpmt:cin.obj
 0002:00012290       $unwind$??_G?$basic_istream@DU?$char_traits@D@std@@@std@@UEAAPEAXI@Z 0000000180039290     libcpmt:cin.obj
 0002:000122a8       $ip2state$??_G?$basic_istream@DU?$char_traits@D@std@@@std@@UEAAPEAXI@Z 00000001800392a8     libcpmt:cin.obj
 0002:000122c0       $unwind$??__Fcin@std@@YAXXZ 00000001800392c0     libcpmt:cin.obj
 0002:000122d0       $ip2state$??__Fcin@std@@YAXXZ 00000001800392d0     libcpmt:cin.obj
 0002:000122e8       $unwind$_Stoullx           00000001800392e8     libcpmt:xstoull.obj
 0002:00012300       $unwind$_Tolower           0000000180039300     libcpmt:_tolower.obj
 0002:00012310       $unwind$_Toupper           0000000180039310     libcpmt:_toupper.obj
 0002:00012324       $unwind$??__Finit_atexit@@YAXXZ 0000000180039324     libcpmt:iosptrs.obj
 0002:00012338       $ip2state$??__Finit_atexit@@YAXXZ 0000000180039338     libcpmt:iosptrs.obj
 0002:00012350       $unwind$__crtLCMapStringA  0000000180039350     libcpmt:StlLCMapStringA.obj
 0002:00012378       $unwind$_mbtowc_l          0000000180039378     libucrt:mbtowc.obj
 0002:00012378       $unwind$__crtLCMapStringEx 0000000180039378     libcpmt:winapinls.obj
 0002:00012378       $unwind$__acrt_LCMapStringEx 0000000180039378     libucrt:winapi_thunks.obj
 0002:00012390       $xdatasym                  0000000180039390     LIBCMT:_amdsecgs_.obj
 0002:00012394       $unwind$__scrt_is_nonwritable_in_current_image 0000000180039394     LIBCMT:utility.obj
 0002:000123b4       $unwind$__scrt_is_nonwritable_in_current_image$filt$0 00000001800393b4     LIBCMT:utility.obj
 0002:000123bc       $unwind$__scrt_initialize_onexit_tables 00000001800393bc     LIBCMT:utility.obj
 0002:000123c8       $unwind$__acrt_free_locale 00000001800393c8     libucrt:locale_refcounting.obj
 0002:000123c8       $unwind$?_ExecutionInCatch@@YAHPEAU_xDISPATCHER_CONTEXT@@PEBU_s_FuncInfo@@@Z 00000001800393c8     libvcruntime:trnsctrl.obj
 0002:000123c8       $unwind$?setSBCS@@YAXPEAU__crt_multibyte_data@@@Z 00000001800393c8     libucrt:mbctype.obj
 0002:000123c8       $unwind$_seh_filter_exe    00000001800393c8     libucrt:exception_filter.obj
 0002:000123c8       $unwind$?dllmain_raw@@YAHQEAUHINSTANCE__@@KQEAX@Z 00000001800393c8     LIBCMT:dll_dllmain.obj
 0002:000123c8       $unwind$_recalloc_base     00000001800393c8     libucrt:recalloc.obj
 0002:000123c8       $unwind$__acrt_InitializeCriticalSectionEx 00000001800393c8     libucrt:winapi_thunks.obj
 0002:000123c8       $unwind$?expand_if_necessary@?$argument_list@D@?A0xca0879c4@@AEAAHXZ 00000001800393c8     libucrt:argv_wildcards.obj
 0002:000123c8       $unwind$__acrt_lowio_create_handle_array 00000001800393c8     libucrt:osfinfo.obj
 0002:000123c8       $unwind$__acrt_execute_initializers 00000001800393c8     libucrt:shared_initialization.obj
 0002:000123c8       $unwind$__crtInitializeCriticalSectionEx 00000001800393c8     libcpmt:winapisupp.obj
 0002:000123c8       $unwind$__scrt_dllmain_exception_filter 00000001800393c8     LIBCMT:utility.obj
 0002:000123c8       $unwind$__vcrt_InitializeCriticalSectionEx 00000001800393c8     libvcruntime:winapi_downlevel.obj
 0002:000123dc       $unwind$?dllmain_crt_process_attach@@YAHQEAUHINSTANCE__@@QEAX@Z 00000001800393dc     LIBCMT:dll_dllmain.obj
 0002:00012408       $unwind$?dllmain_crt_process_detach@@YAH_N@Z 0000000180039408     LIBCMT:dll_dllmain.obj
 0002:00012430       $unwind$?dllmain_dispatch@@YAHQEAUHINSTANCE__@@KQEAX@Z 0000000180039430     LIBCMT:dll_dllmain.obj
 0002:00012458       $unwind$__GSHandlerCheckCommon 0000000180039458     LIBCMT:_gshandler_.obj
 0002:00012460       $xdatasym                  0000000180039460     LIBCMT:_chkstk_.obj
 0002:00012468       $unwind$__report_securityfailure 0000000180039468     LIBCMT:gs_report.obj
 0002:00012470       $unwind$_putwch_nolock     0000000180039470     libucrt:putwch.obj
 0002:00012470       $unwind$__report_gsfailure 0000000180039470     LIBCMT:gs_report.obj
 0002:00012478       $unwind$capture_current_context 0000000180039478     LIBCMT:gs_report.obj
 0002:00012484       $unwind$capture_previous_context 0000000180039484     LIBCMT:gs_report.obj
 0002:00012490       $unwind$__scrt_fastfail    0000000180039490     LIBCMT:utility_desktop.obj
 0002:000124a0       $unwind$__isa_available_init 00000001800394a0     LIBCMT:_cpu_disp_.obj
 0002:000124b0       $unwind$__security_init_cookie 00000001800394b0     LIBCMT:gs_support.obj
 0002:000124c0       $xdatasym                  00000001800394c0     LIBCMT:_guard_dispatch_.obj
 0002:000124c8       $xdatasym                  00000001800394c8     libvcruntime:memcpy.obj
 0002:000124cc       $unwind$__CxxCallCatchBlock 00000001800394cc     libvcruntime:frame.obj
 0002:00012508       $unwind$__CxxCallCatchBlock$fin$1 0000000180039508     libvcruntime:frame.obj
 0002:00012514       $unwind$__FrameUnwindToState 0000000180039514     libvcruntime:frame.obj
 0002:00012550       $unwind$?FindHandler@@YAXPEAUEHExceptionRecord@@PEA_KPEAU_CONTEXT@@PEAU_xDISPATCHER_CONTEXT@@PEBU_s_FuncInfo@@EH1@Z 0000000180039550     libvcruntime:frame.obj
 0002:00012570       $unwind$?CatchIt@@YAXPEAUEHExceptionRecord@@PEA_KPEAU_CONTEXT@@PEAU_xDISPATCHER_CONTEXT@@PEBU_s_FuncInfo@@PEBU_s_HandlerType@@PEBU_s_CatchableType@@PEBU_s_TryBlockMapEntry@@H1EE@Z 0000000180039570     libvcruntime:frame.obj
 0002:00012588       $unwind$__BuildCatchObject 0000000180039588     libvcruntime:frame.obj
 0002:000125b4       $unwind$?FindHandlerForForeignException@@YAXPEAUEHExceptionRecord@@PEA_KPEAU_CONTEXT@@PEAU_xDISPATCHER_CONTEXT@@PEBU_s_FuncInfo@@HH1@Z 00000001800395b4     libvcruntime:frame.obj
 0002:000125cc       $unwind$__DestructExceptionObject 00000001800395cc     libvcruntime:frame.obj
 0002:000125f0       $unwind$?try_get_function@@YAPEAXW4function_id@?A0x63058377@@QEBDQEBW4module_id@2@2@Z 00000001800395f0     libucrt:winapi_thunks.obj
 0002:000125f0       $unwind$?IsInExceptionSpec@@YAEPEAUEHExceptionRecord@@PEBU_s_ESTypeList@@@Z 00000001800395f0     libvcruntime:frame.obj
 0002:000125f0       $unwind$_fwrite_nolock     00000001800395f0     libucrt:fwrite.obj
 0002:000125f0       $unwind$?try_get_function@@YAPEAXW4function_id@?A0x679b24ab@@QEBDQEBW4module_id@2@2@Z 00000001800395f0     libvcruntime:winapi_downlevel.obj
 0002:0001260c       $unwind$__BuildCatchObjectHelper 000000018003960c     libvcruntime:frame.obj
 0002:0001264c       $unwind$_CxxThrowException 000000018003964c     libvcruntime:throw.obj
 0002:00012660       $unwind$?_GetEstablisherFrame@@YAPEA_KPEA_KPEAU_xDISPATCHER_CONTEXT@@PEBU_s_FuncInfo@@0@Z 0000000180039660     libvcruntime:trnsctrl.obj
 0002:00012678       $unwind$?__FrameUnwindToEmptyState@@YAXPEA_KPEAU_xDISPATCHER_CONTEXT@@PEBU_s_FuncInfo@@@Z 0000000180039678     libvcruntime:trnsctrl.obj
 0002:0001268c       $unwind$_CallSETranslator  000000018003968c     libvcruntime:trnsctrl.obj
 0002:000126b0       $unwind$_CallSETranslator$filt$0 00000001800396b0     libvcruntime:trnsctrl.obj
 0002:000126b8       $unwind$_UnwindNestedFrames 00000001800396b8     libvcruntime:trnsctrl.obj
 0002:000126cc       $unwind$__CxxFrameHandler3 00000001800396cc     libvcruntime:trnsctrl.obj
 0002:000126dc       $unwind$_wcsicmp_l         00000001800396dc     libucrt:wcsicmp.obj
 0002:000126dc       $unwind$?__SehTransFilter@@YAHPEAU_EXCEPTION_POINTERS@@PEAUEHExceptionRecord@@PEA_KPEAU_CONTEXT@@PEAU_xDISPATCHER_CONTEXT@@PEBU_s_FuncInfo@@PEAH@Z 00000001800396dc     libvcruntime:trnsctrl.obj
 0002:000126f0       $xdatasym                  00000001800396f0     libvcruntime:memset.obj
 0002:000126f8       $xdatasym                  00000001800396f8     libvcruntime:memcmp.obj
 0002:00012700       $xdatasym                  0000000180039700     libvcruntime:handlers.obj
 0002:00012708       $xdatasym                  0000000180039708     libvcruntime:_jmpuwind_.obj
 0002:0001271c       $unwind$?divide@__crt_strtox@@YA_KAEAUbig_integer@1@AEBU21@@Z 000000018003971c     libucrt:strtod.obj
 0002:0001273c       $chain$5$?divide@__crt_strtox@@YA_KAEAUbig_integer@1@AEBU21@@Z 000000018003973c     libucrt:strtod.obj
 0002:00012750       $chain$6$?divide@__crt_strtox@@YA_KAEAUbig_integer@1@AEBU21@@Z 0000000180039750     libucrt:strtod.obj
 0002:00012760       $unwind$_invalid_parameter_noinfo_noreturn 0000000180039760     libucrt:invalid_parameter.obj
 0002:00012760       $unwind$??$parse_floating_point_write_result@M@__crt_strtox@@YA?AW4SLD_STATUS@@W4floating_point_parse_result@0@AEBUfloating_point_string@0@QEAM@Z 0000000180039760     libucrt:strtod.obj
 0002:00012760       $unwind$?as_double@floating_point_value@__crt_strtox@@QEBAAEANXZ 0000000180039760     libucrt:strtod.obj
 0002:00012760       $unwind$_invalid_parameter_noinfo 0000000180039760     libucrt:invalid_parameter.obj
 0002:00012760       $unwind$_itow_s            0000000180039760     libucrt:xtoa.obj
 0002:00012760       $unwind$mbstowcs_s         0000000180039760     libucrt:mbstowcs.obj
 0002:00012760       $unwind$_log10_special     0000000180039760     libucrt:log_special.obj
 0002:00012760       $unwind$??$parse_floating_point_write_result@N@__crt_strtox@@YA?AW4SLD_STATUS@@W4floating_point_parse_result@0@AEBUfloating_point_string@0@QEAN@Z 0000000180039760     libucrt:strtod.obj
 0002:00012760       $unwind$?as_float@floating_point_value@__crt_strtox@@QEBAAEAMXZ 0000000180039760     libucrt:strtod.obj
 0002:00012760       $unwind$_wtol              0000000180039760     libucrt:atox.obj
 0002:00012768       $unwind$?assemble_floating_point_value@__crt_strtox@@YA?AW4SLD_STATUS@@_KH_N1AEBVfloating_point_value@1@@Z 0000000180039768     libucrt:strtod.obj
 0002:00012780       $unwind$_wsetlocale_get_all 0000000180039780     libucrt:wsetlocale.obj
 0002:00012780       $unwind$?assemble_floating_point_value_from_big_integer@__crt_strtox@@YA?AW4SLD_STATUS@@AEBUbig_integer@1@I_N1AEBVfloating_point_value@1@@Z 0000000180039780     libucrt:strtod.obj
 0002:0001279c       $unwind$?convert_decimal_string_to_floating_type_common@__crt_strtox@@YA?AW4SLD_STATUS@@AEBUfloating_point_string@1@AEBVfloating_point_value@1@@Z 000000018003979c     libucrt:strtod.obj
 0002:000127c0       $unwind$?convert_hexadecimal_string_to_floating_type_common@__crt_strtox@@YA?AW4SLD_STATUS@@AEBUfloating_point_string@1@AEBVfloating_point_value@1@@Z 00000001800397c0     libucrt:strtod.obj
 0002:000127cc       $unwind$??$common_strtod_l@MD@@YAMQEBDQEAPEADQEAU__crt_locale_pointers@@@Z 00000001800397cc     libucrt:strtod.obj
 0002:000127cc       $unwind$??$common_strtod_l@ND@@YANQEBDQEAPEADQEAU__crt_locale_pointers@@@Z 00000001800397cc     libucrt:strtod.obj
 0002:000127d8       $unwind$??$parse_floating_point@V?$c_string_character_source@D@__crt_strtox@@N@__crt_strtox@@YA?AW4SLD_STATUS@@QEAU__crt_locale_pointers@@V?$c_string_character_source@D@0@QEAN@Z 00000001800397d8     libucrt:strtod.obj
 0002:000127d8       $unwind$??$parse_floating_point@V?$c_string_character_source@D@__crt_strtox@@M@__crt_strtox@@YA?AW4SLD_STATUS@@QEAU__crt_locale_pointers@@V?$c_string_character_source@D@0@QEAM@Z 00000001800397d8     libucrt:strtod.obj
 0002:000127f0       $unwind$??$parse_floating_point_from_source@V?$c_string_character_source@D@__crt_strtox@@@__crt_strtox@@YA?AW4floating_point_parse_result@0@QEAU__crt_locale_pointers@@AEAV?$c_string_character_source@D@0@AEAUfloating_point_string@0@@Z 00000001800397f0     libucrt:strtod.obj
 0002:00012808       $unwind$??$parse_floating_point_possible_infinity@DV?$c_string_character_source@D@__crt_strtox@@PEBD@__crt_strtox@@YA?AW4floating_point_parse_result@0@AEADAEAV?$c_string_character_source@D@0@PEBD@Z 0000000180039808     libucrt:strtod.obj
 0002:00012818       $unwind$??$parse_floating_point_possible_nan@DV?$c_string_character_source@D@__crt_strtox@@PEBD@__crt_strtox@@YA?AW4floating_point_parse_result@0@AEADAEAV?$c_string_character_source@D@0@PEBD@Z 0000000180039818     libucrt:strtod.obj
 0002:00012824       $unwind$__acrt_call_reportfault 0000000180039824     libucrt:invalid_parameter.obj
 0002:00012844       $unwind$_invalid_parameter 0000000180039844     libucrt:invalid_parameter.obj
 0002:0001285c       $unwind$ldexp              000000018003985c     libucrt:ldexp.obj
 0002:00012870       $unwind$_isleadbyte_l      0000000180039870     libucrt:_wctype.obj
 0002:00012870       $unwind$isspace            0000000180039870     libucrt:_ctype.obj
 0002:00012870       $unwind$?getSystemCP@@YAHH@Z 0000000180039870     libucrt:mbctype.obj
 0002:00012870       $unwind$isupper            0000000180039870     libucrt:_ctype.obj
 0002:00012870       $unwind$islower            0000000180039870     libucrt:_ctype.obj
 0002:00012878       $unwind$_tolower_l         0000000180039878     libucrt:tolower_toupper.obj
 0002:00012888       $unwind$fclose             0000000180039888     libucrt:fclose.obj
 0002:000128ac       $unwind$fflush             00000001800398ac     libucrt:fflush.obj
 0002:000128d0       $unwind$common_flush_all   00000001800398d0     libucrt:fflush.obj
 0002:0001290c       $unwind$fgetc              000000018003990c     libucrt:fgetc.obj
 0002:00012940       $unwind$fputc              0000000180039940     libucrt:fputc.obj
 0002:00012974       $unwind$?common_fseek_binary_mode_read_only_fast_track_nolock@@YA_NV__crt_stdio_stream@@_JH@Z 0000000180039974     libucrt:fseek.obj
 0002:00012980       $unwind$?common_fseek@@YAHV__crt_stdio_stream@@_JH@Z 0000000180039980     libucrt:fseek.obj
 0002:000129a4       $unwind$fwrite             00000001800399a4     libucrt:fwrite.obj
 0002:000129ac       $unwind$??$?RV<lambda_5d4c3fee44080f75d5d9762853974fe0>@@AEAV<lambda_532e024f4337e6fc7ad266c2bef9f4ed>@@V<lambda_c87bdc10097eb2402edb8ba9bdf0697b>@@@?$__crt_seh_guarded_call@_K@@QEAA_K$$QEAV<lambda_5d4c3fee44080f75d5d9762853974fe0>@@AEAV<lambda_532e024f4337e6fc7ad266c2bef9f4ed>@@$$QEAV<lambda_c87bdc10097eb2402edb8ba9bdf0697b>@@@Z 00000001800399ac     libucrt:fwrite.obj
 0002:000129d0       $unwind$setvbuf            00000001800399d0     libucrt:setvbuf.obj
 0002:000129d8       $unwind$??$?RV<lambda_7a5ef57ff966f610505f1d28a3d40618>@@AEAV<lambda_b721fa326cdb32351d23dfa67958c160>@@V<lambda_5e0fb27672408a07956fe59e48ccb2aa>@@@?$__crt_seh_guarded_call@H@@QEAAH$$QEAV<lambda_7a5ef57ff966f610505f1d28a3d40618>@@AEAV<lambda_b721fa326cdb32351d23dfa67958c160>@@$$QEAV<lambda_5e0fb27672408a07956fe59e48ccb2aa>@@@Z 00000001800399d8     libucrt:setvbuf.obj
 0002:000129fc       $unwind$ungetc             00000001800399fc     libucrt:ungetc.obj
 0002:00012a20       $unwind$setlocale          0000000180039a20     libucrt:setlocale.obj
 0002:00012a50       $unwind$setlocale$fin$0    0000000180039a50     libucrt:setlocale.obj
 0002:00012a50       $unwind$?filt$0@?0??dllmain_dispatch@@YAHQEAUHINSTANCE__@@KQEAX@Z@4HA 0000000180039a50     LIBCMT:dll_dllmain.obj
 0002:00012a58       $unwind$call_wsetlocale    0000000180039a58     libucrt:setlocale.obj
 0002:00012a6c       $unwind$__acrt_locale_initialize_ctype 0000000180039a6c     libucrt:initctype.obj
 0002:00012a98       $xdatasym                  0000000180039a98     libucrt:pow.obj
 0002:00012aa8       $xdatasym                  0000000180039aa8     libucrt:powf.obj
 0002:00012ab8       $unwind$wcsnlen            0000000180039ab8     libucrt:strnlen.obj
 0002:00012ac0       $unwind$_query_new_handler 0000000180039ac0     libucrt:new_handler.obj
 0002:00012ae0       $unwind$?common_exit@@YAXHW4_crt_exit_cleanup_mode@@W4_crt_exit_return_mode@@@Z 0000000180039ae0     libucrt:exit.obj
 0002:00012b20       $unwind$_configure_narrow_argv 0000000180039b20     libucrt:argv_parsing.obj
 0002:00012b34       $unwind$??$free_environment@_W@@YAXQEAPEA_W@Z 0000000180039b34     libucrt:environment_initialization.obj
 0002:00012b34       $unwind$??$free_environment@D@@YAXQEAPEAD@Z 0000000180039b34     libucrt:environment_initialization.obj
 0002:00012b40       $unwind$??$create_environment@D@@YAQEAPEADQEAD@Z 0000000180039b40     libucrt:environment_initialization.obj
 0002:00012b40       $unwind$__lc_wcstolc       0000000180039b40     libucrt:wsetlocale.obj
 0002:00012b58       $unwind$_register_onexit_function 0000000180039b58     libucrt:onexit.obj
 0002:00012b60       $unwind$_execute_onexit_table 0000000180039b60     libucrt:onexit.obj
 0002:00012b68       $unwind$??R<lambda_4e60a939b0d047cfe11ddc22648dfba9>@@QEBAHXZ 0000000180039b68     libucrt:onexit.obj
 0002:00012b68       $unwind$?_GetRangeOfTrysToCheck@@YAPEBU_s_TryBlockMapEntry@@PEA_KPEBU_s_FuncInfo@@HHPEAI2PEAU_xDISPATCHER_CONTEXT@@@Z 0000000180039b68     libvcruntime:trnsctrl.obj
 0002:00012b68       $unwind$TranslateName      0000000180039b68     libucrt:get_qualified_locale.obj
 0002:00012b68       $unwind$??$parse_command_line@D@@YAXPEADPEAPEAD0PEA_K2@Z 0000000180039b68     libucrt:argv_parsing.obj
 0002:00012b84       $unwind$??$?RV<lambda_b8c45f8f788dd370798f47cfe8ac3a86>@@AEAV<lambda_4e60a939b0d047cfe11ddc22648dfba9>@@V<lambda_332c3edc96d0294ec56c57d38c1cdfd5>@@@?$__crt_seh_guarded_call@H@@QEAAH$$QEAV<lambda_b8c45f8f788dd370798f47cfe8ac3a86>@@AEAV<lambda_4e60a939b0d047cfe11ddc22648dfba9>@@$$QEAV<lambda_332c3edc96d0294ec56c57d38c1cdfd5>@@@Z 0000000180039b84     libucrt:onexit.obj
 0002:00012ba8       $unwind$??$?RV<lambda_e24bbb7b643b32fcea6fa61b31d4c984>@@AEAV<lambda_275893d493268fdec8709772e3fcec0e>@@V<lambda_9d71df4d7cf3f480f8d633942495c3b0>@@@?$__crt_seh_guarded_call@H@@QEAAH$$QEAV<lambda_e24bbb7b643b32fcea6fa61b31d4c984>@@AEAV<lambda_275893d493268fdec8709772e3fcec0e>@@$$QEAV<lambda_9d71df4d7cf3f480f8d633942495c3b0>@@@Z 0000000180039ba8     libucrt:onexit.obj
 0002:00012bd8       $unwind$terminate          0000000180039bd8     libucrt:terminate.obj
 0002:00012bf8       $unwind$??$parse_integer@KV?$c_string_character_source@_W@__crt_strtox@@@__crt_strtox@@YAKQEAU__crt_locale_pointers@@V?$c_string_character_source@_W@0@H_N@Z 0000000180039bf8     libucrt:atox.obj
 0002:00012c14       $unwind$__acrt_get_sigabrt_handler 0000000180039c14     libucrt:signal.obj
 0002:00012c1c       $unwind$raise              0000000180039c1c     libucrt:signal.obj
 0002:00012c48       $unwind$??$?RV<lambda_c36588078e9f5dfd39652860aa6b3aaf>@@AEAV<lambda_ec61778202f4f5fc7e7711acc23c3bca>@@V<lambda_dc9d2797ccde5d239b4a0efae8ebd7db>@@@?$__crt_seh_guarded_call@P6AXH@Z@@QEAAP6AXH@Z$$QEAV<lambda_c36588078e9f5dfd39652860aa6b3aaf>@@AEAV<lambda_ec61778202f4f5fc7e7711acc23c3bca>@@$$QEAV<lambda_dc9d2797ccde5d239b4a0efae8ebd7db>@@@Z 0000000180039c48     libucrt:signal.obj
 0002:00012c6c       $unwind$__acrt_is_packaged_app 0000000180039c6c     libucrt:winapi_thunks.obj
 0002:00012c6c       $unwind$iswctype           0000000180039c6c     libucrt:iswctype.obj
 0002:00012c78       $unwind$_isctype_l         0000000180039c78     libucrt:isctype.obj
 0002:00012c94       $unwind$?construct_ptd_array@@YAXQEAU__acrt_ptd@@@Z 0000000180039c94     libucrt:per_thread_data.obj
 0002:00012c9c       $unwind$?destroy_ptd_array@@YAXQEAU__acrt_ptd@@@Z 0000000180039c9c     libucrt:per_thread_data.obj
 0002:00012ca4       $unwind$??$?RV<lambda_72d1df2b273a38828b1ce30cbf4cdab5>@@AEAV<lambda_876a65b173b8412d3a47c70a915b0cf4>@@V<lambda_41932305e351933ebe8f8be3ed8bb5dc>@@@?$__crt_seh_guarded_call@X@@QEAAX$$QEAV<lambda_72d1df2b273a38828b1ce30cbf4cdab5>@@AEAV<lambda_876a65b173b8412d3a47c70a915b0cf4>@@$$QEAV<lambda_41932305e351933ebe8f8be3ed8bb5dc>@@@Z 0000000180039ca4     libucrt:per_thread_data.obj
 0002:00012cc8       $unwind$??$?RV<lambda_5e887d1dcbef67a5eb4283622ba103bf>@@AEAV<lambda_4466841279450cc726390878d4a41900>@@V<lambda_341c25c0346d94847f1f3c463c57e077>@@@?$__crt_seh_guarded_call@X@@QEAAX$$QEAV<lambda_5e887d1dcbef67a5eb4283622ba103bf>@@AEAV<lambda_4466841279450cc726390878d4a41900>@@$$QEAV<lambda_341c25c0346d94847f1f3c463c57e077>@@@Z 0000000180039cc8     libucrt:per_thread_data.obj
 0002:00012cec       $unwind$??$?RV<lambda_46352004c1216016012b18bd6f87e700>@@AEAV<lambda_3bd07e1a1191394380780325891bf33f>@@V<lambda_334532d3f185bcaa59b5be82d7d22bff>@@@?$__crt_seh_guarded_call@X@@QEAAX$$QEAV<lambda_46352004c1216016012b18bd6f87e700>@@AEAV<lambda_3bd07e1a1191394380780325891bf33f>@@$$QEAV<lambda_334532d3f185bcaa59b5be82d7d22bff>@@@Z 0000000180039cec     libucrt:per_thread_data.obj
 0002:00012d10       $unwind$??$?RV<lambda_fb3a7dec4e47f37f22dae91bb15c9095>@@AEAV<lambda_698284760c8add0bfb0756c19673e34b>@@V<lambda_dfb8eca1e75fef3034a8fb18dd509707>@@@?$__crt_seh_guarded_call@X@@QEAAX$$QEAV<lambda_fb3a7dec4e47f37f22dae91bb15c9095>@@AEAV<lambda_698284760c8add0bfb0756c19673e34b>@@$$QEAV<lambda_dfb8eca1e75fef3034a8fb18dd509707>@@@Z 0000000180039d10     libucrt:per_thread_data.obj
 0002:00012d34       $unwind$_wsetlocale        0000000180039d34     libucrt:wsetlocale.obj
 0002:00012d3c       $unwind$_expandlocale      0000000180039d3c     libucrt:wsetlocale.obj
 0002:00012d5c       $unwind$_wcscats           0000000180039d5c     libucrt:wsetlocale.obj
 0002:00012d6c       $unwind$__lc_lctowcs       0000000180039d6c     libucrt:wsetlocale.obj
 0002:00012d6c       $unwind$_wcsdup            0000000180039d6c     libucrt:wcsdup.obj
 0002:00012d6c       $unwind$__acrt_DownlevelLCIDToLocaleName 0000000180039d6c     libucrt:lcidtoname_downlevel.obj
 0002:00012d80       $unwind$_wsetlocale_set_cat 0000000180039d80     libucrt:wsetlocale.obj
 0002:00012da4       $unwind$_wsetlocale_nolock 0000000180039da4     libucrt:wsetlocale.obj
 0002:00012dc8       $unwind$__acrt_uninitialize_locale 0000000180039dc8     libucrt:wsetlocale.obj
 0002:00012de8       $unwind$_read$fin$0        0000000180039de8     libucrt:read.obj
 0002:00012de8       $unwind$raise$fin$0        0000000180039de8     libucrt:signal.obj
 0002:00012de8       $unwind$?fin$0@?0???$?RV<lambda_5d4c3fee44080f75d5d9762853974fe0>@@AEAV<lambda_532e024f4337e6fc7ad266c2bef9f4ed>@@V<lambda_c87bdc10097eb2402edb8ba9bdf0697b>@@@?$__crt_seh_guarded_call@_K@@QEAA_K$$QEAV<lambda_5d4c3fee44080f75d5d9762853974fe0>@@AEAV<lambda_532e024f4337e6fc7ad266c2bef9f4ed>@@$$QEAV<lambda_c87bdc10097eb2402edb8ba9bdf0697b>@@@Z@4HA 0000000180039de8     libucrt:fwrite.obj
 0002:00012de8       $unwind$?fin$0@?0??dllmain_crt_process_attach@@YAHQEAUHINSTANCE__@@QEAX@Z@4HA 0000000180039de8     LIBCMT:dll_dllmain.obj
 0002:00012de8       $unwind$?fin$0@?0???$?RV<lambda_99476a1ad63dd22509b5d3e65b0ffc95>@@AEAV<lambda_ad1ced32f4ac17aa236e5ef05d6b3b7c>@@V<lambda_f7424dd8d45958661754dc4f2697e9c3>@@@?$__crt_seh_guarded_call@X@@QEAAX$$QEAV<lambda_99476a1ad63dd22509b5d3e65b0ffc95>@@AEAV<lambda_ad1ced32f4ac17aa236e5ef05d6b3b7c>@@$$QEAV<lambda_f7424dd8d45958661754dc4f2697e9c3>@@@Z@4HA 0000000180039de8     libucrt:mbctype.obj
 0002:00012de8       $unwind$?fin$0@?0???$common_lseek@_J@@YA_JH_JH@Z@4HA 0000000180039de8     libucrt:lseek.obj
 0002:00012de8       $unwind$__FrameUnwindToState$filt$0 0000000180039de8     libvcruntime:frame.obj
 0002:00012de8       $unwind$?fin$0@?0??common_fseek@@YAHV__crt_stdio_stream@@_JH@Z@4HA 0000000180039de8     libucrt:fseek.obj
 0002:00012de8       $unwind$__FrameUnwindToState$fin$1 0000000180039de8     libvcruntime:frame.obj
 0002:00012de8       $unwind$?fin$1@?0??common_exit@@YAXHW4_crt_exit_cleanup_mode@@W4_crt_exit_return_mode@@@Z@4HA 0000000180039de8     libucrt:exit.obj
 0002:00012de8       $unwind$?dtor$0@?0???0?$basic_istream@DU?$char_traits@D@std@@@std@@QEAA@PEAV?$basic_streambuf@DU?$char_traits@D@std@@@1@_N@Z@4HA 0000000180039de8     libcpmt:cin.obj
 0002:00012de8       $unwind$?fin$0@?0???$?RV<lambda_7a5ef57ff966f610505f1d28a3d40618>@@AEAV<lambda_b721fa326cdb32351d23dfa67958c160>@@V<lambda_5e0fb27672408a07956fe59e48ccb2aa>@@@?$__crt_seh_guarded_call@H@@QEAAH$$QEAV<lambda_7a5ef57ff966f610505f1d28a3d40618>@@AEAV<lambda_b721fa326cdb32351d23dfa67958c160>@@$$QEAV<lambda_5e0fb27672408a07956fe59e48ccb2aa>@@@Z@4HA 0000000180039de8     libucrt:setvbuf.obj
 0002:00012de8       $unwind$?fin$0@?0???$?RV<lambda_b521505b218e5242e90febf6bfebc422>@@AEAV<lambda_6978c1fb23f02e42e1d9e99668cc68aa>@@V<lambda_314360699dd331753a4119843814e9a7>@@@?$__crt_seh_guarded_call@H@@QEAAH$$QEAV<lambda_b521505b218e5242e90febf6bfebc422>@@AEAV<lambda_6978c1fb23f02e42e1d9e99668cc68aa>@@$$QEAV<lambda_314360699dd331753a4119843814e9a7>@@@Z@4HA 0000000180039de8     libucrt:commit.obj
 0002:00012de8       $unwind$?filt$0@?0??common_exit@@YAXHW4_crt_exit_cleanup_mode@@W4_crt_exit_return_mode@@@Z@4HA 0000000180039de8     libucrt:exit.obj
 0002:00012de8       $unwind$__acrt_uninitialize_locale$fin$0 0000000180039de8     libucrt:wsetlocale.obj
 0002:00012de8       $unwind$__acrt_update_thread_multibyte_data$fin$0 0000000180039de8     libucrt:mbctype.obj
 0002:00012de8       $unwind$_fcloseall$fin$0   0000000180039de8     libucrt:closeall.obj
 0002:00012de8       $unwind$?fin$0@?0???$?RV<lambda_c36588078e9f5dfd39652860aa6b3aaf>@@AEAV<lambda_ec61778202f4f5fc7e7711acc23c3bca>@@V<lambda_dc9d2797ccde5d239b4a0efae8ebd7db>@@@?$__crt_seh_guarded_call@P6AXH@Z@@QEAAP6AXH@Z$$QEAV<lambda_c36588078e9f5dfd39652860aa6b3aaf>@@AEAV<lambda_ec61778202f4f5fc7e7711acc23c3bca>@@$$QEAV<lambda_dc9d2797ccde5d239b4a0efae8ebd7db>@@@Z@4HA 0000000180039de8     libucrt:signal.obj
 0002:00012de8       $unwind$?fin$0@?0???$?RV<lambda_bfedae4ebbf01fab1bb6dcc6a9e276e0>@@AEAV<lambda_2fe9b910cf3cbf4a0ab98a02ba45b3ec>@@V<lambda_237c231691f317818eb88cc1d5d642d6>@@@?$__crt_seh_guarded_call@H@@QEAAH$$QEAV<lambda_bfedae4ebbf01fab1bb6dcc6a9e276e0>@@AEAV<lambda_2fe9b910cf3cbf4a0ab98a02ba45b3ec>@@$$QEAV<lambda_237c231691f317818eb88cc1d5d642d6>@@@Z@4HA 0000000180039de8     libucrt:close.obj
 0002:00012de8       $unwind$__acrt_initialize_lowio$fin$0 0000000180039de8     libucrt:ioinit.obj
 0002:00012de8       $unwind$_IsNonwritableInCurrentImage$filt$0 0000000180039de8     LIBCMT:pesect.obj
 0002:00012de8       $unwind$?dtor$0@?0??_Getcat@?$codecvt@DDU_Mbstatet@@@std@@SA_KPEAPEBVfacet@locale@2@PEBV42@@Z@4HA 0000000180039de8     libcpmt:cout.obj
 0002:00012de8       $unwind$?fin$0@?0???$common_ftell@_J@@YA_JV__crt_stdio_stream@@@Z@4HA 0000000180039de8     libucrt:ftell.obj
 0002:00012de8       $unwind$fgetc$fin$0        0000000180039de8     libucrt:fgetc.obj
 0002:00012de8       $unwind$__acrt_update_thread_locale_data$fin$0 0000000180039de8     libucrt:locale_refcounting.obj
 0002:00012de8       $unwind$?fin$0@?0???$?RV<lambda_5df02c53a8f32f81fd64e5bbb78039f1>@@AEAV<lambda_2af78c5f5901b1372d98f9ab3177dfa6>@@AEAV<lambda_f51fe5fd7c79a33db34fc9310f277369>@@@?$__crt_seh_guarded_call@X@@QEAAX$$QEAV<lambda_5df02c53a8f32f81fd64e5bbb78039f1>@@AEAV<lambda_2af78c5f5901b1372d98f9ab3177dfa6>@@AEAV<lambda_f51fe5fd7c79a33db34fc9310f277369>@@@Z@4HA 0000000180039de8     libucrt:wsetlocale.obj
 0002:00012de8       $unwind$_write$fin$0       0000000180039de8     libucrt:write.obj
 0002:00012de8       $unwind$?fin$0@?0???$?RV<lambda_d67e8342c384adda8f857579ab50b2ae>@@AEAV<lambda_30712929f77e709619002f448b6a9510>@@V<lambda_4525336fd7e478d965fb7ca7a337cad8>@@@?$__crt_seh_guarded_call@X@@QEAAX$$QEAV<lambda_d67e8342c384adda8f857579ab50b2ae>@@AEAV<lambda_30712929f77e709619002f448b6a9510>@@$$QEAV<lambda_4525336fd7e478d965fb7ca7a337cad8>@@@Z@4HA 0000000180039de8     libucrt:wsetlocale.obj
 0002:00012de8       $unwind$?fin$0@?0??dllmain_crt_process_detach@@YAH_N@Z@4HA 0000000180039de8     LIBCMT:dll_dllmain.obj
 0002:00012de8       $unwind$fflush$fin$0       0000000180039de8     libucrt:fflush.obj
 0002:00012de8       $unwind$common_control87$filt$0 0000000180039de8     libucrt:ieee.obj
 0002:00012de8       $unwind$?dtor$0@?0???0?$basic_ostream@DU?$char_traits@D@std@@@std@@QEAA@PEAV?$basic_streambuf@DU?$char_traits@D@std@@@1@_N@Z@4HA 0000000180039de8     libcpmt:cout.obj
 0002:00012de8       $unwind$__CxxCallCatchBlock$filt$0 0000000180039de8     libvcruntime:frame.obj
 0002:00012de8       $unwind$?fin$0@?0???$?RV<lambda_e24bbb7b643b32fcea6fa61b31d4c984>@@AEAV<lambda_275893d493268fdec8709772e3fcec0e>@@V<lambda_9d71df4d7cf3f480f8d633942495c3b0>@@@?$__crt_seh_guarded_call@H@@QEAAH$$QEAV<lambda_e24bbb7b643b32fcea6fa61b31d4c984>@@AEAV<lambda_275893d493268fdec8709772e3fcec0e>@@$$QEAV<lambda_9d71df4d7cf3f480f8d633942495c3b0>@@@Z@4HA 0000000180039de8     libucrt:onexit.obj
 0002:00012de8       $unwind$?fin$0@?0???$?RV<lambda_72d1df2b273a38828b1ce30cbf4cdab5>@@AEAV<lambda_876a65b173b8412d3a47c70a915b0cf4>@@V<lambda_41932305e351933ebe8f8be3ed8bb5dc>@@@?$__crt_seh_guarded_call@X@@QEAAX$$QEAV<lambda_72d1df2b273a38828b1ce30cbf4cdab5>@@AEAV<lambda_876a65b173b8412d3a47c70a915b0cf4>@@$$QEAV<lambda_41932305e351933ebe8f8be3ed8bb5dc>@@@Z@4HA 0000000180039de8     libucrt:per_thread_data.obj
 0002:00012de8       $unwind$__DestructExceptionObject$filt$0 0000000180039de8     libvcruntime:frame.obj
 0002:00012de8       $unwind$_query_new_handler$fin$0 0000000180039de8     libucrt:new_handler.obj
 0002:00012de8       $unwind$?fin$0@?0???$?RV<lambda_b8c45f8f788dd370798f47cfe8ac3a86>@@AEAV<lambda_4e60a939b0d047cfe11ddc22648dfba9>@@V<lambda_332c3edc96d0294ec56c57d38c1cdfd5>@@@?$__crt_seh_guarded_call@H@@QEAAH$$QEAV<lambda_b8c45f8f788dd370798f47cfe8ac3a86>@@AEAV<lambda_4e60a939b0d047cfe11ddc22648dfba9>@@$$QEAV<lambda_332c3edc96d0294ec56c57d38c1cdfd5>@@@Z@4HA 0000000180039de8     libucrt:onexit.obj
 0002:00012de8       $unwind$?fin$0@?0???$?RV<lambda_5e887d1dcbef67a5eb4283622ba103bf>@@AEAV<lambda_4466841279450cc726390878d4a41900>@@V<lambda_341c25c0346d94847f1f3c463c57e077>@@@?$__crt_seh_guarded_call@X@@QEAAX$$QEAV<lambda_5e887d1dcbef67a5eb4283622ba103bf>@@AEAV<lambda_4466841279450cc726390878d4a41900>@@$$QEAV<lambda_341c25c0346d94847f1f3c463c57e077>@@@Z@4HA 0000000180039de8     libucrt:per_thread_data.obj
 0002:00012de8       $unwind$__acrt_lowio_ensure_fh_exists$fin$0 0000000180039de8     libucrt:osfinfo.obj
 0002:00012de8       $unwind$_ctrlfp$filt$0     0000000180039de8     libucrt:fpctrl.obj
 0002:00012de8       $unwind$?fin$0@?0???$?RV<lambda_46352004c1216016012b18bd6f87e700>@@AEAV<lambda_3bd07e1a1191394380780325891bf33f>@@V<lambda_334532d3f185bcaa59b5be82d7d22bff>@@@?$__crt_seh_guarded_call@X@@QEAAX$$QEAV<lambda_46352004c1216016012b18bd6f87e700>@@AEAV<lambda_3bd07e1a1191394380780325891bf33f>@@$$QEAV<lambda_334532d3f185bcaa59b5be82d7d22bff>@@@Z@4HA 0000000180039de8     libucrt:per_thread_data.obj
 0002:00012de8       $unwind$fputc$fin$0        0000000180039de8     libucrt:fputc.obj
 0002:00012de8       $unwind$fclose$fin$0       0000000180039de8     libucrt:fclose.obj
 0002:00012de8       $unwind$?fin$0@?0???$?RV<lambda_fb3a7dec4e47f37f22dae91bb15c9095>@@AEAV<lambda_698284760c8add0bfb0756c19673e34b>@@V<lambda_dfb8eca1e75fef3034a8fb18dd509707>@@@?$__crt_seh_guarded_call@X@@QEAAX$$QEAV<lambda_fb3a7dec4e47f37f22dae91bb15c9095>@@AEAV<lambda_698284760c8add0bfb0756c19673e34b>@@$$QEAV<lambda_dfb8eca1e75fef3034a8fb18dd509707>@@@Z@4HA 0000000180039de8     libucrt:per_thread_data.obj
 0002:00012de8       $unwind$common_flush_all$fin$0 0000000180039de8     libucrt:fflush.obj
 0002:00012de8       $unwind$?fin$0@?0???$?RV<lambda_630b2aca97f6d20d5b5ea6529ea6b6af>@@AEAV<lambda_af91936f1d075d609f72d9d8cba980af>@@V<lambda_e82fa975f615b5c7c7b0e4d178fdae67>@@@?$__crt_seh_guarded_call@H@@QEAAH$$QEAV<lambda_630b2aca97f6d20d5b5ea6529ea6b6af>@@AEAV<lambda_af91936f1d075d609f72d9d8cba980af>@@$$QEAV<lambda_e82fa975f615b5c7c7b0e4d178fdae67>@@@Z@4HA 0000000180039de8     libucrt:winapi_thunks.obj
 0002:00012de8       $unwind$common_flush_all$fin$1 0000000180039de8     libucrt:fflush.obj
 0002:00012de8       $unwind$ungetc$fin$0       0000000180039de8     libucrt:ungetc.obj
 0002:00012df0       $unwind$??R<lambda_2af78c5f5901b1372d98f9ab3177dfa6>@@QEBAXXZ 0000000180039df0     libucrt:wsetlocale.obj
 0002:00012dfc       $unwind$??$?RV<lambda_5df02c53a8f32f81fd64e5bbb78039f1>@@AEAV<lambda_2af78c5f5901b1372d98f9ab3177dfa6>@@AEAV<lambda_f51fe5fd7c79a33db34fc9310f277369>@@@?$__crt_seh_guarded_call@X@@QEAAX$$QEAV<lambda_5df02c53a8f32f81fd64e5bbb78039f1>@@AEAV<lambda_2af78c5f5901b1372d98f9ab3177dfa6>@@AEAV<lambda_f51fe5fd7c79a33db34fc9310f277369>@@@Z 0000000180039dfc     libucrt:wsetlocale.obj
 0002:00012e1c       $unwind$??$?RV<lambda_d67e8342c384adda8f857579ab50b2ae>@@AEAV<lambda_30712929f77e709619002f448b6a9510>@@V<lambda_4525336fd7e478d965fb7ca7a337cad8>@@@?$__crt_seh_guarded_call@X@@QEAAX$$QEAV<lambda_d67e8342c384adda8f857579ab50b2ae>@@AEAV<lambda_30712929f77e709619002f448b6a9510>@@$$QEAV<lambda_4525336fd7e478d965fb7ca7a337cad8>@@@Z 0000000180039e1c     libucrt:wsetlocale.obj
 0002:00012e40       $unwind$_except2           0000000180039e40     libucrt:fpexcept.obj
 0002:00012e64       $unwind$_handle_exc        0000000180039e64     libucrt:fpexcept.obj
 0002:00012e80       $unwind$_umatherr          0000000180039e80     libucrt:fpexcept.obj
 0002:00012e88       $unwind$_ctrlfp            0000000180039e88     libucrt:fpctrl.obj
 0002:00012eb0       $unwind$__acrt_LCMapStringA 0000000180039eb0     libucrt:lcmapstringa.obj
 0002:00012ec0       $unwind$?__acrt_LCMapStringA_stat@@YAHPEAU__crt_locale_pointers@@PEB_WKPEBDHPEADHHH@Z 0000000180039ec0     libucrt:lcmapstringa.obj
 0002:00012ee8       $unwind$__acrt_initialize_winapi_thunks 0000000180039ee8     libucrt:winapi_thunks.obj
 0002:00012ef0       $unwind$__acrt_EnumSystemLocalesEx 0000000180039ef0     libucrt:winapi_thunks.obj
 0002:00012f04       $unwind$??$?RV<lambda_630b2aca97f6d20d5b5ea6529ea6b6af>@@AEAV<lambda_af91936f1d075d609f72d9d8cba980af>@@V<lambda_e82fa975f615b5c7c7b0e4d178fdae67>@@@?$__crt_seh_guarded_call@H@@QEAAH$$QEAV<lambda_630b2aca97f6d20d5b5ea6529ea6b6af>@@AEAV<lambda_af91936f1d075d609f72d9d8cba980af>@@$$QEAV<lambda_e82fa975f615b5c7c7b0e4d178fdae67>@@@Z 0000000180039f04     libucrt:winapi_thunks.obj
 0002:00012f2c       $unwind$_fcloseall         0000000180039f2c     libucrt:closeall.obj
 0002:00012f50       $unwind$__acrt_initialize_lowio 0000000180039f50     libucrt:ioinit.obj
 0002:00012f70       $unwind$?initialize_inherited_file_handles_nolock@@YAXXZ 0000000180039f70     libucrt:ioinit.obj
 0002:00012f8c       $unwind$??$?RV<lambda_bfedae4ebbf01fab1bb6dcc6a9e276e0>@@AEAV<lambda_2fe9b910cf3cbf4a0ab98a02ba45b3ec>@@V<lambda_237c231691f317818eb88cc1d5d642d6>@@@?$__crt_seh_guarded_call@H@@QEAAH$$QEAV<lambda_bfedae4ebbf01fab1bb6dcc6a9e276e0>@@AEAV<lambda_2fe9b910cf3cbf4a0ab98a02ba45b3ec>@@$$QEAV<lambda_237c231691f317818eb88cc1d5d642d6>@@@Z 0000000180039f8c     libucrt:close.obj
 0002:00012fb0       $unwind$_close             0000000180039fb0     libucrt:close.obj
 0002:00012fb0       $unwind$_commit            0000000180039fb0     libucrt:commit.obj
 0002:00012fb8       $unwind$??$?RV<lambda_b521505b218e5242e90febf6bfebc422>@@AEAV<lambda_6978c1fb23f02e42e1d9e99668cc68aa>@@V<lambda_314360699dd331753a4119843814e9a7>@@@?$__crt_seh_guarded_call@H@@QEAAH$$QEAV<lambda_b521505b218e5242e90febf6bfebc422>@@AEAV<lambda_6978c1fb23f02e42e1d9e99668cc68aa>@@$$QEAV<lambda_314360699dd331753a4119843814e9a7>@@@Z 0000000180039fb8     libucrt:commit.obj
 0002:00012fdc       $unwind$_write             0000000180039fdc     libucrt:write.obj
 0002:0001300c       $unwind$_write_nolock      000000018003a00c     libucrt:write.obj
 0002:00013024       $unwind$?write_double_translated_ansi_nolock@@YA?AUwrite_result@?A0x9c548279@@HQEBDI@Z 000000018003a024     libucrt:write.obj
 0002:00013044       $unwind$?write_text_utf16le_nolock@@YA?AUwrite_result@?A0x9c548279@@HQEBDI@Z 000000018003a044     libucrt:write.obj
 0002:00013044       $unwind$?write_text_ansi_nolock@@YA?AUwrite_result@?A0x9c548279@@HQEBDI@Z 000000018003a044     libucrt:write.obj
 0002:00013064       $unwind$?write_text_utf8_nolock@@YA?AUwrite_result@?A0x9c548279@@HQEBDI@Z 000000018003a064     libucrt:write.obj
 0002:00013088       $unwind$??$common_refill_and_read_nolock@D@@YAHV__crt_stdio_stream@@@Z 000000018003a088     libucrt:_filbuf.obj
 0002:00013088       $unwind$_raise_exc_ex      000000018003a088     libucrt:fpexcept.obj
 0002:00013088       $unwind$?common_fseek_nolock@@YAHV__crt_stdio_stream@@_JH@Z 000000018003a088     libucrt:fseek.obj
 0002:0001309c       $unwind$?common_ftell_translated_utf8_nolock@@YA_JV__crt_stdio_stream@@_J@Z 000000018003a09c     libucrt:ftell.obj
 0002:000130c0       $unwind$?common_ftell_read_mode_nolock@@YA_JV__crt_stdio_stream@@_J1@Z 000000018003a0c0     libucrt:ftell.obj
 0002:000130dc       $unwind$??$common_ftell_nolock@_J@@YA_JV__crt_stdio_stream@@@Z 000000018003a0dc     libucrt:ftell.obj
 0002:000130e8       $unwind$??$common_ftell@_J@@YA_JV__crt_stdio_stream@@@Z 000000018003a0e8     libucrt:ftell.obj
 0002:00013108       $unwind$??$write_buffer_nolock@D@@YA_NDV__crt_stdio_stream@@@Z 000000018003a108     libucrt:_flsbuf.obj
 0002:00013118       $unwind$??$common_lseek@_J@@YA_JH_JH@Z 000000018003a118     libucrt:lseek.obj
 0002:00013148       $unwind$__vcrt_uninitialize_winapi_thunks 000000018003a148     libvcruntime:winapi_downlevel.obj
 0002:00013148       $unwind$__acrt_stdio_end_temporary_buffering_nolock 000000018003a148     libucrt:_sftbuf.obj
 0002:00013150       $unwind$_mbstowcs_s_l      000000018003a150     libucrt:mbstowcs.obj
 0002:00013168       $unwind$?_mbstowcs_l_helper@@YA_KPEA_WPEBD_KPEAU__crt_locale_pointers@@@Z 000000018003a168     libucrt:mbstowcs.obj
 0002:00013184       $unwind$?_wcstombs_l_helper@@YA_KPEADPEB_W_KPEAU__crt_locale_pointers@@@Z 000000018003a184     libucrt:wcstombs.obj
 0002:000131a4       $unwind$__acrt_GetLocaleInfoA 000000018003a1a4     libucrt:getlocaleinfoa.obj
 0002:000131c4       $unwind$?InternalGetLocaleInfoA@@YAHQEAU__crt_locale_pointers@@QEB_WKQEADH@Z 000000018003a1c4     libucrt:getlocaleinfoa.obj
 0002:000131ec       $unwind$__acrt_GetStringTypeA 000000018003a1ec     libucrt:getstringtypea.obj
 0002:00013214       $unwind$__acrt_initialize_fma3 000000018003a214     libucrt:fma3_available.obj
 0002:0001321c       $unwind$_powf_special      000000018003a21c     libucrt:pow_special.obj
 0002:0001322c       $unwind$_pow_special       000000018003a22c     libucrt:pow_special.obj
 0002:00013238       $unwind$??$common_expand_argv_wildcards@D@@YAHQEAPEADQEAPEAPEAD@Z 000000018003a238     libucrt:argv_wildcards.obj
 0002:00013250       $unwind$__acrt_get_qualified_locale 000000018003a250     libucrt:get_qualified_locale.obj
 0002:00013250       $unwind$??$copy_and_add_argument_to_buffer@D@@YAHQEBD0_KAEAV?$argument_list@D@?A0xca0879c4@@@Z 000000018003a250     libucrt:argv_wildcards.obj
 0002:0001326c       $unwind$??$expand_argument_wildcards@D@@YAHQEAD0AEAV?$argument_list@D@?A0xca0879c4@@@Z 000000018003a26c     libucrt:argv_wildcards.obj
 0002:0001328c       $unwind$__acrt_update_thread_multibyte_data 000000018003a28c     libucrt:mbctype.obj
 0002:000132b0       $unwind$_setmbcp_nolock    000000018003a2b0     libucrt:mbctype.obj
 0002:000132d0       $unwind$?setSBUpLow@@YAXPEAU__crt_multibyte_data@@@Z 000000018003a2d0     libucrt:mbctype.obj
 0002:000132ec       $unwind$?setmbcp_internal@@YAHH_N@Z 000000018003a2ec     libucrt:mbctype.obj
 0002:000132fc       $unwind$??$?RV<lambda_99476a1ad63dd22509b5d3e65b0ffc95>@@AEAV<lambda_ad1ced32f4ac17aa236e5ef05d6b3b7c>@@V<lambda_f7424dd8d45958661754dc4f2697e9c3>@@@?$__crt_seh_guarded_call@X@@QEAAX$$QEAV<lambda_99476a1ad63dd22509b5d3e65b0ffc95>@@AEAV<lambda_ad1ced32f4ac17aa236e5ef05d6b3b7c>@@$$QEAV<lambda_f7424dd8d45958661754dc4f2697e9c3>@@@Z 000000018003a2fc     libucrt:mbctype.obj
 0002:00013320       $unwind$?destroy_fls@@YAXPEAX@Z 000000018003a320     libucrt:per_thread_data.obj
 0002:00013320       $unwind$__acrt_locale_free_numeric 000000018003a320     libucrt:initnum.obj
 0002:00013320       $unwind$__acrt_locale_free_lc_time_if_unreferenced 000000018003a320     libucrt:locale_refcounting.obj
 0002:00013320       $unwind$_free_base         000000018003a320     libucrt:free_base.obj
 0002:00013328       $unwind$__acrt_update_thread_locale_data 000000018003a328     libucrt:locale_refcounting.obj
 0002:0001334c       $unwind$__acrt_locale_initialize_monetary 000000018003a34c     libucrt:initmon.obj
 0002:00013368       $unwind$__acrt_locale_free_monetary 000000018003a368     libucrt:initmon.obj
 0002:00013370       $unwind$__C_specific_handler 000000018003a370     libvcruntime:_chandler_.obj
 0002:00013370       $unwind$__acrt_locale_initialize_numeric 000000018003a370     libucrt:initnum.obj
 0002:00013370       $unwind$__InternalCxxFrameHandler 000000018003a370     libvcruntime:frame.obj
 0002:0001338c       $unwind$__acrt_locale_free_time 000000018003a38c     libucrt:inittime.obj
 0002:0001339c       $unwind$?initialize_lc_time@@YA_NQEAU__crt_lc_time_data@@QEAU__crt_locale_data@@@Z 000000018003a39c     libucrt:inittime.obj
 0002:000133b8       $unwind$LangCountryEnumProcEx 000000018003a3b8     libucrt:get_qualified_locale.obj
 0002:000133d8       $unwind$LanguageEnumProcEx 000000018003a3d8     libucrt:get_qualified_locale.obj
 0002:000133f4       $unwind$GetLocaleNameFromDefault 000000018003a3f4     libucrt:get_qualified_locale.obj
 0002:0001340c       $unwind$TestDefaultCountry 000000018003a40c     libucrt:get_qualified_locale.obj
 0002:00013420       $unwind$__acrt_get_qualified_locale_downlevel 000000018003a420     libucrt:getqloc_downlevel.obj
 0002:0001343c       $unwind$TranslateName      000000018003a43c     libucrt:getqloc_downlevel.obj
 0002:0001343c       $unwind$__acrt_initialize_stdio 000000018003a43c     libucrt:_file.obj
 0002:0001343c       $unwind$_initterm          000000018003a43c     libucrt:initterm.obj
 0002:0001343c       $unwind$GetTableIndexFromLocaleName 000000018003a43c     libcpmt:winapinls.obj
 0002:0001343c       $unwind$?xsgetn@?$basic_streambuf@DU?$char_traits@D@std@@@std@@MEAA_JPEAD_J@Z 000000018003a43c     libcpmt:cout.obj
 0002:0001343c       $unwind$__acrt_LCIDToLocaleName 000000018003a43c     libucrt:winapi_thunks.obj
 0002:0001343c       $unwind$__acrt_GetLocaleInfoEx 000000018003a43c     libucrt:winapi_thunks.obj
 0002:0001343c       $unwind$__GSHandlerCheck_EH 000000018003a43c     LIBCMT:gshandlereh.obj
 0002:0001343c       $unwind$__TypeMatch        000000018003a43c     libvcruntime:frame.obj
 0002:00013454       $unwind$LangCountryEnumProc 000000018003a454     libucrt:getqloc_downlevel.obj
 0002:00013474       $unwind$LanguageEnumProc   000000018003a474     libucrt:getqloc_downlevel.obj
 0002:00013490       $unwind$CountryEnumProc    000000018003a490     libucrt:getqloc_downlevel.obj
 0002:000134b0       $xdatasym                  000000018003a4b0     libucrt:fpsr.obj
 0002:000134b8       $unwind$?GetTableIndexFromLocaleName@@YAHPEB_W@Z 000000018003a4b8     libucrt:lcidtoname_downlevel.obj
 0002:000134d0       $unwind$__acrt_lowio_destroy_handle_array 000000018003a4d0     libucrt:osfinfo.obj
 0002:000134e0       $unwind$__acrt_lowio_ensure_fh_exists 000000018003a4e0     libucrt:osfinfo.obj
 0002:0001350c       $unwind$_read              000000018003a50c     libucrt:read.obj
 0002:00013538       $unwind$_read_nolock       000000018003a538     libucrt:read.obj
 0002:00013550       $unwind$?translate_ansi_or_utf8_nolock@@YAHHQEAD_KQEA_W1@Z 000000018003a550     libucrt:read.obj
 0002:00013568       $unwind$??$translate_text_mode_nolock@_W@@YAHHQEA_W_K@Z 000000018003a568     libucrt:read.obj
 0002:00013580       $unwind$_call_matherr      000000018003a580     libucrt:libm_error.obj
 0002:00013588       $unwind$_handle_error      000000018003a588     libucrt:libm_error.obj
 0002:00013588       $unwind$_handle_errorf     000000018003a588     libucrt:libm_error.obj
 0002:000135a8       $unwind$_towlower_l        000000018003a5a8     libucrt:towlower.obj
 0002:000135b0       $unwind$qsort              000000018003a5b0     libucrt:qsort.obj
 0002:000135c8       $chain$4$qsort             000000018003a5c8     libucrt:qsort.obj
 0002:000135ec       $chain$5$qsort             000000018003a5ec     libucrt:qsort.obj
 0002:000135fc       $unwind$?shortsort@@YAXPEAD0_KP6AHPEBX2@Z@Z 000000018003a5fc     libucrt:qsort.obj
 0002:0001360c       $chain$2$?shortsort@@YAXPEAD0_KP6AHPEBX2@Z@Z 000000018003a60c     libucrt:qsort.obj
 0002:00013628       $chain$3$?shortsort@@YAXPEAD0_KP6AHPEBX2@Z@Z 000000018003a628     libucrt:qsort.obj
 0002:00013638       $unwind$strpbrk            000000018003a638     libucrt:strpbrk.obj
 0002:00013648       $unwind$_mbsdec_l          000000018003a648     libucrt:mbsdec.obj
 0002:00013654       $unwind$common_control87   000000018003a654     libucrt:ieee.obj
 0002:00013684       $unwind$_wcsnicmp_l        000000018003a684     libucrt:wcsnicmp.obj
 0002:00013684       $unwind$__dcrt_get_narrow_environment_from_os 000000018003a684     libucrt:get_environment_from_os.obj
 0002:0001369c       $unwind$_raise_exc         000000018003a69c     libucrt:fpexcept.obj
 0002:0001369c       $unwind$?_Xout_of_range@std@@YAXPEBD@Z 000000018003a69c     libcpmt:xthrow.obj
 0002:0001369c       $unwind$__dcrt_lowio_initialize_console_output 000000018003a69c     libucrt:initcon.obj
 0002:0001369c       $unwind$?_Xbad_alloc@std@@YAXXZ 000000018003a69c     libcpmt:xthrow.obj
 0002:0001369c       $unwind$?__scrt_throw_std_bad_array_new_length@@YAXXZ 000000018003a69c     LIBCMT:throw_bad_alloc.obj
 0002:0001369c       $unwind$?_Xlength_error@std@@YAXPEBD@Z 000000018003a69c     libcpmt:xthrow.obj
 0002:0001369c       $unwind$?__scrt_throw_std_bad_alloc@@YAXXZ 000000018003a69c     LIBCMT:throw_bad_alloc.obj
 0002:0001369c       $unwind$_raise_excf        000000018003a69c     libucrt:fpexcept.obj
 0002:000136a8       $xdatasym                  000000018003a6a8     libucrt:log10.obj
 0002:000136b4       $unwind$__acrt_LCMapStringW 000000018003a6b4     libucrt:lcmapstringw.obj
 0002:000136c8       $unwind$_log_special_common 000000018003a6c8     libucrt:log_special.obj
 0002:000136d4       $unwind$?DloadObtainSection@@YAPEAXPEAK0@Z 000000018003a6d4     DelayImp:delayhlp.obj
 0002:000136e4       $unwind$?DloadMakePermanentImageCommit@@YAXPEAX_K@Z 000000018003a6e4     DelayImp:delayhlp.obj
 0002:000136f0       $unwind$?DloadProtectSection@@YAXKPEAK@Z 000000018003a6f0     DelayImp:delayhlp.obj
 0002:00013700       $unwind$__delayLoadHelper2 000000018003a700     DelayImp:delayhlp.obj
 0002:00013718       $unwind$_IsNonwritableInCurrentImage 000000018003a718     LIBCMT:pesect.obj
 0002:0001373c       $unwind$wcschr             000000018003a73c     libvcruntime:wcschr.obj
 0002:00013df0       .edata                     000000018003adf0     cio.exp
 0002:00013e18       rgpv                       000000018003ae18     cio.exp
 0002:00013e1c       rgszName                   000000018003ae1c     cio.exp
 0002:00013e20       rgwOrd                     000000018003ae20     cio.exp
 0002:00013e22       szName                     000000018003ae22     cio.exp
 0002:00013e2b       $N00001                    000000018003ae2b     cio.exp
 0002:00014124       .idata$6                   000000018003b124     kernel32:KERNEL32.dll
 0003:00000000       ?init@std@@3JA             000000018003c000     libcpmt:xlock.obj
 0003:00000010       ?atcount_cdecl@@3_KA       000000018003c010     libcpmt:iosptrs.obj
 0003:000000b0       ?__vcrt_flsindex@@3KA      000000018003c0b0     libvcruntime:per_thread_data.obj
 0003:00000178       errno_no_memory            000000018003c178     libucrt:errno.obj
 0003:0000017c       doserrno_no_memory         000000018003c17c     libucrt:errno.obj
 0003:000002a0       __acrt_flsindex            000000018003c2a0     libucrt:per_thread_data.obj
 0003:000002a8       _ctype_loc_style           000000018003c2a8     libucrt:wsetlocale.obj
 0003:00000420       ?dazSupported@?1??_ctrlfp@@9@9 000000018003c420     libucrt:fpctrl.obj
 0003:00000480       tzstd_program              000000018003c480     libucrt:timeset.obj
 0003:000004c0       tzdst_program              000000018003c4c0     libucrt:timeset.obj
 0003:00000500       tzname_states              000000018003c500     libucrt:timeset.obj
 0003:00000740       __rgctypeflag              000000018003c740     libucrt:mbctype.obj
 0003:00000750       __rgcode_page_info         000000018003c750     libucrt:mbctype.obj
 0003:00000b50       ?dazSupported@?1??common_control87@@9@9 000000018003cb50     libucrt:ieee.obj
 0003:00000b60       _module                    000000018003cb60     cio.obj
 0003:00001290       ?initlocks@std@@3V_Init_locks@1@A 000000018003d290     libcpmt:xlock.obj
 0003:000012a0       ?mtx@std@@3PAU_RTL_CRITICAL_SECTION@@A 000000018003d2a0     libcpmt:xlock.obj
 0003:000013e0       ?initlocks@@3V_Init_locks@std@@A 000000018003d3e0     libcpmt:cout.obj
 0003:000013e1       ?init_cout@std@@3U_Init_cout@1@A 000000018003d3e1     libcpmt:cout.obj
 0003:00001460       ?fout@std@@3V?$basic_filebuf@DU?$char_traits@D@std@@@1@A 000000018003d460     libcpmt:cout.obj
 0003:00001510       ?_Fac_head@std@@3PEAU_Fac_node@1@EA 000000018003d510     libcpmt:locale0.obj
 0003:00001528       global_locale              000000018003d528     libcpmt:locale0.obj
 0003:00001550       ?classic_locale@std@@3Vlocale@1@A 000000018003d550     libcpmt:locale0.obj
 0003:00001568       ?_Fac_tidy_reg@std@@3U_Fac_tidy_reg_t@1@B 000000018003d568     libcpmt:locale0.obj
 0003:00001569       ?registered@?1??_Setgloballocale@locale@std@@CAXPEAX@Z@4_NA 000000018003d569     libcpmt:locale0.obj
 0003:00001570       ?initlocks@@3V_Init_locks@std@@A 000000018003d570     libcpmt:cin.obj
 0003:00001571       ?init_cin@std@@3U_Init_cin@1@A 000000018003d571     libcpmt:cin.obj
 0003:00001580       ?fin@std@@3V?$basic_filebuf@DU?$char_traits@D@std@@@1@A 000000018003d580     libcpmt:cin.obj
 0003:000016a0       ?stdstr@std@@3PAPEAVios_base@1@A 000000018003d6a0     libcpmt:ios.obj
 0003:000016f0       ?stdopens@std@@3PADA       000000018003d6f0     libcpmt:ios.obj
 0003:00001740       ?atfuns_cdecl@@3PAP6AXXZA  000000018003d740     libcpmt:iosptrs.obj
 0003:00001790       ?initlocks@std@@3V_Init_locks@1@A 000000018003d790     libcpmt:iosptrs.obj
 0003:00001791       ?init_atexit@@3U_Init_atexit@@A 000000018003d791     libcpmt:iosptrs.obj
 0003:000019e0       ?_Tss_mutex@@3U_RTL_CRITICAL_SECTION@@A 000000018003d9e0     LIBCMT:thread_safe_statics.obj
 0003:00001a08       ?_Tss_cv@@3U_RTL_CONDITION_VARIABLE@@A 000000018003da08     LIBCMT:thread_safe_statics.obj
 0003:00001a10       ?_Tss_event@@3PEAXEA       000000018003da10     LIBCMT:thread_safe_statics.obj
 0003:00001a18       ?encoded_sleep_condition_variable_cs@@3P6AHPEAU_RTL_CONDITION_VARIABLE@@PEAU_RTL_CRITICAL_SECTION@@K@ZEA 000000018003da18     LIBCMT:thread_safe_statics.obj
 0003:00001a20       ?encoded_wake_all_condition_variable@@3P6AXPEAU_RTL_CONDITION_VARIABLE@@@ZEA 000000018003da20     LIBCMT:thread_safe_statics.obj
 0003:00001a38       ?module_local_atexit_table@@3U_onexit_table_t@@A 000000018003da38     LIBCMT:utility.obj
 0003:00001a50       ?module_local_at_quick_exit_table@@3U_onexit_table_t@@A 000000018003da50     LIBCMT:utility.obj
 0003:00001a68       ?is_initialized_as_dll@@3_NA 000000018003da68     LIBCMT:utility.obj
 0003:00001a6c       ?__proc_attached@@3HA      000000018003da6c     LIBCMT:dll_dllmain.obj
 0003:00001a70       GS_ExceptionRecord         000000018003da70     LIBCMT:gs_report.obj
 0003:00001b10       GS_ContextRecord           000000018003db10     LIBCMT:gs_report.obj
 0003:00002010       ?module_handles@@3PAPEAUHINSTANCE__@@A 000000018003e010     libvcruntime:winapi_downlevel.obj
 0003:00002030       ?encoded_function_pointers@@3PAPEAXA 000000018003e030     libvcruntime:winapi_downlevel.obj
 0003:00002080       ?__vcrt_startup_thread_ptd@@3U__vcrt_ptd@@A 000000018003e080     libvcruntime:per_thread_data.obj
 0003:000020f8       __vcrt_lock_table          000000018003e0f8     libvcruntime:locks.obj
 0003:00002120       __vcrt_locks_initialized   000000018003e120     libvcruntime:locks.obj
 0003:00002170       ?heap@@3V_HeapManager@@A   000000018003e170     libvcruntime:undname.obj
 0003:00002198       __acrt_invalid_parameter_handler 000000018003e198     libucrt:invalid_parameter.obj
 0003:000021b0       __acrt_lock_table          000000018003e1b0     libucrt:locks.obj
 0003:000023b8       __acrt_locks_initialized   000000018003e3b8     libucrt:locks.obj
 0003:000023d8       __acrt_new_handler         000000018003e3d8     libucrt:new_handler.obj
 0003:000023e0       c_termination_complete     000000018003e3e0     libucrt:exit.obj
 0003:000023e8       thread_local_exit_callback_func 000000018003e3e8     libucrt:exit.obj
 0003:000023f0       ?c_exit_complete@?5??common_exit@@YAXHW4_crt_exit_cleanup_mode@@W4_crt_exit_return_mode@@@Z@4_NA 000000018003e3f0     libucrt:exit.obj
 0003:00002400       ?program_name@?5???$common_configure_argv@D@@YAHW4_crt_argv_mode@@@Z@4PADA 000000018003e400     libucrt:argv_parsing.obj
 0003:00002558       ctrlc_action               000000018003e558     libucrt:signal.obj
 0003:00002560       ctrlbreak_action           000000018003e560     libucrt:signal.obj
 0003:00002568       abort_action               000000018003e568     libucrt:signal.obj
 0003:00002570       term_action                000000018003e570     libucrt:signal.obj
 0003:00002590       module_handles             000000018003e590     libucrt:winapi_thunks.obj
 0003:00002630       encoded_function_pointers  000000018003e630     libucrt:winapi_thunks.obj
 0003:00002730       ?static_enum_proc@?1??enum_system_locales_ex_nolock@@YAHQ6AHPEA_WK_J@Z@Z@4P6AH0K1@ZEA 000000018003e730     libucrt:winapi_thunks.obj
 0003:00002738       ?state_cache@?1??__acrt_is_packaged_app@@9@4JA 000000018003e738     libucrt:winapi_thunks.obj
 0003:00002b58       __acrt_global_new_mode     000000018003eb58     libucrt:new_mode.obj
 0003:00002b80       _tzname                    000000018003eb80     libucrt:timeset.obj
 0003:00002b90       tz_api_used                000000018003eb90     libucrt:tzset.obj
 0003:00002ba0       tz_info                    000000018003eba0     libucrt:tzset.obj
 0003:00002c64       fSystemSet                 000000018003ec64     libucrt:mbctype.obj
 0003:00002c70       ?initialized@?1??__acrt_initialize_multibyte@@9@4_NA 000000018003ec70     libucrt:mbctype.obj
 0003:00002ca0       user_matherr               000000018003eca0     libucrt:matherr.obj
 0003:00002ca8       __acrt_app_type            000000018003eca8     libucrt:report_runtime_error.obj
 0004:00000000       $pdata$??__Einitlocks@std@@YAXXZ 000000018003f000     libcpmt:xlock.obj
 0004:0000000c       $pdata$??__Ecout@std@@YAXXZ 000000018003f00c     libcpmt:cout.obj
 0004:00000018       $pdata$??__Efout@std@@YAXXZ 000000018003f018     libcpmt:cout.obj
 0004:00000024       $pdata$??__Einitlocks@@YAXXZ 000000018003f024     libcpmt:cout.obj
 0004:00000030       $pdata$??__Ecin@std@@YAXXZ 000000018003f030     libcpmt:cin.obj
 0004:0000003c       $pdata$??__Efin@std@@YAXXZ 000000018003f03c     libcpmt:cin.obj
 0004:00000048       $pdata$??__Einitlocks@@YAXXZ 000000018003f048     libcpmt:cin.obj
 0004:00000054       $pdata$??__Einitlocks@std@@YAXXZ 000000018003f054     libcpmt:iosptrs.obj
 0004:00000060       $pdata$??_Gruntime_error@std@@UEAAPEAXI@Z 000000018003f060     cio.obj
 0004:00000060       $pdata$??_Gexception@stdext@@UEAAPEAXI@Z 000000018003f060     cio.obj
 0004:0000006c       $pdata$?_Deallocate@std@@YAXPEAX_K1@Z 000000018003f06c     cio.obj
 0004:00000078       $pdata$??0_Locinfo@std@@QEAA@PEBD@Z 000000018003f078     cio.obj
 0004:00000084       $pdata$??1_Locinfo@std@@QEAA@XZ 000000018003f084     cio.obj
 0004:00000090       $pdata$??_G_Facet_base@std@@UEAAPEAXI@Z 000000018003f090     cio.obj
 0004:0000009c       $pdata$?_Getcat@?$ctype@D@std@@SA_KPEAPEBVfacet@locale@2@PEBV42@@Z 000000018003f09c     cio.obj
 0004:000000a8       $pdata$0$?_Getcat@?$ctype@D@std@@SA_KPEAPEBVfacet@locale@2@PEBV42@@Z 000000018003f0a8     cio.obj
 0004:000000b4       $pdata$1$?_Getcat@?$ctype@D@std@@SA_KPEAPEBVfacet@locale@2@PEBV42@@Z 000000018003f0b4     cio.obj
 0004:000000c0       $pdata$?do_tolower@?$ctype@D@std@@MEBAPEBDPEADPEBD@Z 000000018003f0c0     cio.obj
 0004:000000cc       $pdata$0$?do_tolower@?$ctype@D@std@@MEBAPEBDPEADPEBD@Z 000000018003f0cc     cio.obj
 0004:000000d8       $pdata$1$?do_tolower@?$ctype@D@std@@MEBAPEBDPEADPEBD@Z 000000018003f0d8     cio.obj
 0004:000000e4       $pdata$?do_toupper@?$ctype@D@std@@MEBAPEBDPEADPEBD@Z 000000018003f0e4     cio.obj
 0004:000000f0       $pdata$0$?do_toupper@?$ctype@D@std@@MEBAPEBDPEADPEBD@Z 000000018003f0f0     cio.obj
 0004:000000fc       $pdata$1$?do_toupper@?$ctype@D@std@@MEBAPEBDPEADPEBD@Z 000000018003f0fc     cio.obj
 0004:00000108       $pdata$?do_widen@?$ctype@D@std@@MEBAPEBDPEBD0PEAD@Z 000000018003f108     cio.obj
 0004:00000114       $pdata$?do_narrow@?$ctype@D@std@@MEBAPEBDPEBD0DPEAD@Z 000000018003f114     cio.obj
 0004:00000120       $pdata$??_G?$ctype@D@std@@MEAAPEAXI@Z 000000018003f120     cio.obj
 0004:0000012c       $pdata$??_Gerror_category@std@@UEAAPEAXI@Z 000000018003f12c     cio.obj
 0004:0000012c       $pdata$??_G_Iostream_error_category@std@@UEAAPEAXI@Z 000000018003f12c     cio.obj
 0004:00000138       $pdata$?equivalent@error_category@std@@UEBA_NHAEBVerror_condition@2@@Z 000000018003f138     cio.obj
 0004:00000144       $pdata$??0_System_error@std@@IEAA@Verror_code@1@AEBV?$basic_string@DU?$char_traits@D@std@@V?$allocator@D@2@@1@@Z 000000018003f144     cio.obj
 0004:00000150       $pdata$??_G_System_error@std@@UEAAPEAXI@Z 000000018003f150     cio.obj
 0004:00000150       $pdata$??_Gfailure@ios_base@std@@UEAAPEAXI@Z 000000018003f150     cio.obj
 0004:0000015c       $pdata$?message@_Iostream_error_category@std@@UEBA?AV?$basic_string@DU?$char_traits@D@std@@V?$allocator@D@2@@2@H@Z 000000018003f15c     cio.obj
 0004:00000168       $pdata$?clear@ios_base@std@@QEAAXH_N@Z 000000018003f168     cio.obj
 0004:00000174       $pdata$0$?clear@ios_base@std@@QEAAXH_N@Z 000000018003f174     cio.obj
 0004:00000180       $pdata$1$?clear@ios_base@std@@QEAAXH_N@Z 000000018003f180     cio.obj
 0004:0000018c       $pdata$2$?clear@ios_base@std@@QEAAXH_N@Z 000000018003f18c     cio.obj
 0004:00000198       $pdata$?Input@cio@@YAXAEBV?$FunctionCallbackInfo@VValue@v8@@@v8@@@Z 000000018003f198     cio.obj
 0004:000001a4       $pdata$0$?Input@cio@@YAXAEBV?$FunctionCallbackInfo@VValue@v8@@@v8@@@Z 000000018003f1a4     cio.obj
 0004:000001b0       $pdata$1$?Input@cio@@YAXAEBV?$FunctionCallbackInfo@VValue@v8@@@v8@@@Z 000000018003f1b0     cio.obj
 0004:000001bc       $pdata$?init@cio@@YAXV?$Local@VObject@v8@@@v8@@@Z 000000018003f1bc     cio.obj
 0004:000001c8       $pdata$??1?$basic_string@DU?$char_traits@D@std@@V?$allocator@D@2@@std@@QEAA@XZ 000000018003f1c8     cio.obj
 0004:000001d4       $pdata$??5?$basic_istream@DU?$char_traits@D@std@@@std@@QEAAAEAV01@AEAN@Z 000000018003f1d4     cio.obj
 0004:000001e0       $pdata$0$??5?$basic_istream@DU?$char_traits@D@std@@@std@@QEAAAEAV01@AEAN@Z 000000018003f1e0     cio.obj
 0004:000001ec       $pdata$2$??5?$basic_istream@DU?$char_traits@D@std@@@std@@QEAAAEAV01@AEAN@Z 000000018003f1ec     cio.obj
 0004:000001f8       $pdata$3$??5?$basic_istream@DU?$char_traits@D@std@@@std@@QEAAAEAV01@AEAN@Z 000000018003f1f8     cio.obj
 0004:00000204       $pdata$4$??5?$basic_istream@DU?$char_traits@D@std@@@std@@QEAAAEAV01@AEAN@Z 000000018003f204     cio.obj
 0004:00000210       $pdata$5$??5?$basic_istream@DU?$char_traits@D@std@@@std@@QEAAAEAV01@AEAN@Z 000000018003f210     cio.obj
 0004:0000021c       $pdata$?do_get@?$num_get@DV?$istreambuf_iterator@DU?$char_traits@D@std@@@std@@@std@@MEBA?AV?$istreambuf_iterator@DU?$char_traits@D@std@@@2@V32@0AEAVios_base@2@AEAHAEAPEAX@Z 000000018003f21c     cio.obj
 0004:00000228       $pdata$?do_get@?$num_get@DV?$istreambuf_iterator@DU?$char_traits@D@std@@@std@@@std@@MEBA?AV?$istreambuf_iterator@DU?$char_traits@D@std@@@2@V32@0AEAVios_base@2@AEAHAEAN@Z 000000018003f228     cio.obj
 0004:00000228       $pdata$?do_get@?$num_get@DV?$istreambuf_iterator@DU?$char_traits@D@std@@@std@@@std@@MEBA?AV?$istreambuf_iterator@DU?$char_traits@D@std@@@2@V32@0AEAVios_base@2@AEAHAEAO@Z 000000018003f228     cio.obj
 0004:00000234       $pdata$?do_get@?$num_get@DV?$istreambuf_iterator@DU?$char_traits@D@std@@@std@@@std@@MEBA?AV?$istreambuf_iterator@DU?$char_traits@D@std@@@2@V32@0AEAVios_base@2@AEAHAEAM@Z 000000018003f234     cio.obj
 0004:00000240       $pdata$?do_get@?$num_get@DV?$istreambuf_iterator@DU?$char_traits@D@std@@@std@@@std@@MEBA?AV?$istreambuf_iterator@DU?$char_traits@D@std@@@2@V32@0AEAVios_base@2@AEAHAEA_K@Z 000000018003f240     cio.obj
 0004:0000024c       $pdata$?do_get@?$num_get@DV?$istreambuf_iterator@DU?$char_traits@D@std@@@std@@@std@@MEBA?AV?$istreambuf_iterator@DU?$char_traits@D@std@@@2@V32@0AEAVios_base@2@AEAHAEA_J@Z 000000018003f24c     cio.obj
 0004:00000258       $pdata$?do_get@?$num_get@DV?$istreambuf_iterator@DU?$char_traits@D@std@@@std@@@std@@MEBA?AV?$istreambuf_iterator@DU?$char_traits@D@std@@@2@V32@0AEAVios_base@2@AEAHAEAK@Z 000000018003f258     cio.obj
 0004:00000264       $pdata$?do_get@?$num_get@DV?$istreambuf_iterator@DU?$char_traits@D@std@@@std@@@std@@MEBA?AV?$istreambuf_iterator@DU?$char_traits@D@std@@@2@V32@0AEAVios_base@2@AEAHAEAJ@Z 000000018003f264     cio.obj
 0004:00000270       $pdata$?do_get@?$num_get@DV?$istreambuf_iterator@DU?$char_traits@D@std@@@std@@@std@@MEBA?AV?$istreambuf_iterator@DU?$char_traits@D@std@@@2@V32@0AEAVios_base@2@AEAHAEAI@Z 000000018003f270     cio.obj
 0004:0000027c       $pdata$?do_get@?$num_get@DV?$istreambuf_iterator@DU?$char_traits@D@std@@@std@@@std@@MEBA?AV?$istreambuf_iterator@DU?$char_traits@D@std@@@2@V32@0AEAVios_base@2@AEAHAEAG@Z 000000018003f27c     cio.obj
 0004:00000288       $pdata$?do_get@?$num_get@DV?$istreambuf_iterator@DU?$char_traits@D@std@@@std@@@std@@MEBA?AV?$istreambuf_iterator@DU?$char_traits@D@std@@@2@V32@0AEAVios_base@2@AEAHAEA_N@Z 000000018003f288     cio.obj
 0004:00000294       $pdata$?assign@?$basic_string@DU?$char_traits@D@std@@V?$allocator@D@2@@std@@QEAAAEAV12@_KD@Z 000000018003f294     cio.obj
 0004:000002a0       $pdata$?assign@?$basic_string@DU?$char_traits@D@std@@V?$allocator@D@2@@std@@QEAAAEAV12@PEBD_K@Z 000000018003f2a0     cio.obj
 0004:000002ac       $pdata$?assign@?$basic_string@DU?$char_traits@D@std@@V?$allocator@D@2@@std@@QEAAAEAV12@AEBV12@_K1@Z 000000018003f2ac     cio.obj
 0004:000002b8       $pdata$?append@?$basic_string@DU?$char_traits@D@std@@V?$allocator@D@2@@std@@QEAAAEAV12@PEBD_K@Z 000000018003f2b8     cio.obj
 0004:000002c4       $pdata$0$?append@?$basic_string@DU?$char_traits@D@std@@V?$allocator@D@2@@std@@QEAAAEAV12@PEBD_K@Z 000000018003f2c4     cio.obj
 0004:000002d0       $pdata$1$?append@?$basic_string@DU?$char_traits@D@std@@V?$allocator@D@2@@std@@QEAAAEAV12@PEBD_K@Z 000000018003f2d0     cio.obj
 0004:000002dc       $pdata$2$?append@?$basic_string@DU?$char_traits@D@std@@V?$allocator@D@2@@std@@QEAAAEAV12@PEBD_K@Z 000000018003f2dc     cio.obj
 0004:000002e8       $pdata$?append@?$basic_string@DU?$char_traits@D@std@@V?$allocator@D@2@@std@@QEAAAEAV12@AEBV12@_K1@Z 000000018003f2e8     cio.obj
 0004:000002f4       $pdata$0$?append@?$basic_string@DU?$char_traits@D@std@@V?$allocator@D@2@@std@@QEAAAEAV12@AEBV12@_K1@Z 000000018003f2f4     cio.obj
 0004:00000300       $pdata$1$?append@?$basic_string@DU?$char_traits@D@std@@V?$allocator@D@2@@std@@QEAAAEAV12@AEBV12@_K1@Z 000000018003f300     cio.obj
 0004:0000030c       $pdata$2$?append@?$basic_string@DU?$char_traits@D@std@@V?$allocator@D@2@@std@@QEAAAEAV12@AEBV12@_K1@Z 000000018003f30c     cio.obj
 0004:00000318       $pdata$?_Assign_rv@?$basic_string@DU?$char_traits@D@std@@V?$allocator@D@2@@std@@QEAAX$$QEAV12@@Z 000000018003f318     cio.obj
 0004:00000324       $pdata$??_G?$num_get@DV?$istreambuf_iterator@DU?$char_traits@D@std@@@std@@@std@@MEAAPEAXI@Z 000000018003f324     cio.obj
 0004:00000324       $pdata$??_G?$codecvt@DDU_Mbstatet@@@std@@MEAAPEAXI@Z 000000018003f324     libcpmt:cout.obj
 0004:00000330       $pdata$?do_truename@?$numpunct@D@std@@MEBA?AV?$basic_string@DU?$char_traits@D@std@@V?$allocator@D@2@@2@XZ 000000018003f330     cio.obj
 0004:0000033c       $pdata$?do_falsename@?$numpunct@D@std@@MEBA?AV?$basic_string@DU?$char_traits@D@std@@V?$allocator@D@2@@2@XZ 000000018003f33c     cio.obj
 0004:00000348       $pdata$?do_grouping@?$numpunct@D@std@@MEBA?AV?$basic_string@DU?$char_traits@D@std@@V?$allocator@D@2@@2@XZ 000000018003f348     cio.obj
 0004:00000354       $pdata$?_Getffld@?$num_get@DV?$istreambuf_iterator@DU?$char_traits@D@std@@@std@@@std@@AEBAHPEADAEAV?$istreambuf_iterator@DU?$char_traits@D@std@@@2@1AEAVios_base@2@PEAH@Z 000000018003f354     cio.obj
 0004:00000360       $pdata$2$?_Getffld@?$num_get@DV?$istreambuf_iterator@DU?$char_traits@D@std@@@std@@@std@@AEBAHPEADAEAV?$istreambuf_iterator@DU?$char_traits@D@std@@@2@1AEAVios_base@2@PEAH@Z 000000018003f360     cio.obj
 0004:0000036c       $pdata$3$?_Getffld@?$num_get@DV?$istreambuf_iterator@DU?$char_traits@D@std@@@std@@@std@@AEBAHPEADAEAV?$istreambuf_iterator@DU?$char_traits@D@std@@@2@1AEAVios_base@2@PEAH@Z 000000018003f36c     cio.obj
 0004:00000378       $pdata$4$?_Getffld@?$num_get@DV?$istreambuf_iterator@DU?$char_traits@D@std@@@std@@@std@@AEBAHPEADAEAV?$istreambuf_iterator@DU?$char_traits@D@std@@@2@1AEAVios_base@2@PEAH@Z 000000018003f378     cio.obj
 0004:00000384       $pdata$?_Getifld@?$num_get@DV?$istreambuf_iterator@DU?$char_traits@D@std@@@std@@@std@@AEBAHPEADAEAV?$istreambuf_iterator@DU?$char_traits@D@std@@@2@1HAEBVlocale@2@@Z 000000018003f384     cio.obj
 0004:00000390       $pdata$?erase@?$basic_string@DU?$char_traits@D@std@@V?$allocator@D@2@@std@@QEAAAEAV12@_K0@Z 000000018003f390     cio.obj
 0004:0000039c       $pdata$?append@?$basic_string@DU?$char_traits@D@std@@V?$allocator@D@2@@std@@QEAAAEAV12@_KD@Z 000000018003f39c     cio.obj
 0004:000003a8       $pdata$0$?append@?$basic_string@DU?$char_traits@D@std@@V?$allocator@D@2@@std@@QEAAAEAV12@_KD@Z 000000018003f3a8     cio.obj
 0004:000003b4       $pdata$1$?append@?$basic_string@DU?$char_traits@D@std@@V?$allocator@D@2@@std@@QEAAAEAV12@_KD@Z 000000018003f3b4     cio.obj
 0004:000003c0       $pdata$2$?append@?$basic_string@DU?$char_traits@D@std@@V?$allocator@D@2@@std@@QEAAAEAV12@_KD@Z 000000018003f3c0     cio.obj
 0004:000003cc       $pdata$??Y?$basic_string@DU?$char_traits@D@std@@V?$allocator@D@2@@std@@QEAAAEAV01@D@Z 000000018003f3cc     cio.obj
 0004:000003d8       $pdata$0$??Y?$basic_string@DU?$char_traits@D@std@@V?$allocator@D@2@@std@@QEAAAEAV01@D@Z 000000018003f3d8     cio.obj
 0004:000003e4       $pdata$2$??Y?$basic_string@DU?$char_traits@D@std@@V?$allocator@D@2@@std@@QEAAAEAV01@D@Z 000000018003f3e4     cio.obj
 0004:000003f0       $pdata$4$??Y?$basic_string@DU?$char_traits@D@std@@V?$allocator@D@2@@std@@QEAAAEAV01@D@Z 000000018003f3f0     cio.obj
 0004:000003fc       $pdata$5$??Y?$basic_string@DU?$char_traits@D@std@@V?$allocator@D@2@@std@@QEAAAEAV01@D@Z 000000018003f3fc     cio.obj
 0004:00000408       $pdata$6$??Y?$basic_string@DU?$char_traits@D@std@@V?$allocator@D@2@@std@@QEAAAEAV01@D@Z 000000018003f408     cio.obj
 0004:00000414       $pdata$?_Ipfx@?$basic_istream@DU?$char_traits@D@std@@@std@@QEAA_N_N@Z 000000018003f414     cio.obj
 0004:00000420       $pdata$1$?_Ipfx@?$basic_istream@DU?$char_traits@D@std@@@std@@QEAA_N_N@Z 000000018003f420     cio.obj
 0004:0000042c       $pdata$2$?_Ipfx@?$basic_istream@DU?$char_traits@D@std@@@std@@QEAA_N_N@Z 000000018003f42c     cio.obj
 0004:00000438       $pdata$3$?_Ipfx@?$basic_istream@DU?$char_traits@D@std@@@std@@QEAA_N_N@Z 000000018003f438     cio.obj
 0004:00000444       $pdata$??_G?$numpunct@D@std@@MEAAPEAXI@Z 000000018003f444     cio.obj
 0004:00000450       $pdata$?_Getffldx@?$num_get@DV?$istreambuf_iterator@DU?$char_traits@D@std@@@std@@@std@@AEBAHPEADAEAV?$istreambuf_iterator@DU?$char_traits@D@std@@@2@1AEAVios_base@2@PEAH@Z 000000018003f450     cio.obj
 0004:0000045c       $pdata$??E?$istreambuf_iterator@DU?$char_traits@D@std@@@std@@QEAAAEAV01@XZ 000000018003f45c     cio.obj
 0004:00000468       $pdata$??D?$istreambuf_iterator@DU?$char_traits@D@std@@@std@@QEBADXZ 000000018003f468     cio.obj
 0004:00000474       $pdata$?_Copy@?$basic_string@DU?$char_traits@D@std@@V?$allocator@D@2@@std@@QEAAX_K0@Z 000000018003f474     cio.obj
 0004:00000480       $pdata$?flush@?$basic_ostream@DU?$char_traits@D@std@@@std@@QEAAAEAV12@XZ 000000018003f480     cio.obj
 0004:0000048c       $pdata$?snextc@?$basic_streambuf@DU?$char_traits@D@std@@@std@@QEAAHXZ 000000018003f48c     cio.obj
 0004:00000498       $pdata$??$use_facet@V?$ctype@D@std@@@std@@YAAEBV?$ctype@D@0@AEBVlocale@0@@Z 000000018003f498     cio.obj
 0004:000004a4       $pdata$??$_Immortalize@V_Iostream_error_category@std@@@std@@YAAEAV_Iostream_error_category@0@XZ 000000018003f4a4     cio.obj
 0004:000004b0       $pdata$??$?6DU?$char_traits@D@std@@V?$allocator@D@1@@std@@YAAEAV?$basic_ostream@DU?$char_traits@D@std@@@0@AEAV10@AEBV?$basic_string@DU?$char_traits@D@std@@V?$allocator@D@2@@0@@Z 000000018003f4b0     cio.obj
 0004:000004bc       $pdata$??$use_facet@V?$num_get@DV?$istreambuf_iterator@DU?$char_traits@D@std@@@std@@@std@@@std@@YAAEBV?$num_get@DV?$istreambuf_iterator@DU?$char_traits@D@std@@@std@@@0@AEBVlocale@0@@Z 000000018003f4bc     cio.obj
 0004:000004c8       $pdata$??$use_facet@V?$numpunct@D@std@@@std@@YAAEBV?$numpunct@D@0@AEBVlocale@0@@Z 000000018003f4c8     cio.obj
 0004:000004d4       $pdata$??$_Getloctxt@DV?$istreambuf_iterator@DU?$char_traits@D@std@@@std@@@std@@YAHAEAV?$istreambuf_iterator@DU?$char_traits@D@std@@@0@0_KPEBD@Z 000000018003f4d4     cio.obj
 0004:000004e0       $pdata$?_Getcat@?$numpunct@D@std@@SA_KPEAPEBVfacet@locale@2@PEBV42@@Z 000000018003f4e0     cio.obj
 0004:000004ec       $pdata$0$?_Getcat@?$numpunct@D@std@@SA_KPEAPEBVfacet@locale@2@PEBV42@@Z 000000018003f4ec     cio.obj
 0004:000004f8       $pdata$1$?_Getcat@?$numpunct@D@std@@SA_KPEAPEBVfacet@locale@2@PEBV42@@Z 000000018003f4f8     cio.obj
 0004:00000504       $pdata$?equal@?$istreambuf_iterator@DU?$char_traits@D@std@@@std@@QEBA_NAEBV12@@Z 000000018003f504     cio.obj
 0004:00000510       $pdata$?put@?$basic_ostream@DU?$char_traits@D@std@@@std@@QEAAAEAV12@D@Z 000000018003f510     cio.obj
 0004:0000051c       $pdata$?widen@?$basic_ios@DU?$char_traits@D@std@@@std@@QEBADD@Z 000000018003f51c     cio.obj
 0004:00000528       $pdata$?_Init@?$numpunct@D@std@@IEAAXAEBV_Locinfo@2@_N@Z 000000018003f528     cio.obj
 0004:00000534       $pdata$??$?5DU?$char_traits@D@std@@V?$allocator@D@1@@std@@YAAEAV?$basic_istream@DU?$char_traits@D@std@@@0@$$QEAV10@AEAV?$basic_string@DU?$char_traits@D@std@@V?$allocator@D@2@@0@@Z 000000018003f534     cio.obj
 0004:00000540       $pdata$?load_exe_hook@@YAP6A_JXZIPEAUDelayLoadInfo@@@Z 000000018003f540     win_delay_load_hook.obj
 0004:00000558       $pdata$_Stollx             000000018003f558     libcpmt:xstoll.obj
 0004:00000564       $pdata$_Stolx              000000018003f564     libcpmt:xstol.obj
 0004:00000570       $pdata$_Stoulx             000000018003f570     libcpmt:xstoul.obj
 0004:0000057c       $pdata$??0_Init_locks@std@@QEAA@XZ 000000018003f57c     libcpmt:xlock.obj
 0004:00000588       $pdata$??0_Lockit@std@@QEAA@H@Z 000000018003f588     libcpmt:xlock.obj
 0004:00000594       $pdata$??1_Init_locks@std@@QEAA@XZ 000000018003f594     libcpmt:xlock.obj
 0004:000005a0       $pdata$??1_Lockit@std@@QEAA@XZ 000000018003f5a0     libcpmt:xlock.obj
 0004:000005ac       $pdata$??$use_facet@V?$codecvt@DDU_Mbstatet@@@std@@@std@@YAAEBV?$codecvt@DDU_Mbstatet@@@0@AEBVlocale@0@@Z 000000018003f5ac     libcpmt:cout.obj
 0004:000005b8       $pdata$??0?$basic_ostream@DU?$char_traits@D@std@@@std@@QEAA@PEAV?$basic_streambuf@DU?$char_traits@D@std@@@1@_N@Z 000000018003f5b8     libcpmt:cout.obj
 0004:000005c4       $pdata$??0?$basic_streambuf@DU?$char_traits@D@std@@@std@@IEAA@XZ 000000018003f5c4     libcpmt:cout.obj
 0004:000005d0       $pdata$??0bad_cast@std@@QEAA@AEBV01@@Z 000000018003f5d0     libcpmt:cout.obj
 0004:000005dc       $pdata$??0exception@std@@QEAA@AEBV01@@Z 000000018003f5dc     libcpmt:cout.obj
 0004:000005e8       $pdata$??1?$basic_filebuf@DU?$char_traits@D@std@@@std@@UEAA@XZ 000000018003f5e8     libcpmt:cout.obj
 0004:000005f4       $pdata$??1?$basic_ios@DU?$char_traits@D@std@@@std@@UEAA@XZ 000000018003f5f4     libcpmt:cout.obj
 0004:00000600       $pdata$??_G?$basic_filebuf@DU?$char_traits@D@std@@@std@@UEAAPEAXI@Z 000000018003f600     libcpmt:cout.obj
 0004:0000060c       $pdata$??_G?$basic_ios@DU?$char_traits@D@std@@@std@@UEAAPEAXI@Z 000000018003f60c     libcpmt:cout.obj
 0004:00000618       $pdata$??_G?$basic_ostream@DU?$char_traits@D@std@@@std@@UEAAPEAXI@Z 000000018003f618     libcpmt:cout.obj
 0004:00000624       $pdata$??_G?$basic_streambuf@DU?$char_traits@D@std@@@std@@UEAAPEAXI@Z 000000018003f624     libcpmt:cout.obj
 0004:00000630       $pdata$??_Gios_base@std@@UEAAPEAXI@Z 000000018003f630     libcpmt:cout.obj
 0004:0000063c       $pdata$??_Glocale@std@@QEAAPEAXI@Z 000000018003f63c     libcpmt:cout.obj
 0004:00000648       $pdata$?_Endwrite@?$basic_filebuf@DU?$char_traits@D@std@@@std@@IEAA_NXZ 000000018003f648     libcpmt:cout.obj
 0004:00000654       $pdata$?_Getcat@?$codecvt@DDU_Mbstatet@@@std@@SA_KPEAPEBVfacet@locale@2@PEBV42@@Z 000000018003f654     libcpmt:cout.obj
 0004:00000660       $pdata$?_Init@?$basic_filebuf@DU?$char_traits@D@std@@@std@@IEAAXPEAU_iobuf@@W4_Initfl@12@@Z 000000018003f660     libcpmt:cout.obj
 0004:0000066c       $pdata$?_Init@ios_base@std@@IEAAXXZ 000000018003f66c     libcpmt:cout.obj
 0004:00000678       $pdata$?_Initcvt@?$basic_filebuf@DU?$char_traits@D@std@@@std@@IEAAXPEBV?$codecvt@DDU_Mbstatet@@@2@@Z 000000018003f678     libcpmt:cout.obj
 0004:00000684       $pdata$?_Lock@?$basic_filebuf@DU?$char_traits@D@std@@@std@@UEAAXXZ 000000018003f684     libcpmt:cout.obj
 0004:00000690       $pdata$?_Unlock@?$basic_filebuf@DU?$char_traits@D@std@@@std@@UEAAXXZ 000000018003f690     libcpmt:cout.obj
 0004:0000069c       $pdata$?imbue@?$basic_filebuf@DU?$char_traits@D@std@@@std@@MEAAXAEBVlocale@2@@Z 000000018003f69c     libcpmt:cout.obj
 0004:000006a8       $pdata$?overflow@?$basic_filebuf@DU?$char_traits@D@std@@@std@@MEAAHH@Z 000000018003f6a8     libcpmt:cout.obj
 0004:000006b4       $pdata$?pbackfail@?$basic_filebuf@DU?$char_traits@D@std@@@std@@MEAAHH@Z 000000018003f6b4     libcpmt:cout.obj
 0004:000006c0       $pdata$?seekoff@?$basic_filebuf@DU?$char_traits@D@std@@@std@@MEAA?AV?$fpos@U_Mbstatet@@@2@_JHH@Z 000000018003f6c0     libcpmt:cout.obj
 0004:000006cc       $pdata$?seekpos@?$basic_filebuf@DU?$char_traits@D@std@@@std@@MEAA?AV?$fpos@U_Mbstatet@@@2@V32@H@Z 000000018003f6cc     libcpmt:cout.obj
 0004:000006d8       $pdata$?setbuf@?$basic_filebuf@DU?$char_traits@D@std@@@std@@MEAAPEAV?$basic_streambuf@DU?$char_traits@D@std@@@2@PEAD_J@Z 000000018003f6d8     libcpmt:cout.obj
 0004:000006e4       $pdata$?sync@?$basic_filebuf@DU?$char_traits@D@std@@@std@@MEAAHXZ 000000018003f6e4     libcpmt:cout.obj
 0004:000006f0       $pdata$?uflow@?$basic_filebuf@DU?$char_traits@D@std@@@std@@MEAAHXZ 000000018003f6f0     libcpmt:cout.obj
 0004:000006fc       $pdata$?uflow@?$basic_streambuf@DU?$char_traits@D@std@@@std@@MEAAHXZ 000000018003f6fc     libcpmt:cout.obj
 0004:00000708       $pdata$?underflow@?$basic_filebuf@DU?$char_traits@D@std@@@std@@MEAAHXZ 000000018003f708     libcpmt:cout.obj
 0004:00000714       $pdata$?xsgetn@?$basic_streambuf@DU?$char_traits@D@std@@@std@@MEAA_JPEAD_J@Z 000000018003f714     libcpmt:cout.obj
 0004:00000720       $pdata$?xsputn@?$basic_streambuf@DU?$char_traits@D@std@@@std@@MEAA_JPEBD_J@Z 000000018003f720     libcpmt:cout.obj
 0004:0000072c       $pdata$??4?$_Yarn@D@std@@QEAAAEAV01@PEBD@Z 000000018003f72c     libcpmt:locale0.obj
 0004:00000738       $pdata$??_G_Fac_node@std@@QEAAPEAXI@Z 000000018003f738     libcpmt:locale0.obj
 0004:00000744       $pdata$??_G_Locimp@locale@std@@MEAAPEAXI@Z 000000018003f744     libcpmt:locale0.obj
 0004:00000750       $pdata$?_Facet_Register@std@@YAXPEAV_Facet_base@1@@Z 000000018003f750     libcpmt:locale0.obj
 0004:0000075c       $pdata$?_Init@locale@std@@CAPEAV_Locimp@12@_N@Z 000000018003f75c     libcpmt:locale0.obj
 0004:00000768       $pdata$?_Locimp_dtor@_Locimp@locale@std@@CAXPEAV123@@Z 000000018003f768     libcpmt:locale0.obj
 0004:00000774       $pdata$?_Locinfo_ctor@_Locinfo@std@@SAXPEAV12@PEBD@Z 000000018003f774     libcpmt:locale0.obj
 0004:00000780       $pdata$?_Locinfo_dtor@_Locinfo@std@@SAXPEAV12@@Z 000000018003f780     libcpmt:locale0.obj
 0004:0000078c       $pdata$?_New_Locimp@_Locimp@locale@std@@CAPEAV123@_N@Z 000000018003f78c     libcpmt:locale0.obj
 0004:00000798       $pdata$?_Setgloballocale@locale@std@@CAXPEAX@Z 000000018003f798     libcpmt:locale0.obj
 0004:000007a4       $pdata$_Deletegloballocale 000000018003f7a4     libcpmt:locale0.obj
 0004:000007b0       $pdata$tidy_global         000000018003f7b0     libcpmt:locale0.obj
 0004:000007bc       $pdata$??0?$basic_istream@DU?$char_traits@D@std@@@std@@QEAA@PEAV?$basic_streambuf@DU?$char_traits@D@std@@@1@_N@Z 000000018003f7bc     libcpmt:cin.obj
 0004:000007c8       $pdata$??_G?$basic_istream@DU?$char_traits@D@std@@@std@@UEAAPEAXI@Z 000000018003f7c8     libcpmt:cin.obj
 0004:000007d4       $pdata$??0bad_alloc@std@@QEAA@AEBV01@@Z 000000018003f7d4     libcpmt:xthrow.obj
 0004:000007e0       $pdata$??0length_error@std@@QEAA@AEBV01@@Z 000000018003f7e0     libcpmt:xthrow.obj
 0004:000007ec       $pdata$??0length_error@std@@QEAA@PEBD@Z 000000018003f7ec     libcpmt:xthrow.obj
 0004:000007f8       $pdata$??0logic_error@std@@QEAA@AEBV01@@Z 000000018003f7f8     libcpmt:xthrow.obj
 0004:00000804       $pdata$??0out_of_range@std@@QEAA@AEBV01@@Z 000000018003f804     libcpmt:xthrow.obj
 0004:00000810       $pdata$??0out_of_range@std@@QEAA@PEBD@Z 000000018003f810     libcpmt:xthrow.obj
 0004:0000081c       $pdata$?__scrt_throw_std_bad_alloc@@YAXXZ 000000018003f81c     LIBCMT:throw_bad_alloc.obj
 0004:0000081c       $pdata$?_Xbad_alloc@std@@YAXXZ 000000018003f81c     libcpmt:xthrow.obj
 0004:00000828       $pdata$?_Xlength_error@std@@YAXPEBD@Z 000000018003f828     libcpmt:xthrow.obj
 0004:00000834       $pdata$?_Xout_of_range@std@@YAXPEBD@Z 000000018003f834     libcpmt:xthrow.obj
 0004:00000840       $pdata$_Stoullx            000000018003f840     libcpmt:xstoull.obj
 0004:0000084c       $pdata$_Getctype           000000018003f84c     libcpmt:_tolower.obj
 0004:00000858       $pdata$_Tolower            000000018003f858     libcpmt:_tolower.obj
 0004:00000864       $pdata$_Getcvt             000000018003f864     libcpmt:xwctomb.obj
 0004:00000870       $pdata$_Toupper            000000018003f870     libcpmt:_toupper.obj
 0004:0000087c       $pdata$?_Addstd@ios_base@std@@SAXPEAV12@@Z 000000018003f87c     libcpmt:ios.obj
 0004:00000888       $pdata$?_Ios_base_dtor@ios_base@std@@CAXPEAV12@@Z 000000018003f888     libcpmt:ios.obj
 0004:00000894       $pdata$?_Tidy@ios_base@std@@AEAAXXZ 000000018003f894     libcpmt:ios.obj
 0004:000008a0       $pdata$?_Atexit@@YAXP6AXXZ@Z 000000018003f8a0     libcpmt:iosptrs.obj
 0004:000008ac       $pdata$__crtLCMapStringA   000000018003f8ac     libcpmt:StlLCMapStringA.obj
 0004:000008b8       $pdata$?initialize_pointers@@YAHXZ 000000018003f8b8     libcpmt:winapisupp.obj
 0004:000008c4       $pdata$__crtInitializeCriticalSectionEx 000000018003f8c4     libcpmt:winapisupp.obj
 0004:000008d0       $pdata$GetTableIndexFromLocaleName 000000018003f8d0     libcpmt:winapinls.obj
 0004:000008dc       $pdata$__crtDownlevelLocaleNameToLCID 000000018003f8dc     libcpmt:winapinls.obj
 0004:000008e8       $pdata$__crtLCMapStringEx  000000018003f8e8     libcpmt:winapinls.obj
 0004:00000900       $pdata$?__scrt_initialize_thread_safe_statics@@YAHXZ 000000018003f900     LIBCMT:thread_safe_statics.obj
 0004:0000090c       $pdata$?__scrt_uninitialize_thread_safe_statics@@YAXXZ 000000018003f90c     LIBCMT:thread_safe_statics.obj
 0004:00000918       $pdata$_Init_thread_footer 000000018003f918     LIBCMT:thread_safe_statics.obj
 0004:00000924       $pdata$_Init_thread_header 000000018003f924     LIBCMT:thread_safe_statics.obj
 0004:00000930       $pdata$_Init_thread_notify 000000018003f930     LIBCMT:thread_safe_statics.obj
 0004:0000093c       $pdata$_Init_thread_wait   000000018003f93c     LIBCMT:thread_safe_statics.obj
 0004:00000948       $pdata$??2@YAPEAX_K@Z      000000018003f948     LIBCMT:new_scalar.obj
 0004:00000954       $pdata$__scrt_acquire_startup_lock 000000018003f954     LIBCMT:utility.obj
 0004:00000960       $pdata$__scrt_dllmain_after_initialize_c 000000018003f960     LIBCMT:utility.obj
 0004:0000096c       $pdata$__scrt_dllmain_before_initialize_c 000000018003f96c     LIBCMT:utility.obj
 0004:00000978       $pdata$__scrt_dllmain_crt_thread_attach 000000018003f978     LIBCMT:utility.obj
 0004:00000984       $pdata$__scrt_dllmain_crt_thread_detach 000000018003f984     LIBCMT:utility.obj
 0004:00000990       $pdata$__scrt_dllmain_exception_filter 000000018003f990     LIBCMT:utility.obj
 0004:0000099c       $pdata$__scrt_dllmain_uninitialize_c 000000018003f99c     LIBCMT:utility.obj
 0004:000009a8       $pdata$__scrt_dllmain_uninitialize_critical 000000018003f9a8     LIBCMT:utility.obj
 0004:000009b4       $pdata$__scrt_initialize_crt 000000018003f9b4     LIBCMT:utility.obj
 0004:000009c0       $pdata$__scrt_initialize_onexit_tables 000000018003f9c0     LIBCMT:utility.obj
 0004:000009cc       $pdata$__scrt_is_nonwritable_in_current_image 000000018003f9cc     LIBCMT:utility.obj
 0004:000009d8       $pdata$__scrt_release_startup_lock 000000018003f9d8     LIBCMT:utility.obj
 0004:000009e4       $pdata$__scrt_uninitialize_crt 000000018003f9e4     LIBCMT:utility.obj
 0004:000009f0       $pdata$_onexit             000000018003f9f0     LIBCMT:utility.obj
 0004:000009fc       $pdata$atexit              000000018003f9fc     LIBCMT:utility.obj
 0004:00000a08       $pdata$?dllmain_crt_dispatch@@YAHQEAUHINSTANCE__@@KQEAX@Z 000000018003fa08     LIBCMT:dll_dllmain.obj
 0004:00000a14       $pdata$?dllmain_crt_process_attach@@YAHQEAUHINSTANCE__@@QEAX@Z 000000018003fa14     LIBCMT:dll_dllmain.obj
 0004:00000a20       $pdata$?dllmain_crt_process_detach@@YAH_N@Z 000000018003fa20     LIBCMT:dll_dllmain.obj
 0004:00000a2c       $pdata$?dllmain_dispatch@@YAHQEAUHINSTANCE__@@KQEAX@Z 000000018003fa2c     LIBCMT:dll_dllmain.obj
 0004:00000a38       $pdata$?dllmain_raw@@YAHQEAUHINSTANCE__@@KQEAX@Z 000000018003fa38     LIBCMT:dll_dllmain.obj
 0004:00000a44       $pdata$_DllMainCRTStartup  000000018003fa44     LIBCMT:dll_dllmain.obj
 0004:00000a50       $pdata$__GSHandlerCheck    000000018003fa50     LIBCMT:_gshandler_.obj
 0004:00000a5c       $pdata$__GSHandlerCheckCommon 000000018003fa5c     LIBCMT:_gshandler_.obj
 0004:00000a68       $pdata$__GSHandlerCheck_EH 000000018003fa68     LIBCMT:gshandlereh.obj
 0004:00000a74       $pdata$??_Gtype_info@@UEAAPEAXI@Z 000000018003fa74     LIBCMT:std_type_info_static.obj
 0004:00000a8c       $pdata$__raise_securityfailure 000000018003fa8c     LIBCMT:gs_report.obj
 0004:00000a98       $pdata$__report_gsfailure  000000018003fa98     LIBCMT:gs_report.obj
 0004:00000aa4       $pdata$__report_rangecheckfailure 000000018003faa4     LIBCMT:gs_report.obj
 0004:00000ab0       $pdata$__report_securityfailure 000000018003fab0     LIBCMT:gs_report.obj
 0004:00000abc       $pdata$capture_current_context 000000018003fabc     LIBCMT:gs_report.obj
 0004:00000ac8       $pdata$capture_previous_context 000000018003fac8     LIBCMT:gs_report.obj
 0004:00000ad4       $pdata$__scrt_fastfail     000000018003fad4     LIBCMT:utility_desktop.obj
 0004:00000ae0       $pdata$??0bad_array_new_length@std@@QEAA@AEBV01@@Z 000000018003fae0     LIBCMT:throw_bad_alloc.obj
 0004:00000aec       $pdata$?__scrt_throw_std_bad_array_new_length@@YAXXZ 000000018003faec     LIBCMT:throw_bad_alloc.obj
 0004:00000af8       $pdata$__isa_available_init 000000018003faf8     LIBCMT:_cpu_disp_.obj
 0004:00000b04       $pdata$__security_init_cookie 000000018003fb04     LIBCMT:gs_support.obj
 0004:00000b10       $pdata$__scrt_initialize_default_local_stdio_options 000000018003fb10     LIBCMT:default_local_stdio_options.obj
 0004:00000b1c       $pdata$_RTC_Initialize     000000018003fb1c     LIBCMT:_initsect_.obj
 0004:00000b28       $pdata$_RTC_Terminate      000000018003fb28     LIBCMT:_initsect_.obj
 0004:00000b40       $pdata$_purecall           000000018003fb40     libvcruntime:purevirt.obj
 0004:00000b4c       $pdata$__DestructExceptionObject 000000018003fb4c     libvcruntime:frame.obj
 0004:00000b58       $pdata$??0bad_exception@std@@QEAA@AEBV01@@Z 000000018003fb58     libvcruntime:frame.obj
 0004:00000b64       $pdata$??_Gbad_alloc@std@@UEAAPEAXI@Z 000000018003fb64     libcpmt:xthrow.obj
 0004:00000b64       $pdata$??_Gout_of_range@std@@UEAAPEAXI@Z 000000018003fb64     libcpmt:xthrow.obj
 0004:00000b64       $pdata$??_Gexception@std@@UEAAPEAXI@Z 000000018003fb64     libcpmt:cout.obj
 0004:00000b64       $pdata$??_Glogic_error@std@@UEAAPEAXI@Z 000000018003fb64     libcpmt:xthrow.obj
 0004:00000b64       $pdata$??_Gbad_cast@std@@UEAAPEAXI@Z 000000018003fb64     libcpmt:cout.obj
 0004:00000b64       $pdata$??_Gbad_exception@std@@UEAAPEAXI@Z 000000018003fb64     libvcruntime:frame.obj
 0004:00000b64       $pdata$??_Glength_error@std@@UEAAPEAXI@Z 000000018003fb64     libcpmt:xthrow.obj
 0004:00000b64       $pdata$??_Gbad_array_new_length@std@@UEAAPEAXI@Z 000000018003fb64     LIBCMT:throw_bad_alloc.obj
 0004:00000b70       $pdata$?CatchIt@@YAXPEAUEHExceptionRecord@@PEA_KPEAU_CONTEXT@@PEAU_xDISPATCHER_CONTEXT@@PEBU_s_FuncInfo@@PEBU_s_HandlerType@@PEBU_s_CatchableType@@PEBU_s_TryBlockMapEntry@@H1EE@Z 000000018003fb70     libvcruntime:frame.obj
 0004:00000b7c       $pdata$?ExFilterRethrow@@YAHPEAU_EXCEPTION_POINTERS@@PEAUEHExceptionRecord@@PEAH@Z 000000018003fb7c     libvcruntime:frame.obj
 0004:00000b88       $pdata$?FindHandler@@YAXPEAUEHExceptionRecord@@PEA_KPEAU_CONTEXT@@PEAU_xDISPATCHER_CONTEXT@@PEBU_s_FuncInfo@@EH1@Z 000000018003fb88     libvcruntime:frame.obj
 0004:00000b94       $pdata$?FindHandlerForForeignException@@YAXPEAUEHExceptionRecord@@PEA_KPEAU_CONTEXT@@PEAU_xDISPATCHER_CONTEXT@@PEBU_s_FuncInfo@@HH1@Z 000000018003fb94     libvcruntime:frame.obj
 0004:00000ba0       $pdata$?IsInExceptionSpec@@YAEPEAUEHExceptionRecord@@PEBU_s_ESTypeList@@@Z 000000018003fba0     libvcruntime:frame.obj
 0004:00000bac       $pdata$__BuildCatchObject  000000018003fbac     libvcruntime:frame.obj
 0004:00000bb8       $pdata$__BuildCatchObjectHelper 000000018003fbb8     libvcruntime:frame.obj
 0004:00000bc4       $pdata$__CxxCallCatchBlock 000000018003fbc4     libvcruntime:frame.obj
 0004:00000bd0       $pdata$__FrameUnwindFilter 000000018003fbd0     libvcruntime:frame.obj
 0004:00000bdc       $pdata$__FrameUnwindToState 000000018003fbdc     libvcruntime:frame.obj
 0004:00000be8       $pdata$__InternalCxxFrameHandler 000000018003fbe8     libvcruntime:frame.obj
 0004:00000bf4       $pdata$__TypeMatch         000000018003fbf4     libvcruntime:frame.obj
 0004:00000c00       $pdata$__std_terminate     000000018003fc00     libvcruntime:frame.obj
 0004:00000c0c       $pdata$__std_exception_copy 000000018003fc0c     libvcruntime:std_exception.obj
 0004:00000c18       $pdata$__std_exception_destroy 000000018003fc18     libvcruntime:std_exception.obj
 0004:00000c24       $pdata$_CxxThrowException  000000018003fc24     libvcruntime:throw.obj
 0004:00000c30       $pdata$?_ExecutionInCatch@@YAHPEAU_xDISPATCHER_CONTEXT@@PEBU_s_FuncInfo@@@Z 000000018003fc30     libvcruntime:trnsctrl.obj
 0004:00000c3c       $pdata$?_GetEstablisherFrame@@YAPEA_KPEA_KPEAU_xDISPATCHER_CONTEXT@@PEBU_s_FuncInfo@@0@Z 000000018003fc3c     libvcruntime:trnsctrl.obj
 0004:00000c48       $pdata$?_GetRangeOfTrysToCheck@@YAPEBU_s_TryBlockMapEntry@@PEA_KPEBU_s_FuncInfo@@HHPEAI2PEAU_xDISPATCHER_CONTEXT@@@Z 000000018003fc48     libvcruntime:trnsctrl.obj
 0004:00000c54       $pdata$?__FrameUnwindToEmptyState@@YAXPEA_KPEAU_xDISPATCHER_CONTEXT@@PEBU_s_FuncInfo@@@Z 000000018003fc54     libvcruntime:trnsctrl.obj
 0004:00000c60       $pdata$?__SehTransFilter@@YAHPEAU_EXCEPTION_POINTERS@@PEAUEHExceptionRecord@@PEA_KPEAU_CONTEXT@@PEAU_xDISPATCHER_CONTEXT@@PEBU_s_FuncInfo@@PEAH@Z 000000018003fc60     libvcruntime:trnsctrl.obj
 0004:00000c6c       $pdata$_CallSETranslator   000000018003fc6c     libvcruntime:trnsctrl.obj
 0004:00000c78       $pdata$_CreateFrameInfo    000000018003fc78     libvcruntime:trnsctrl.obj
 0004:00000c84       $pdata$_FindAndUnlinkFrame 000000018003fc84     libvcruntime:trnsctrl.obj
 0004:00000c90       $pdata$_GetImageBase       000000018003fc90     libvcruntime:trnsctrl.obj
 0004:00000c9c       $pdata$_GetThrowImageBase  000000018003fc9c     libvcruntime:trnsctrl.obj
 0004:00000ca8       $pdata$_IsExceptionObjectToBeDestroyed 000000018003fca8     libvcruntime:trnsctrl.obj
 0004:00000cb4       $pdata$_SetImageBase       000000018003fcb4     libvcruntime:trnsctrl.obj
 0004:00000cc0       $pdata$_SetThrowImageBase  000000018003fcc0     libvcruntime:trnsctrl.obj
 0004:00000ccc       $pdata$_UnwindNestedFrames 000000018003fccc     libvcruntime:trnsctrl.obj
 0004:00000cd8       $pdata$__CxxFrameHandler3  000000018003fcd8     libvcruntime:trnsctrl.obj
 0004:00000cfc       $pdata$?try_get_function@@YAPEAXW4function_id@?A0x679b24ab@@QEBDQEBW4module_id@2@2@Z 000000018003fcfc     libvcruntime:winapi_downlevel.obj
 0004:00000d08       $pdata$__vcrt_FlsAlloc     000000018003fd08     libvcruntime:winapi_downlevel.obj
 0004:00000d14       $pdata$__vcrt_FlsFree      000000018003fd14     libvcruntime:winapi_downlevel.obj
 0004:00000d20       $pdata$__vcrt_FlsGetValue  000000018003fd20     libvcruntime:winapi_downlevel.obj
 0004:00000d2c       $pdata$__vcrt_FlsSetValue  000000018003fd2c     libvcruntime:winapi_downlevel.obj
 0004:00000d38       $pdata$__vcrt_InitializeCriticalSectionEx 000000018003fd38     libvcruntime:winapi_downlevel.obj
 0004:00000d44       $pdata$__vcrt_uninitialize_winapi_thunks 000000018003fd44     libvcruntime:winapi_downlevel.obj
 0004:00000d50       $pdata$__vcrt_initialize   000000018003fd50     libvcruntime:initialization.obj
 0004:00000d5c       $pdata$__vcrt_thread_attach 000000018003fd5c     libvcruntime:initialization.obj
 0004:00000d68       $pdata$__vcrt_thread_detach 000000018003fd68     libvcruntime:initialization.obj
 0004:00000d74       $pdata$__vcrt_uninitialize 000000018003fd74     libvcruntime:initialization.obj
 0004:00000d80       $pdata$__vcrt_uninitialize_critical 000000018003fd80     libvcruntime:initialization.obj
 0004:00000d8c       $pdata$__C_specific_handler 000000018003fd8c     libvcruntime:_chandler_.obj
 0004:00000d98       $pdata$__std_type_info_destroy_list 000000018003fd98     libvcruntime:std_type_info.obj
 0004:00000da4       $pdata$__vcrt_freefls      000000018003fda4     libvcruntime:per_thread_data.obj
 0004:00000db0       $pdata$__vcrt_freeptd      000000018003fdb0     libvcruntime:per_thread_data.obj
 0004:00000dbc       $pdata$__vcrt_getptd       000000018003fdbc     libvcruntime:per_thread_data.obj
 0004:00000dc8       $pdata$__vcrt_getptd_noexit 000000018003fdc8     libvcruntime:per_thread_data.obj
 0004:00000dd4       $pdata$__vcrt_initialize_ptd 000000018003fdd4     libvcruntime:per_thread_data.obj
 0004:00000de0       $pdata$__vcrt_uninitialize_ptd 000000018003fde0     libvcruntime:per_thread_data.obj
 0004:00000dec       $pdata$?__GetCurrentState@@YAHPEA_KPEAU_xDISPATCHER_CONTEXT@@PEBU_s_FuncInfo@@@Z 000000018003fdec     libvcruntime:ehstate.obj
 0004:00000df8       $pdata$?__GetUnwindTryBlock@@YAHPEA_KPEAU_xDISPATCHER_CONTEXT@@PEBU_s_FuncInfo@@@Z 000000018003fdf8     libvcruntime:ehstate.obj
 0004:00000e04       $pdata$?__SetUnwindTryBlock@@YAXPEA_KPEAU_xDISPATCHER_CONTEXT@@PEBU_s_FuncInfo@@H@Z 000000018003fe04     libvcruntime:ehstate.obj
 0004:00000e10       $pdata$?__StateFromIp@@YAHPEBU_s_FuncInfo@@PEAU_xDISPATCHER_CONTEXT@@_J@Z 000000018003fe10     libvcruntime:ehstate.obj
 0004:00000e58       $pdata$__vcrt_initialize_locks 000000018003fe58     libvcruntime:locks.obj
 0004:00000e64       $pdata$__vcrt_uninitialize_locks 000000018003fe64     libvcruntime:locks.obj
 0004:00000e70       $pdata$abort               000000018003fe70     libucrt:abort.obj
 0004:00000e7c       $pdata$??$common_strtod_l@MD@@YAMQEBDQEAPEADQEAU__crt_locale_pointers@@@Z 000000018003fe7c     libucrt:strtod.obj
 0004:00000e88       $pdata$??$common_strtod_l@ND@@YANQEBDQEAPEADQEAU__crt_locale_pointers@@@Z 000000018003fe88     libucrt:strtod.obj
 0004:00000e94       $pdata$??$parse_floating_point@V?$c_string_character_source@D@__crt_strtox@@M@__crt_strtox@@YA?AW4SLD_STATUS@@QEAU__crt_locale_pointers@@V?$c_string_character_source@D@0@QEAM@Z 000000018003fe94     libucrt:strtod.obj
 0004:00000ea0       $pdata$??$parse_floating_point@V?$c_string_character_source@D@__crt_strtox@@N@__crt_strtox@@YA?AW4SLD_STATUS@@QEAU__crt_locale_pointers@@V?$c_string_character_source@D@0@QEAN@Z 000000018003fea0     libucrt:strtod.obj
 0004:00000eac       $pdata$??$parse_floating_point_from_source@V?$c_string_character_source@D@__crt_strtox@@@__crt_strtox@@YA?AW4floating_point_parse_result@0@QEAU__crt_locale_pointers@@AEAV?$c_string_character_source@D@0@AEAUfloating_point_string@0@@Z 000000018003feac     libucrt:strtod.obj
 0004:00000eb8       $pdata$??$parse_floating_point_possible_infinity@DV?$c_string_character_source@D@__crt_strtox@@PEBD@__crt_strtox@@YA?AW4floating_point_parse_result@0@AEADAEAV?$c_string_character_source@D@0@PEBD@Z 000000018003feb8     libucrt:strtod.obj
 0004:00000ec4       $pdata$??$parse_floating_point_possible_nan@DV?$c_string_character_source@D@__crt_strtox@@PEBD@__crt_strtox@@YA?AW4floating_point_parse_result@0@AEADAEAV?$c_string_character_source@D@0@PEBD@Z 000000018003fec4     libucrt:strtod.obj
 0004:00000ed0       $pdata$??$parse_floating_point_write_result@M@__crt_strtox@@YA?AW4SLD_STATUS@@W4floating_point_parse_result@0@AEBUfloating_point_string@0@QEAM@Z 000000018003fed0     libucrt:strtod.obj
 0004:00000edc       $pdata$??$parse_floating_point_write_result@N@__crt_strtox@@YA?AW4SLD_STATUS@@W4floating_point_parse_result@0@AEBUfloating_point_string@0@QEAN@Z 000000018003fedc     libucrt:strtod.obj
 0004:00000ee8       $pdata$??0_LocaleUpdate@@QEAA@QEAU__crt_locale_pointers@@@Z 000000018003fee8     libucrt:strtod.obj
 0004:00000ef4       $pdata$??R<lambda_40385e98d533db2d20b425b7120454e9>@@QEBA_NXZ 000000018003fef4     libucrt:strtod.obj
 0004:00000ef4       $pdata$??R<lambda_abd75b4de29fe12b5de19178c3a83741>@@QEBA_NXZ 000000018003fef4     libucrt:strtod.obj
 0004:00000ef4       $pdata$??R<lambda_e43ce5e7f5cdc2f75e08ba6b290a6899>@@QEBA_NXZ 000000018003fef4     libucrt:strtod.obj
 0004:00000f00       $pdata$?as_double@floating_point_value@__crt_strtox@@QEBAAEANXZ 000000018003ff00     libucrt:strtod.obj
 0004:00000f0c       $pdata$?as_float@floating_point_value@__crt_strtox@@QEBAAEAMXZ 000000018003ff0c     libucrt:strtod.obj
 0004:00000f18       $pdata$?assemble_floating_point_value@__crt_strtox@@YA?AW4SLD_STATUS@@_KH_N1AEBVfloating_point_value@1@@Z 000000018003ff18     libucrt:strtod.obj
 0004:00000f24       $pdata$?assemble_floating_point_value_from_big_integer@__crt_strtox@@YA?AW4SLD_STATUS@@AEBUbig_integer@1@I_N1AEBVfloating_point_value@1@@Z 000000018003ff24     libucrt:strtod.obj
 0004:00000f30       $pdata$?convert_decimal_string_to_floating_type_common@__crt_strtox@@YA?AW4SLD_STATUS@@AEBUfloating_point_string@1@AEBVfloating_point_value@1@@Z 000000018003ff30     libucrt:strtod.obj
 0004:00000f3c       $pdata$?convert_hexadecimal_string_to_floating_type_common@__crt_strtox@@YA?AW4SLD_STATUS@@AEBUfloating_point_string@1@AEBVfloating_point_value@1@@Z 000000018003ff3c     libucrt:strtod.obj
 0004:00000f48       $pdata$?divide@__crt_strtox@@YA_KAEAUbig_integer@1@AEBU21@@Z 000000018003ff48     libucrt:strtod.obj
 0004:00000f54       $pdata$5$?divide@__crt_strtox@@YA_KAEAUbig_integer@1@AEBU21@@Z 000000018003ff54     libucrt:strtod.obj
 0004:00000f60       $pdata$6$?divide@__crt_strtox@@YA_KAEAUbig_integer@1@AEBU21@@Z 000000018003ff60     libucrt:strtod.obj
 0004:00000f6c       $pdata$memcpy_s            000000018003ff6c     libucrt:strtod.obj
 0004:00000f78       $pdata$__acrt_call_reportfault 000000018003ff78     libucrt:invalid_parameter.obj
 0004:00000f84       $pdata$_invalid_parameter  000000018003ff84     libucrt:invalid_parameter.obj
 0004:00000f90       $pdata$_invalid_parameter_noinfo 000000018003ff90     libucrt:invalid_parameter.obj
 0004:00000f9c       $pdata$_invalid_parameter_noinfo_noreturn 000000018003ff9c     libucrt:invalid_parameter.obj
 0004:00000fa8       $pdata$_invoke_watson      000000018003ffa8     libucrt:invalid_parameter.obj
 0004:00000fb4       $pdata$localeconv          000000018003ffb4     libucrt:localeconv.obj
 0004:00000fc0       $pdata$__acrt_errno_map_os_error 000000018003ffc0     libucrt:errno.obj
 0004:00000fcc       $pdata$__doserrno          000000018003ffcc     libucrt:errno.obj
 0004:00000fd8       $pdata$_errno              000000018003ffd8     libucrt:errno.obj
 0004:00000fe4       $pdata$ldexp               000000018003ffe4     libucrt:ldexp.obj
 0004:00000ff0       $pdata$_stricmp            000000018003fff0     libucrt:stricmp.obj
 0004:00000ffc       $pdata$_stricmp_l          000000018003fffc     libucrt:stricmp.obj
 0004:00001008       $pdata$islower             0000000180040008     libucrt:_ctype.obj
 0004:00001014       $pdata$isspace             0000000180040014     libucrt:_ctype.obj
 0004:00001020       $pdata$isupper             0000000180040020     libucrt:_ctype.obj
 0004:0000102c       $pdata$?internal_isupper_l@@YA_NHQEAU__crt_locale_pointers@@@Z 000000018004002c     libucrt:tolower_toupper.obj
 0004:00001038       $pdata$_tolower_l          0000000180040038     libucrt:tolower_toupper.obj
 0004:00001044       $pdata$tolower             0000000180040044     libucrt:tolower_toupper.obj
 0004:00001050       $pdata$__acrt_initialize_locks 0000000180040050     libucrt:locks.obj
 0004:0000105c       $pdata$__acrt_uninitialize_locks 000000018004005c     libucrt:locks.obj
 0004:00001068       $pdata$__acrt_initialize_stdio 0000000180040068     libucrt:_file.obj
 0004:00001074       $pdata$__acrt_uninitialize_stdio 0000000180040074     libucrt:_file.obj
 0004:00001080       $pdata$_get_stream_buffer_pointers 0000000180040080     libucrt:_file.obj
 0004:0000108c       $pdata$_fclose_nolock      000000018004008c     libucrt:fclose.obj
 0004:00001098       $pdata$fclose              0000000180040098     libucrt:fclose.obj
 0004:000010a4       $pdata$__acrt_stdio_flush_nolock 00000001800400a4     libucrt:fflush.obj
 0004:000010b0       $pdata$_fflush_nolock      00000001800400b0     libucrt:fflush.obj
 0004:000010bc       $pdata$common_flush_all    00000001800400bc     libucrt:fflush.obj
 0004:000010c8       $pdata$fflush              00000001800400c8     libucrt:fflush.obj
 0004:000010d4       $pdata$_fgetc_nolock       00000001800400d4     libucrt:fgetc.obj
 0004:000010e0       $pdata$fgetc               00000001800400e0     libucrt:fgetc.obj
 0004:000010ec       $pdata$fgetpos             00000001800400ec     libucrt:fgetpos.obj
 0004:000010f8       $pdata$fputc               00000001800400f8     libucrt:fputc.obj
 0004:00001104       $pdata$fsetpos             0000000180040104     libucrt:fsetpos.obj
 0004:00001110       $pdata$?common_fseek@@YAHV__crt_stdio_stream@@_JH@Z 0000000180040110     libucrt:fseek.obj
 0004:0000111c       $pdata$?common_fseek_binary_mode_read_only_fast_track_nolock@@YA_NV__crt_stdio_stream@@_JH@Z 000000018004011c     libucrt:fseek.obj
 0004:00001128       $pdata$?common_fseek_nolock@@YAHV__crt_stdio_stream@@_JH@Z 0000000180040128     libucrt:fseek.obj
 0004:00001134       $pdata$??$?RV<lambda_5d4c3fee44080f75d5d9762853974fe0>@@AEAV<lambda_532e024f4337e6fc7ad266c2bef9f4ed>@@V<lambda_c87bdc10097eb2402edb8ba9bdf0697b>@@@?$__crt_seh_guarded_call@_K@@QEAA_K$$QEAV<lambda_5d4c3fee44080f75d5d9762853974fe0>@@AEAV<lambda_532e024f4337e6fc7ad266c2bef9f4ed>@@$$QEAV<lambda_c87bdc10097eb2402edb8ba9bdf0697b>@@@Z 0000000180040134     libucrt:fwrite.obj
 0004:00001140       $pdata$??R<lambda_532e024f4337e6fc7ad266c2bef9f4ed>@@QEBA_KXZ 0000000180040140     libucrt:fwrite.obj
 0004:0000114c       $pdata$_fwrite_nolock      000000018004014c     libucrt:fwrite.obj
 0004:00001158       $pdata$fwrite              0000000180040158     libucrt:fwrite.obj
 0004:00001164       $pdata$??$?RV<lambda_7a5ef57ff966f610505f1d28a3d40618>@@AEAV<lambda_b721fa326cdb32351d23dfa67958c160>@@V<lambda_5e0fb27672408a07956fe59e48ccb2aa>@@@?$__crt_seh_guarded_call@H@@QEAAH$$QEAV<lambda_7a5ef57ff966f610505f1d28a3d40618>@@AEAV<lambda_b721fa326cdb32351d23dfa67958c160>@@$$QEAV<lambda_5e0fb27672408a07956fe59e48ccb2aa>@@@Z 0000000180040164     libucrt:setvbuf.obj
 0004:00001170       $pdata$??R<lambda_b721fa326cdb32351d23dfa67958c160>@@QEBAHXZ 0000000180040170     libucrt:setvbuf.obj
 0004:0000117c       $pdata$setvbuf             000000018004017c     libucrt:setvbuf.obj
 0004:00001188       $pdata$_ungetc_nolock      0000000180040188     libucrt:ungetc.obj
 0004:00001194       $pdata$ungetc              0000000180040194     libucrt:ungetc.obj
 0004:000011a0       $pdata$call_wsetlocale     00000001800401a0     libucrt:setlocale.obj
 0004:000011ac       $pdata$setlocale           00000001800401ac     libucrt:setlocale.obj
 0004:000011b8       $pdata$_calloc_base        00000001800401b8     libucrt:calloc_base.obj
 0004:000011c4       $pdata$__pctype_func       00000001800401c4     libucrt:ctype.obj
 0004:000011d0       $pdata$_wcsdup             00000001800401d0     libucrt:wcsdup.obj
 0004:000011dc       $pdata$___lc_codepage_func 00000001800401dc     libucrt:initctype.obj
 0004:000011e8       $pdata$___lc_locale_name_func 00000001800401e8     libucrt:initctype.obj
 0004:000011f4       $pdata$___mb_cur_max_func  00000001800401f4     libucrt:initctype.obj
 0004:00001200       $pdata$__acrt_locale_initialize_ctype 0000000180040200     libucrt:initctype.obj
 0004:0000120c       $pdata$?x_ismbbtype_l@@YAHPEAU__crt_locale_pointers@@IHH@Z 000000018004020c     libucrt:ismbbyte.obj
 0004:00001218       $pdata$_malloc_base        0000000180040218     libucrt:malloc_base.obj
 0004:00001224       $pdata$_realloc_base       0000000180040224     libucrt:realloc_base.obj
 0004:00001248       $pdata$_free_base          0000000180040248     libucrt:free_base.obj
 0004:00001254       $pdata$wcscpy_s            0000000180040254     libucrt:wcscpy_s.obj
 0004:00001260       $pdata$wcsnlen             0000000180040260     libucrt:strnlen.obj
 0004:0000126c       $pdata$_callnewh           000000018004026c     libucrt:new_handler.obj
 0004:00001278       $pdata$_query_new_handler  0000000180040278     libucrt:new_handler.obj
 0004:00001284       $pdata$_seh_filter_exe     0000000180040284     libucrt:exception_filter.obj
 0004:00001290       $pdata$?common_exit@@YAXHW4_crt_exit_cleanup_mode@@W4_crt_exit_return_mode@@@Z 0000000180040290     libucrt:exit.obj
 0004:0000129c       $pdata$?exit_or_terminate_process@@YAXI@Z 000000018004029c     libucrt:exit.obj
 0004:000012a8       $pdata$?try_cor_exit_process@@YAXI@Z 00000001800402a8     libucrt:exit.obj
 0004:000012b4       $pdata$??$parse_command_line@D@@YAXPEADPEAPEAD0PEA_K2@Z 00000001800402b4     libucrt:argv_parsing.obj
 0004:000012c0       $pdata$__acrt_allocate_buffer_for_argv 00000001800402c0     libucrt:argv_parsing.obj
 0004:000012cc       $pdata$_configure_narrow_argv 00000001800402cc     libucrt:argv_parsing.obj
 0004:000012d8       $pdata$??$common_initialize_environment_nolock@D@@YAHXZ 00000001800402d8     libucrt:environment_initialization.obj
 0004:000012e4       $pdata$??$create_environment@D@@YAQEAPEADQEAD@Z 00000001800402e4     libucrt:environment_initialization.obj
 0004:000012f0       $pdata$??$free_environment@D@@YAXQEAPEAD@Z 00000001800402f0     libucrt:environment_initialization.obj
 0004:000012f0       $pdata$??$free_environment@_W@@YAXQEAPEA_W@Z 00000001800402f0     libucrt:environment_initialization.obj
 0004:000012fc       $pdata$??$uninitialize_environment_internal@D@@YAXAEAPEAPEAD@Z 00000001800402fc     libucrt:environment_initialization.obj
 0004:00001308       $pdata$??$uninitialize_environment_internal@_W@@YAXAEAPEAPEA_W@Z 0000000180040308     libucrt:environment_initialization.obj
 0004:00001314       $pdata$__dcrt_uninitialize_environments_nolock 0000000180040314     libucrt:environment_initialization.obj
 0004:00001320       $pdata$??$?RV<lambda_b8c45f8f788dd370798f47cfe8ac3a86>@@AEAV<lambda_4e60a939b0d047cfe11ddc22648dfba9>@@V<lambda_332c3edc96d0294ec56c57d38c1cdfd5>@@@?$__crt_seh_guarded_call@H@@QEAAH$$QEAV<lambda_b8c45f8f788dd370798f47cfe8ac3a86>@@AEAV<lambda_4e60a939b0d047cfe11ddc22648dfba9>@@$$QEAV<lambda_332c3edc96d0294ec56c57d38c1cdfd5>@@@Z 0000000180040320     libucrt:onexit.obj
 0004:0000132c       $pdata$??$?RV<lambda_e24bbb7b643b32fcea6fa61b31d4c984>@@AEAV<lambda_275893d493268fdec8709772e3fcec0e>@@V<lambda_9d71df4d7cf3f480f8d633942495c3b0>@@@?$__crt_seh_guarded_call@H@@QEAAH$$QEAV<lambda_e24bbb7b643b32fcea6fa61b31d4c984>@@AEAV<lambda_275893d493268fdec8709772e3fcec0e>@@$$QEAV<lambda_9d71df4d7cf3f480f8d633942495c3b0>@@@Z 000000018004032c     libucrt:onexit.obj
 0004:00001338       $pdata$??R<lambda_4e60a939b0d047cfe11ddc22648dfba9>@@QEBAHXZ 0000000180040338     libucrt:onexit.obj
 0004:00001344       $pdata$_execute_onexit_table 0000000180040344     libucrt:onexit.obj
 0004:00001350       $pdata$_register_onexit_function 0000000180040350     libucrt:onexit.obj
 0004:0000135c       $pdata$initialize_c        000000018004035c     libucrt:initialization.obj
 0004:00001368       $pdata$uninitialize_environment 0000000180040368     libucrt:initialization.obj
 0004:00001374       $pdata$initialize_pointers 0000000180040374     libucrt:initialization.obj
 0004:00001380       $pdata$uninitialize_allocated_memory 0000000180040380     libucrt:initialization.obj
 0004:0000138c       $pdata$__acrt_thread_attach 000000018004038c     libucrt:initialization.obj
 0004:00001398       $pdata$__acrt_thread_detach 0000000180040398     libucrt:initialization.obj
 0004:000013a4       $pdata$__acrt_uninitialize_critical 00000001800403a4     libucrt:initialization.obj
 0004:000013b0       $pdata$_initterm           00000001800403b0     libucrt:initterm.obj
 0004:000013bc       $pdata$_initterm_e         00000001800403bc     libucrt:initterm.obj
 0004:000013c8       $pdata$terminate           00000001800403c8     libucrt:terminate.obj
 0004:000013d4       $pdata$strcpy_s            00000001800403d4     libucrt:strcpy_s.obj
 0004:000013e0       $pdata$??$parse_integer@KV?$c_string_character_source@_W@__crt_strtox@@@__crt_strtox@@YAKQEAU__crt_locale_pointers@@V?$c_string_character_source@_W@0@H_N@Z 00000001800403e0     libucrt:atox.obj
 0004:000013ec       $pdata$_wtol               00000001800403ec     libucrt:atox.obj
 0004:000013f8       $pdata$??$?RV<lambda_c36588078e9f5dfd39652860aa6b3aaf>@@AEAV<lambda_ec61778202f4f5fc7e7711acc23c3bca>@@V<lambda_dc9d2797ccde5d239b4a0efae8ebd7db>@@@?$__crt_seh_guarded_call@P6AXH@Z@@QEAAP6AXH@Z$$QEAV<lambda_c36588078e9f5dfd39652860aa6b3aaf>@@AEAV<lambda_ec61778202f4f5fc7e7711acc23c3bca>@@$$QEAV<lambda_dc9d2797ccde5d239b4a0efae8ebd7db>@@@Z 00000001800403f8     libucrt:signal.obj
 0004:00001404       $pdata$__acrt_get_sigabrt_handler 0000000180040404     libucrt:signal.obj
 0004:00001410       $pdata$raise               0000000180040410     libucrt:signal.obj
 0004:0000141c       $pdata$iswctype            000000018004041c     libucrt:iswctype.obj
 0004:00001428       $pdata$_isctype_l          0000000180040428     libucrt:isctype.obj
 0004:00001434       $pdata$??$?RV<lambda_46352004c1216016012b18bd6f87e700>@@AEAV<lambda_3bd07e1a1191394380780325891bf33f>@@V<lambda_334532d3f185bcaa59b5be82d7d22bff>@@@?$__crt_seh_guarded_call@X@@QEAAX$$QEAV<lambda_46352004c1216016012b18bd6f87e700>@@AEAV<lambda_3bd07e1a1191394380780325891bf33f>@@$$QEAV<lambda_334532d3f185bcaa59b5be82d7d22bff>@@@Z 0000000180040434     libucrt:per_thread_data.obj
 0004:00001440       $pdata$??$?RV<lambda_5e887d1dcbef67a5eb4283622ba103bf>@@AEAV<lambda_4466841279450cc726390878d4a41900>@@V<lambda_341c25c0346d94847f1f3c463c57e077>@@@?$__crt_seh_guarded_call@X@@QEAAX$$QEAV<lambda_5e887d1dcbef67a5eb4283622ba103bf>@@AEAV<lambda_4466841279450cc726390878d4a41900>@@$$QEAV<lambda_341c25c0346d94847f1f3c463c57e077>@@@Z 0000000180040440     libucrt:per_thread_data.obj
 0004:0000144c       $pdata$??$?RV<lambda_72d1df2b273a38828b1ce30cbf4cdab5>@@AEAV<lambda_876a65b173b8412d3a47c70a915b0cf4>@@V<lambda_41932305e351933ebe8f8be3ed8bb5dc>@@@?$__crt_seh_guarded_call@X@@QEAAX$$QEAV<lambda_72d1df2b273a38828b1ce30cbf4cdab5>@@AEAV<lambda_876a65b173b8412d3a47c70a915b0cf4>@@$$QEAV<lambda_41932305e351933ebe8f8be3ed8bb5dc>@@@Z 000000018004044c     libucrt:per_thread_data.obj
 0004:00001458       $pdata$??$?RV<lambda_fb3a7dec4e47f37f22dae91bb15c9095>@@AEAV<lambda_698284760c8add0bfb0756c19673e34b>@@V<lambda_dfb8eca1e75fef3034a8fb18dd509707>@@@?$__crt_seh_guarded_call@X@@QEAAX$$QEAV<lambda_fb3a7dec4e47f37f22dae91bb15c9095>@@AEAV<lambda_698284760c8add0bfb0756c19673e34b>@@$$QEAV<lambda_dfb8eca1e75fef3034a8fb18dd509707>@@@Z 0000000180040458     libucrt:per_thread_data.obj
 0004:00001464       $pdata$?construct_ptd_array@@YAXQEAU__acrt_ptd@@@Z 0000000180040464     libucrt:per_thread_data.obj
 0004:00001470       $pdata$?destroy_fls@@YAXPEAX@Z 0000000180040470     libucrt:per_thread_data.obj
 0004:0000147c       $pdata$?destroy_ptd_array@@YAXQEAU__acrt_ptd@@@Z 000000018004047c     libucrt:per_thread_data.obj
 0004:00001488       $pdata$?replace_current_thread_locale_nolock@@YAXQEAU__acrt_ptd@@QEAU__crt_locale_data@@@Z 0000000180040488     libucrt:per_thread_data.obj
 0004:00001494       $pdata$__acrt_freeptd      0000000180040494     libucrt:per_thread_data.obj
 0004:000014a0       $pdata$__acrt_getptd       00000001800404a0     libucrt:per_thread_data.obj
 0004:000014ac       $pdata$__acrt_getptd_noexit 00000001800404ac     libucrt:per_thread_data.obj
 0004:000014b8       $pdata$__acrt_initialize_ptd 00000001800404b8     libucrt:per_thread_data.obj
 0004:000014c4       $pdata$__acrt_uninitialize_ptd 00000001800404c4     libucrt:per_thread_data.obj
 0004:000014d0       $pdata$__acrt_update_locale_info 00000001800404d0     libucrt:locale_update.obj
 0004:000014dc       $pdata$__acrt_update_multibyte_info 00000001800404dc     libucrt:locale_update.obj
 0004:000014e8       $pdata$fegetround          00000001800404e8     libucrt:fegetround.obj
 0004:000014f4       $pdata$??$?RV<lambda_5df02c53a8f32f81fd64e5bbb78039f1>@@AEAV<lambda_2af78c5f5901b1372d98f9ab3177dfa6>@@AEAV<lambda_f51fe5fd7c79a33db34fc9310f277369>@@@?$__crt_seh_guarded_call@X@@QEAAX$$QEAV<lambda_5df02c53a8f32f81fd64e5bbb78039f1>@@AEAV<lambda_2af78c5f5901b1372d98f9ab3177dfa6>@@AEAV<lambda_f51fe5fd7c79a33db34fc9310f277369>@@@Z 00000001800404f4     libucrt:wsetlocale.obj
 0004:00001500       $pdata$??$?RV<lambda_d67e8342c384adda8f857579ab50b2ae>@@AEAV<lambda_30712929f77e709619002f448b6a9510>@@V<lambda_4525336fd7e478d965fb7ca7a337cad8>@@@?$__crt_seh_guarded_call@X@@QEAAX$$QEAV<lambda_d67e8342c384adda8f857579ab50b2ae>@@AEAV<lambda_30712929f77e709619002f448b6a9510>@@$$QEAV<lambda_4525336fd7e478d965fb7ca7a337cad8>@@@Z 0000000180040500     libucrt:wsetlocale.obj
 0004:0000150c       $pdata$??R<lambda_2af78c5f5901b1372d98f9ab3177dfa6>@@QEBAXXZ 000000018004050c     libucrt:wsetlocale.obj
 0004:00001518       $pdata$__acrt_copy_locale_name 0000000180040518     libucrt:wsetlocale.obj
 0004:00001524       $pdata$__acrt_uninitialize_locale 0000000180040524     libucrt:wsetlocale.obj
 0004:00001530       $pdata$__lc_lctowcs        0000000180040530     libucrt:wsetlocale.obj
 0004:0000153c       $pdata$__lc_wcstolc        000000018004053c     libucrt:wsetlocale.obj
 0004:00001548       $pdata$_copytlocinfo_nolock 0000000180040548     libucrt:wsetlocale.obj
 0004:00001554       $pdata$_expandlocale       0000000180040554     libucrt:wsetlocale.obj
 0004:00001560       $pdata$_wcscats            0000000180040560     libucrt:wsetlocale.obj
 0004:0000156c       $pdata$_wsetlocale         000000018004056c     libucrt:wsetlocale.obj
 0004:00001578       $pdata$_wsetlocale_get_all 0000000180040578     libucrt:wsetlocale.obj
 0004:00001584       $pdata$_wsetlocale_nolock  0000000180040584     libucrt:wsetlocale.obj
 0004:00001590       $pdata$_wsetlocale_set_cat 0000000180040590     libucrt:wsetlocale.obj
 0004:0000159c       $pdata$_except2            000000018004059c     libucrt:fpexcept.obj
 0004:000015a8       $pdata$_handle_exc         00000001800405a8     libucrt:fpexcept.obj
 0004:000015b4       $pdata$_raise_exc          00000001800405b4     libucrt:fpexcept.obj
 0004:000015c0       $pdata$_raise_exc_ex       00000001800405c0     libucrt:fpexcept.obj
 0004:000015cc       $pdata$_raise_excf         00000001800405cc     libucrt:fpexcept.obj
 0004:000015d8       $pdata$_set_errno_from_matherr 00000001800405d8     libucrt:fpexcept.obj
 0004:000015e4       $pdata$_umatherr           00000001800405e4     libucrt:fpexcept.obj
 0004:000015f0       $pdata$_clrfp              00000001800405f0     libucrt:fpctrl.obj
 0004:000015fc       $pdata$_ctrlfp             00000001800405fc     libucrt:fpctrl.obj
 0004:00001608       $pdata$_set_statfp         0000000180040608     libucrt:fpctrl.obj
 0004:00001614       $pdata$_statfp             0000000180040614     libucrt:fpctrl.obj
 0004:00001620       $pdata$_isleadbyte_l       0000000180040620     libucrt:_wctype.obj
 0004:0000162c       $pdata$?__acrt_LCMapStringA_stat@@YAHPEAU__crt_locale_pointers@@PEB_WKPEBDHPEADHHH@Z 000000018004062c     libucrt:lcmapstringa.obj
 0004:00001638       $pdata$__acrt_LCMapStringA 0000000180040638     libucrt:lcmapstringa.obj
 0004:00001644       $pdata$?<helper_func_cdecl>@<lambda_e2bb8337c48846e80c921ea5ddadc92d>@@CAHPEA_W@Z 0000000180040644     libucrt:winapi_thunks.obj
 0004:00001650       $pdata$??$?RV<lambda_630b2aca97f6d20d5b5ea6529ea6b6af>@@AEAV<lambda_af91936f1d075d609f72d9d8cba980af>@@V<lambda_e82fa975f615b5c7c7b0e4d178fdae67>@@@?$__crt_seh_guarded_call@H@@QEAAH$$QEAV<lambda_630b2aca97f6d20d5b5ea6529ea6b6af>@@AEAV<lambda_af91936f1d075d609f72d9d8cba980af>@@$$QEAV<lambda_e82fa975f615b5c7c7b0e4d178fdae67>@@@Z 0000000180040650     libucrt:winapi_thunks.obj
 0004:0000165c       $pdata$?try_get_function@@YAPEAXW4function_id@?A0x63058377@@QEBDQEBW4module_id@2@2@Z 000000018004065c     libucrt:winapi_thunks.obj
 0004:00001668       $pdata$__acrt_EnumSystemLocalesEx 0000000180040668     libucrt:winapi_thunks.obj
 0004:00001674       $pdata$__acrt_FlsAlloc     0000000180040674     libucrt:winapi_thunks.obj
 0004:00001680       $pdata$__acrt_FlsFree      0000000180040680     libucrt:winapi_thunks.obj
 0004:0000168c       $pdata$__acrt_FlsGetValue  000000018004068c     libucrt:winapi_thunks.obj
 0004:00001698       $pdata$__acrt_FlsSetValue  0000000180040698     libucrt:winapi_thunks.obj
 0004:000016a4       $pdata$__acrt_GetLocaleInfoEx 00000001800406a4     libucrt:winapi_thunks.obj
 0004:000016b0       $pdata$__acrt_GetUserDefaultLocaleName 00000001800406b0     libucrt:winapi_thunks.obj
 0004:000016bc       $pdata$__acrt_InitializeCriticalSectionEx 00000001800406bc     libucrt:winapi_thunks.obj
 0004:000016c8       $pdata$__acrt_IsValidLocaleName 00000001800406c8     libucrt:winapi_thunks.obj
 0004:000016d4       $pdata$__acrt_LCIDToLocaleName 00000001800406d4     libucrt:winapi_thunks.obj
 0004:000016e0       $pdata$__acrt_LCMapStringEx 00000001800406e0     libucrt:winapi_thunks.obj
 0004:000016ec       $pdata$__acrt_LocaleNameToLCID 00000001800406ec     libucrt:winapi_thunks.obj
 0004:000016f8       $pdata$__acrt_can_use_vista_locale_apis 00000001800406f8     libucrt:winapi_thunks.obj
 0004:00001704       $pdata$__acrt_initialize_winapi_thunks 0000000180040704     libucrt:winapi_thunks.obj
 0004:00001710       $pdata$__acrt_is_packaged_app 0000000180040710     libucrt:winapi_thunks.obj
 0004:0000171c       $pdata$__acrt_uninitialize_winapi_thunks 000000018004071c     libucrt:winapi_thunks.obj
 0004:00001728       $pdata$_fcloseall          0000000180040728     libucrt:closeall.obj
 0004:00001734       $pdata$__acrt_stdio_free_buffer_nolock 0000000180040734     libucrt:_freebuf.obj
 0004:00001740       $pdata$?initialize_inherited_file_handles_nolock@@YAXXZ 0000000180040740     libucrt:ioinit.obj
 0004:0000174c       $pdata$?initialize_stdio_handles_nolock@@YAXXZ 000000018004074c     libucrt:ioinit.obj
 0004:00001758       $pdata$__acrt_initialize_lowio 0000000180040758     libucrt:ioinit.obj
 0004:00001764       $pdata$__acrt_uninitialize_lowio 0000000180040764     libucrt:ioinit.obj
 0004:00001770       $pdata$??$?RV<lambda_bfedae4ebbf01fab1bb6dcc6a9e276e0>@@AEAV<lambda_2fe9b910cf3cbf4a0ab98a02ba45b3ec>@@V<lambda_237c231691f317818eb88cc1d5d642d6>@@@?$__crt_seh_guarded_call@H@@QEAAH$$QEAV<lambda_bfedae4ebbf01fab1bb6dcc6a9e276e0>@@AEAV<lambda_2fe9b910cf3cbf4a0ab98a02ba45b3ec>@@$$QEAV<lambda_237c231691f317818eb88cc1d5d642d6>@@@Z 0000000180040770     libucrt:close.obj
 0004:0000177c       $pdata$_close              000000018004077c     libucrt:close.obj
 0004:00001788       $pdata$_close_nolock       0000000180040788     libucrt:close.obj
 0004:00001794       $pdata$_fileno             0000000180040794     libucrt:fileno.obj
 0004:000017a0       $pdata$??$?RV<lambda_b521505b218e5242e90febf6bfebc422>@@AEAV<lambda_6978c1fb23f02e42e1d9e99668cc68aa>@@V<lambda_314360699dd331753a4119843814e9a7>@@@?$__crt_seh_guarded_call@H@@QEAAH$$QEAV<lambda_b521505b218e5242e90febf6bfebc422>@@AEAV<lambda_6978c1fb23f02e42e1d9e99668cc68aa>@@$$QEAV<lambda_314360699dd331753a4119843814e9a7>@@@Z 00000001800407a0     libucrt:commit.obj
 0004:000017ac       $pdata$_commit             00000001800407ac     libucrt:commit.obj
 0004:000017b8       $pdata$?write_double_translated_ansi_nolock@@YA?AUwrite_result@?A0x9c548279@@HQEBDI@Z 00000001800407b8     libucrt:write.obj
 0004:000017c4       $pdata$?write_text_ansi_nolock@@YA?AUwrite_result@?A0x9c548279@@HQEBDI@Z 00000001800407c4     libucrt:write.obj
 0004:000017d0       $pdata$?write_text_utf16le_nolock@@YA?AUwrite_result@?A0x9c548279@@HQEBDI@Z 00000001800407d0     libucrt:write.obj
 0004:000017dc       $pdata$?write_text_utf8_nolock@@YA?AUwrite_result@?A0x9c548279@@HQEBDI@Z 00000001800407dc     libucrt:write.obj
 0004:000017e8       $pdata$_write              00000001800407e8     libucrt:write.obj
 0004:000017f4       $pdata$_write_nolock       00000001800407f4     libucrt:write.obj
 0004:00001800       $pdata$??$common_refill_and_read_nolock@D@@YAHV__crt_stdio_stream@@@Z 0000000180040800     libucrt:_filbuf.obj
 0004:0000180c       $pdata$??$common_ftell@_J@@YA_JV__crt_stdio_stream@@@Z 000000018004080c     libucrt:ftell.obj
 0004:00001818       $pdata$??$common_ftell_nolock@_J@@YA_JV__crt_stdio_stream@@@Z 0000000180040818     libucrt:ftell.obj
 0004:00001824       $pdata$?common_ftell_read_mode_nolock@@YA_JV__crt_stdio_stream@@_J1@Z 0000000180040824     libucrt:ftell.obj
 0004:00001830       $pdata$?common_ftell_translated_utf8_nolock@@YA_JV__crt_stdio_stream@@_J@Z 0000000180040830     libucrt:ftell.obj
 0004:0000183c       $pdata$??$write_buffer_nolock@D@@YA_NDV__crt_stdio_stream@@@Z 000000018004083c     libucrt:_flsbuf.obj
 0004:00001848       $pdata$__acrt_stdio_flush_and_write_narrow_nolock 0000000180040848     libucrt:_flsbuf.obj
 0004:00001854       $pdata$??$common_lseek@_J@@YA_JH_JH@Z 0000000180040854     libucrt:lseek.obj
 0004:00001860       $pdata$??$common_lseek_nolock@_J@@YA_JH_JH@Z 0000000180040860     libucrt:lseek.obj
 0004:0000186c       $pdata$__acrt_stdio_begin_temporary_buffering_nolock 000000018004086c     libucrt:_sftbuf.obj
 0004:00001878       $pdata$__acrt_stdio_end_temporary_buffering_nolock 0000000180040878     libucrt:_sftbuf.obj
 0004:00001884       $pdata$__acrt_stdio_allocate_buffer_nolock 0000000180040884     libucrt:_getbuf.obj
 0004:00001890       $pdata$?_mbstowcs_l_helper@@YA_KPEA_WPEBD_KPEAU__crt_locale_pointers@@@Z 0000000180040890     libucrt:mbstowcs.obj
 0004:0000189c       $pdata$_mbstowcs_s_l       000000018004089c     libucrt:mbstowcs.obj
 0004:000018a8       $pdata$mbstowcs_s          00000001800408a8     libucrt:mbstowcs.obj
 0004:000018b4       $pdata$?_wcstombs_l_helper@@YA_KPEADPEB_W_KPEAU__crt_locale_pointers@@@Z 00000001800408b4     libucrt:wcstombs.obj
 0004:000018c0       $pdata$_wcstombs_s_l       00000001800408c0     libucrt:wcstombs.obj
 0004:000018cc       $pdata$__acrt_initialize_heap 00000001800408cc     libucrt:heap_handle.obj
 0004:000018d8       $pdata$?InternalGetLocaleInfoA@@YAHQEAU__crt_locale_pointers@@QEB_WKQEADH@Z 00000001800408d8     libucrt:getlocaleinfoa.obj
 0004:000018e4       $pdata$__acrt_GetLocaleInfoA 00000001800408e4     libucrt:getlocaleinfoa.obj
 0004:000018f0       $pdata$__acrt_GetStringTypeA 00000001800408f0     libucrt:getstringtypea.obj
 0004:000018fc       $pdata$_mbtowc_l           00000001800408fc     libucrt:mbtowc.obj
 0004:00001908       $pdata$__acrt_initialize_fma3 0000000180040908     libucrt:fma3_available.obj
 0004:00001914       $pdata$_pow_special        0000000180040914     libucrt:pow_special.obj
 0004:00001920       $pdata$_powf_special       0000000180040920     libucrt:pow_special.obj
 0004:0000192c       $pdata$_wcsicmp            000000018004092c     libucrt:wcsicmp.obj
 0004:00001938       $pdata$_wcsicmp_l          0000000180040938     libucrt:wcsicmp.obj
 0004:00001944       $pdata$??$common_expand_argv_wildcards@D@@YAHQEAPEADQEAPEAPEAD@Z 0000000180040944     libucrt:argv_wildcards.obj
 0004:00001950       $pdata$??$copy_and_add_argument_to_buffer@D@@YAHQEBD0_KAEAV?$argument_list@D@?A0xca0879c4@@@Z 0000000180040950     libucrt:argv_wildcards.obj
 0004:0000195c       $pdata$??$expand_argument_wildcards@D@@YAHQEAD0AEAV?$argument_list@D@?A0xca0879c4@@@Z 000000018004095c     libucrt:argv_wildcards.obj
 0004:00001968       $pdata$?expand_if_necessary@?$argument_list@D@?A0xca0879c4@@AEAAHXZ 0000000180040968     libucrt:argv_wildcards.obj
 0004:00001974       $pdata$??$?RV<lambda_99476a1ad63dd22509b5d3e65b0ffc95>@@AEAV<lambda_ad1ced32f4ac17aa236e5ef05d6b3b7c>@@V<lambda_f7424dd8d45958661754dc4f2697e9c3>@@@?$__crt_seh_guarded_call@X@@QEAAX$$QEAV<lambda_99476a1ad63dd22509b5d3e65b0ffc95>@@AEAV<lambda_ad1ced32f4ac17aa236e5ef05d6b3b7c>@@$$QEAV<lambda_f7424dd8d45958661754dc4f2697e9c3>@@@Z 0000000180040974     libucrt:mbctype.obj
 0004:00001980       $pdata$??R<lambda_ad1ced32f4ac17aa236e5ef05d6b3b7c>@@QEBAXXZ 0000000180040980     libucrt:mbctype.obj
 0004:0000198c       $pdata$?getSystemCP@@YAHH@Z 000000018004098c     libucrt:mbctype.obj
 0004:00001998       $pdata$?setSBCS@@YAXPEAU__crt_multibyte_data@@@Z 0000000180040998     libucrt:mbctype.obj
 0004:000019a4       $pdata$?setSBUpLow@@YAXPEAU__crt_multibyte_data@@@Z 00000001800409a4     libucrt:mbctype.obj
 0004:000019b0       $pdata$?setmbcp_internal@@YAHH_N@Z 00000001800409b0     libucrt:mbctype.obj
 0004:000019bc       $pdata$__acrt_initialize_multibyte 00000001800409bc     libucrt:mbctype.obj
 0004:000019c8       $pdata$__acrt_update_thread_multibyte_data 00000001800409c8     libucrt:mbctype.obj
 0004:000019d4       $pdata$_setmbcp_nolock     00000001800409d4     libucrt:mbctype.obj
 0004:000019e0       $pdata$__acrt_initialize_command_line 00000001800409e0     libucrt:argv_data.obj
 0004:000019ec       $pdata$__dcrt_get_narrow_environment_from_os 00000001800409ec     libucrt:get_environment_from_os.obj
 0004:000019f8       $pdata$_recalloc_base      00000001800409f8     libucrt:recalloc.obj
 0004:00001a04       $pdata$__acrt_execute_initializers 0000000180040a04     libucrt:shared_initialization.obj
 0004:00001a10       $pdata$__acrt_execute_uninitializers 0000000180040a10     libucrt:shared_initialization.obj
 0004:00001a1c       $pdata$__acrt_invoke_user_matherr 0000000180040a1c     libucrt:matherr.obj
 0004:00001a28       $pdata$__acrt_free_locale  0000000180040a28     libucrt:locale_refcounting.obj
 0004:00001a34       $pdata$__acrt_locale_free_lc_time_if_unreferenced 0000000180040a34     libucrt:locale_refcounting.obj
 0004:00001a40       $pdata$__acrt_release_locale_ref 0000000180040a40     libucrt:locale_refcounting.obj
 0004:00001a4c       $pdata$__acrt_update_thread_locale_data 0000000180040a4c     libucrt:locale_refcounting.obj
 0004:00001a58       $pdata$_updatetlocinfoEx_nolock 0000000180040a58     libucrt:locale_refcounting.obj
 0004:00001a64       $pdata$_getfpcontrolword   0000000180040a64     libucrt:_fenvutils.obj
 0004:00001a70       $pdata$__acrt_locale_free_monetary 0000000180040a70     libucrt:initmon.obj
 0004:00001a7c       $pdata$__acrt_locale_initialize_monetary 0000000180040a7c     libucrt:initmon.obj
 0004:00001a88       $pdata$__acrt_locale_free_numeric 0000000180040a88     libucrt:initnum.obj
 0004:00001a94       $pdata$__acrt_locale_initialize_numeric 0000000180040a94     libucrt:initnum.obj
 0004:00001aa0       $pdata$?free_crt_array_internal@@YAXQEAPEBX_K@Z 0000000180040aa0     libucrt:inittime.obj
 0004:00001aac       $pdata$?initialize_lc_time@@YA_NQEAU__crt_lc_time_data@@QEAU__crt_locale_data@@@Z 0000000180040aac     libucrt:inittime.obj
 0004:00001ab8       $pdata$__acrt_locale_free_time 0000000180040ab8     libucrt:inittime.obj
 0004:00001ac4       $pdata$__acrt_locale_initialize_time 0000000180040ac4     libucrt:inittime.obj
 0004:00001ad0       $pdata$wcscat_s            0000000180040ad0     libucrt:wcscat_s.obj
 0004:00001adc       $pdata$wcsncpy_s           0000000180040adc     libucrt:wcsncpy_s.obj
 0004:00001ae8       $pdata$GetLocaleNameFromDefault 0000000180040ae8     libucrt:get_qualified_locale.obj
 0004:00001af4       $pdata$GetLocaleNameFromLangCountry 0000000180040af4     libucrt:get_qualified_locale.obj
 0004:00001b00       $pdata$GetLocaleNameFromLanguage 0000000180040b00     libucrt:get_qualified_locale.obj
 0004:00001b0c       $pdata$LangCountryEnumProcEx 0000000180040b0c     libucrt:get_qualified_locale.obj
 0004:00001b18       $pdata$LanguageEnumProcEx  0000000180040b18     libucrt:get_qualified_locale.obj
 0004:00001b24       $pdata$ProcessCodePage     0000000180040b24     libucrt:get_qualified_locale.obj
 0004:00001b30       $pdata$TestDefaultCountry  0000000180040b30     libucrt:get_qualified_locale.obj
 0004:00001b3c       $pdata$TranslateName       0000000180040b3c     libucrt:get_qualified_locale.obj
 0004:00001b48       $pdata$__acrt_get_qualified_locale 0000000180040b48     libucrt:get_qualified_locale.obj
 0004:00001b54       $pdata$CountryEnumProc     0000000180040b54     libucrt:getqloc_downlevel.obj
 0004:00001b60       $pdata$GetLcidFromLangCountry 0000000180040b60     libucrt:getqloc_downlevel.obj
 0004:00001b6c       $pdata$GetLcidFromLanguage 0000000180040b6c     libucrt:getqloc_downlevel.obj
 0004:00001b78       $pdata$LangCountryEnumProc 0000000180040b78     libucrt:getqloc_downlevel.obj
 0004:00001b84       $pdata$LanguageEnumProc    0000000180040b84     libucrt:getqloc_downlevel.obj
 0004:00001b90       $pdata$ProcessCodePage     0000000180040b90     libucrt:getqloc_downlevel.obj
 0004:00001b9c       $pdata$TestDefaultLanguage 0000000180040b9c     libucrt:getqloc_downlevel.obj
 0004:00001ba8       $pdata$TranslateName       0000000180040ba8     libucrt:getqloc_downlevel.obj
 0004:00001bb4       $pdata$__acrt_get_qualified_locale_downlevel 0000000180040bb4     libucrt:getqloc_downlevel.obj
 0004:00001bcc       $pdata$?GetTableIndexFromLocaleName@@YAHPEB_W@Z 0000000180040bcc     libucrt:lcidtoname_downlevel.obj
 0004:00001bd8       $pdata$__acrt_DownlevelLCIDToLocaleName 0000000180040bd8     libucrt:lcidtoname_downlevel.obj
 0004:00001be4       $pdata$__acrt_DownlevelLocaleNameToLCID 0000000180040be4     libucrt:lcidtoname_downlevel.obj
 0004:00001bf0       $pdata$__acrt_lowio_create_handle_array 0000000180040bf0     libucrt:osfinfo.obj
 0004:00001bfc       $pdata$__acrt_lowio_destroy_handle_array 0000000180040bfc     libucrt:osfinfo.obj
 0004:00001c08       $pdata$__acrt_lowio_ensure_fh_exists 0000000180040c08     libucrt:osfinfo.obj
 0004:00001c14       $pdata$_free_osfhnd        0000000180040c14     libucrt:osfinfo.obj
 0004:00001c20       $pdata$_get_osfhandle      0000000180040c20     libucrt:osfinfo.obj
 0004:00001c2c       $pdata$_isatty             0000000180040c2c     libucrt:isatty.obj
 0004:00001c38       $pdata$_putwch_nolock      0000000180040c38     libucrt:putwch.obj
 0004:00001c44       $pdata$??$translate_text_mode_nolock@_W@@YAHHQEA_W_K@Z 0000000180040c44     libucrt:read.obj
 0004:00001c50       $pdata$?translate_ansi_or_utf8_nolock@@YAHHQEAD_KQEA_W1@Z 0000000180040c50     libucrt:read.obj
 0004:00001c5c       $pdata$_read               0000000180040c5c     libucrt:read.obj
 0004:00001c68       $pdata$_read_nolock        0000000180040c68     libucrt:read.obj
 0004:00001c74       $pdata$strncpy_s           0000000180040c74     libucrt:strncpy_s.obj
 0004:00001c80       $pdata$_call_matherr       0000000180040c80     libucrt:libm_error.obj
 0004:00001c8c       $pdata$_exception_enabled  0000000180040c8c     libucrt:libm_error.obj
 0004:00001c98       $pdata$_handle_error       0000000180040c98     libucrt:libm_error.obj
 0004:00001ca4       $pdata$_handle_errorf      0000000180040ca4     libucrt:libm_error.obj
 0004:00001cb0       $pdata$_towlower_l         0000000180040cb0     libucrt:towlower.obj
 0004:00001cbc       $pdata$?shortsort@@YAXPEAD0_KP6AHPEBX2@Z@Z 0000000180040cbc     libucrt:qsort.obj
 0004:00001cc8       $pdata$2$?shortsort@@YAXPEAD0_KP6AHPEBX2@Z@Z 0000000180040cc8     libucrt:qsort.obj
 0004:00001cd4       $pdata$3$?shortsort@@YAXPEAD0_KP6AHPEBX2@Z@Z 0000000180040cd4     libucrt:qsort.obj
 0004:00001ce0       $pdata$qsort               0000000180040ce0     libucrt:qsort.obj
 0004:00001cec       $pdata$4$qsort             0000000180040cec     libucrt:qsort.obj
 0004:00001cf8       $pdata$5$qsort             0000000180040cf8     libucrt:qsort.obj
 0004:00001d04       $pdata$strpbrk             0000000180040d04     libucrt:strpbrk.obj
 0004:00001d10       $pdata$_mbsdec_l           0000000180040d10     libucrt:mbsdec.obj
 0004:00001d1c       $pdata$?initialize_multibyte@@YAHXZ 0000000180040d1c     libucrt:multibyte_initializer.obj
 0004:00001d28       $pdata$_msize              0000000180040d28     libucrt:msize.obj
 0004:00001d34       $pdata$common_control87    0000000180040d34     libucrt:ieee.obj
 0004:00001d40       $pdata$??$common_xtox@K_W@@YAHKQEA_W_KI_N@Z 0000000180040d40     libucrt:xtoa.obj
 0004:00001d4c       $pdata$??$common_xtox_s@K_W@@YAHKQEA_W_KI_N@Z 0000000180040d4c     libucrt:xtoa.obj
 0004:00001d58       $pdata$_itow_s             0000000180040d58     libucrt:xtoa.obj
 0004:00001d64       $pdata$_wcsnicmp           0000000180040d64     libucrt:wcsnicmp.obj
 0004:00001d70       $pdata$_wcsnicmp_l         0000000180040d70     libucrt:wcsnicmp.obj
 0004:00001d7c       $pdata$__dcrt_lowio_initialize_console_output 0000000180040d7c     libucrt:initcon.obj
 0004:00001d88       $pdata$__dcrt_terminate_console_output 0000000180040d88     libucrt:initcon.obj
 0004:00001da0       $pdata$__acrt_LCMapStringW 0000000180040da0     libucrt:lcmapstringw.obj
 0004:00001dac       $pdata$_log10_special      0000000180040dac     libucrt:log_special.obj
 0004:00001db8       $pdata$_log_special_common 0000000180040db8     libucrt:log_special.obj
 0004:00001dc4       $pdata$?DloadAcquireSectionWriteAccess@@YAXXZ 0000000180040dc4     DelayImp:delayhlp.obj
 0004:00001dd0       $pdata$?DloadGetSRWLockFunctionPointers@@YAEXZ 0000000180040dd0     DelayImp:delayhlp.obj
 0004:00001ddc       $pdata$?DloadMakePermanentImageCommit@@YAXPEAX_K@Z 0000000180040ddc     DelayImp:delayhlp.obj
 0004:00001de8       $pdata$?DloadObtainSection@@YAPEAXPEAK0@Z 0000000180040de8     DelayImp:delayhlp.obj
 0004:00001df4       $pdata$?DloadProtectSection@@YAXKPEAK@Z 0000000180040df4     DelayImp:delayhlp.obj
 0004:00001e00       $pdata$?DloadReleaseSectionWriteAccess@@YAXXZ 0000000180040e00     DelayImp:delayhlp.obj
 0004:00001e0c       $pdata$__delayLoadHelper2  0000000180040e0c     DelayImp:delayhlp.obj
 0004:00001e18       $pdata$_IsNonwritableInCurrentImage 0000000180040e18     LIBCMT:pesect.obj
 0004:00001e24       $pdata$wcschr              0000000180040e24     libvcruntime:wcschr.obj
 0004:00001e3c       $pdata$?dtor$0@?0???0?$basic_ostream@DU?$char_traits@D@std@@@std@@QEAA@PEAV?$basic_streambuf@DU?$char_traits@D@std@@@1@_N@Z@4HA 0000000180040e3c     libcpmt:cout.obj
 0004:00001e48       $pdata$?dtor$0@?0??_Getcat@?$codecvt@DDU_Mbstatet@@@std@@SA_KPEAPEBVfacet@locale@2@PEBV42@@Z@4HA 0000000180040e48     libcpmt:cout.obj
 0004:00001e54       $pdata$?dtor$0@?0???0?$basic_istream@DU?$char_traits@D@std@@@std@@QEAA@PEAV?$basic_streambuf@DU?$char_traits@D@std@@@1@_N@Z@4HA 0000000180040e54     libcpmt:cin.obj
 0004:00001e60       $pdata$__scrt_is_nonwritable_in_current_image$filt$0 0000000180040e60     LIBCMT:utility.obj
 0004:00001e6c       $pdata$?fin$0@?0??dllmain_crt_process_attach@@YAHQEAUHINSTANCE__@@QEAX@Z@4HA 0000000180040e6c     LIBCMT:dll_dllmain.obj
 0004:00001e78       $pdata$?fin$0@?0??dllmain_crt_process_detach@@YAH_N@Z@4HA 0000000180040e78     LIBCMT:dll_dllmain.obj
 0004:00001e84       $pdata$?filt$0@?0??dllmain_dispatch@@YAHQEAUHINSTANCE__@@KQEAX@Z@4HA 0000000180040e84     LIBCMT:dll_dllmain.obj
 0004:00001e90       $pdata$__CxxCallCatchBlock$filt$0 0000000180040e90     libvcruntime:frame.obj
 0004:00001e9c       $pdata$__CxxCallCatchBlock$fin$1 0000000180040e9c     libvcruntime:frame.obj
 0004:00001ea8       $pdata$__DestructExceptionObject$filt$0 0000000180040ea8     libvcruntime:frame.obj
 0004:00001eb4       $pdata$__FrameUnwindToState$filt$0 0000000180040eb4     libvcruntime:frame.obj
 0004:00001ec0       $pdata$__FrameUnwindToState$fin$1 0000000180040ec0     libvcruntime:frame.obj
 0004:00001ecc       $pdata$_CallSETranslator$filt$0 0000000180040ecc     libvcruntime:trnsctrl.obj
 0004:00001ed8       $pdata$fflush$fin$0        0000000180040ed8     libucrt:fflush.obj
 0004:00001ed8       $pdata$fclose$fin$0        0000000180040ed8     libucrt:fclose.obj
 0004:00001ee4       $pdata$common_flush_all$fin$0 0000000180040ee4     libucrt:fflush.obj
 0004:00001ef0       $pdata$common_flush_all$fin$1 0000000180040ef0     libucrt:fflush.obj
 0004:00001efc       $pdata$fgetc$fin$0         0000000180040efc     libucrt:fgetc.obj
 0004:00001f08       $pdata$fputc$fin$0         0000000180040f08     libucrt:fputc.obj
 0004:00001f14       $pdata$?fin$0@?0??common_fseek@@YAHV__crt_stdio_stream@@_JH@Z@4HA 0000000180040f14     libucrt:fseek.obj
 0004:00001f14       $pdata$?fin$0@?0???$common_ftell@_J@@YA_JV__crt_stdio_stream@@@Z@4HA 0000000180040f14     libucrt:ftell.obj
 0004:00001f20       $pdata$?fin$0@?0???$?RV<lambda_7a5ef57ff966f610505f1d28a3d40618>@@AEAV<lambda_b721fa326cdb32351d23dfa67958c160>@@V<lambda_5e0fb27672408a07956fe59e48ccb2aa>@@@?$__crt_seh_guarded_call@H@@QEAAH$$QEAV<lambda_7a5ef57ff966f610505f1d28a3d40618>@@AEAV<lambda_b721fa326cdb32351d23dfa67958c160>@@$$QEAV<lambda_5e0fb27672408a07956fe59e48ccb2aa>@@@Z@4HA 0000000180040f20     libucrt:setvbuf.obj
 0004:00001f20       $pdata$?fin$0@?0???$?RV<lambda_5d4c3fee44080f75d5d9762853974fe0>@@AEAV<lambda_532e024f4337e6fc7ad266c2bef9f4ed>@@V<lambda_c87bdc10097eb2402edb8ba9bdf0697b>@@@?$__crt_seh_guarded_call@_K@@QEAA_K$$QEAV<lambda_5d4c3fee44080f75d5d9762853974fe0>@@AEAV<lambda_532e024f4337e6fc7ad266c2bef9f4ed>@@$$QEAV<lambda_c87bdc10097eb2402edb8ba9bdf0697b>@@@Z@4HA 0000000180040f20     libucrt:fwrite.obj
 0004:00001f2c       $pdata$ungetc$fin$0        0000000180040f2c     libucrt:ungetc.obj
 0004:00001f38       $pdata$setlocale$fin$0     0000000180040f38     libucrt:setlocale.obj
 0004:00001f44       $pdata$_query_new_handler$fin$0 0000000180040f44     libucrt:new_handler.obj
 0004:00001f50       $pdata$?filt$0@?0??common_exit@@YAXHW4_crt_exit_cleanup_mode@@W4_crt_exit_return_mode@@@Z@4HA 0000000180040f50     libucrt:exit.obj
 0004:00001f5c       $pdata$?fin$1@?0??common_exit@@YAXHW4_crt_exit_cleanup_mode@@W4_crt_exit_return_mode@@@Z@4HA 0000000180040f5c     libucrt:exit.obj
 0004:00001f68       $pdata$?fin$0@?0???$?RV<lambda_e24bbb7b643b32fcea6fa61b31d4c984>@@AEAV<lambda_275893d493268fdec8709772e3fcec0e>@@V<lambda_9d71df4d7cf3f480f8d633942495c3b0>@@@?$__crt_seh_guarded_call@H@@QEAAH$$QEAV<lambda_e24bbb7b643b32fcea6fa61b31d4c984>@@AEAV<lambda_275893d493268fdec8709772e3fcec0e>@@$$QEAV<lambda_9d71df4d7cf3f480f8d633942495c3b0>@@@Z@4HA 0000000180040f68     libucrt:onexit.obj
 0004:00001f74       $pdata$?fin$0@?0???$?RV<lambda_5e887d1dcbef67a5eb4283622ba103bf>@@AEAV<lambda_4466841279450cc726390878d4a41900>@@V<lambda_341c25c0346d94847f1f3c463c57e077>@@@?$__crt_seh_guarded_call@X@@QEAAX$$QEAV<lambda_5e887d1dcbef67a5eb4283622ba103bf>@@AEAV<lambda_4466841279450cc726390878d4a41900>@@$$QEAV<lambda_341c25c0346d94847f1f3c463c57e077>@@@Z@4HA 0000000180040f74     libucrt:per_thread_data.obj
 0004:00001f74       $pdata$?fin$0@?0???$?RV<lambda_b8c45f8f788dd370798f47cfe8ac3a86>@@AEAV<lambda_4e60a939b0d047cfe11ddc22648dfba9>@@V<lambda_332c3edc96d0294ec56c57d38c1cdfd5>@@@?$__crt_seh_guarded_call@H@@QEAAH$$QEAV<lambda_b8c45f8f788dd370798f47cfe8ac3a86>@@AEAV<lambda_4e60a939b0d047cfe11ddc22648dfba9>@@$$QEAV<lambda_332c3edc96d0294ec56c57d38c1cdfd5>@@@Z@4HA 0000000180040f74     libucrt:onexit.obj
 0004:00001f74       $pdata$?fin$0@?0???$?RV<lambda_630b2aca97f6d20d5b5ea6529ea6b6af>@@AEAV<lambda_af91936f1d075d609f72d9d8cba980af>@@V<lambda_e82fa975f615b5c7c7b0e4d178fdae67>@@@?$__crt_seh_guarded_call@H@@QEAAH$$QEAV<lambda_630b2aca97f6d20d5b5ea6529ea6b6af>@@AEAV<lambda_af91936f1d075d609f72d9d8cba980af>@@$$QEAV<lambda_e82fa975f615b5c7c7b0e4d178fdae67>@@@Z@4HA 0000000180040f74     libucrt:winapi_thunks.obj
 0004:00001f74       $pdata$?fin$0@?0???$?RV<lambda_c36588078e9f5dfd39652860aa6b3aaf>@@AEAV<lambda_ec61778202f4f5fc7e7711acc23c3bca>@@V<lambda_dc9d2797ccde5d239b4a0efae8ebd7db>@@@?$__crt_seh_guarded_call@P6AXH@Z@@QEAAP6AXH@Z$$QEAV<lambda_c36588078e9f5dfd39652860aa6b3aaf>@@AEAV<lambda_ec61778202f4f5fc7e7711acc23c3bca>@@$$QEAV<lambda_dc9d2797ccde5d239b4a0efae8ebd7db>@@@Z@4HA 0000000180040f74     libucrt:signal.obj
 0004:00001f74       $pdata$?fin$0@?0???$?RV<lambda_d67e8342c384adda8f857579ab50b2ae>@@AEAV<lambda_30712929f77e709619002f448b6a9510>@@V<lambda_4525336fd7e478d965fb7ca7a337cad8>@@@?$__crt_seh_guarded_call@X@@QEAAX$$QEAV<lambda_d67e8342c384adda8f857579ab50b2ae>@@AEAV<lambda_30712929f77e709619002f448b6a9510>@@$$QEAV<lambda_4525336fd7e478d965fb7ca7a337cad8>@@@Z@4HA 0000000180040f74     libucrt:wsetlocale.obj
 0004:00001f74       $pdata$?fin$0@?0???$?RV<lambda_99476a1ad63dd22509b5d3e65b0ffc95>@@AEAV<lambda_ad1ced32f4ac17aa236e5ef05d6b3b7c>@@V<lambda_f7424dd8d45958661754dc4f2697e9c3>@@@?$__crt_seh_guarded_call@X@@QEAAX$$QEAV<lambda_99476a1ad63dd22509b5d3e65b0ffc95>@@AEAV<lambda_ad1ced32f4ac17aa236e5ef05d6b3b7c>@@$$QEAV<lambda_f7424dd8d45958661754dc4f2697e9c3>@@@Z@4HA 0000000180040f74     libucrt:mbctype.obj
 0004:00001f74       $pdata$?fin$0@?0???$?RV<lambda_fb3a7dec4e47f37f22dae91bb15c9095>@@AEAV<lambda_698284760c8add0bfb0756c19673e34b>@@V<lambda_dfb8eca1e75fef3034a8fb18dd509707>@@@?$__crt_seh_guarded_call@X@@QEAAX$$QEAV<lambda_fb3a7dec4e47f37f22dae91bb15c9095>@@AEAV<lambda_698284760c8add0bfb0756c19673e34b>@@$$QEAV<lambda_dfb8eca1e75fef3034a8fb18dd509707>@@@Z@4HA 0000000180040f74     libucrt:per_thread_data.obj
 0004:00001f74       $pdata$?fin$0@?0???$?RV<lambda_72d1df2b273a38828b1ce30cbf4cdab5>@@AEAV<lambda_876a65b173b8412d3a47c70a915b0cf4>@@V<lambda_41932305e351933ebe8f8be3ed8bb5dc>@@@?$__crt_seh_guarded_call@X@@QEAAX$$QEAV<lambda_72d1df2b273a38828b1ce30cbf4cdab5>@@AEAV<lambda_876a65b173b8412d3a47c70a915b0cf4>@@$$QEAV<lambda_41932305e351933ebe8f8be3ed8bb5dc>@@@Z@4HA 0000000180040f74     libucrt:per_thread_data.obj
 0004:00001f74       $pdata$?fin$0@?0???$?RV<lambda_46352004c1216016012b18bd6f87e700>@@AEAV<lambda_3bd07e1a1191394380780325891bf33f>@@V<lambda_334532d3f185bcaa59b5be82d7d22bff>@@@?$__crt_seh_guarded_call@X@@QEAAX$$QEAV<lambda_46352004c1216016012b18bd6f87e700>@@AEAV<lambda_3bd07e1a1191394380780325891bf33f>@@$$QEAV<lambda_334532d3f185bcaa59b5be82d7d22bff>@@@Z@4HA 0000000180040f74     libucrt:per_thread_data.obj
 0004:00001f80       $pdata$raise$fin$0         0000000180040f80     libucrt:signal.obj
 0004:00001f8c       $pdata$?fin$0@?0???$?RV<lambda_5df02c53a8f32f81fd64e5bbb78039f1>@@AEAV<lambda_2af78c5f5901b1372d98f9ab3177dfa6>@@AEAV<lambda_f51fe5fd7c79a33db34fc9310f277369>@@@?$__crt_seh_guarded_call@X@@QEAAX$$QEAV<lambda_5df02c53a8f32f81fd64e5bbb78039f1>@@AEAV<lambda_2af78c5f5901b1372d98f9ab3177dfa6>@@AEAV<lambda_f51fe5fd7c79a33db34fc9310f277369>@@@Z@4HA 0000000180040f8c     libucrt:wsetlocale.obj
 0004:00001f98       $pdata$__acrt_uninitialize_locale$fin$0 0000000180040f98     libucrt:wsetlocale.obj
 0004:00001f98       $pdata$__acrt_update_thread_locale_data$fin$0 0000000180040f98     libucrt:locale_refcounting.obj
 0004:00001fa4       $pdata$common_control87$filt$0 0000000180040fa4     libucrt:ieee.obj
 0004:00001fa4       $pdata$_ctrlfp$filt$0      0000000180040fa4     libucrt:fpctrl.obj
 0004:00001fb0       $pdata$_fcloseall$fin$0    0000000180040fb0     libucrt:closeall.obj
 0004:00001fbc       $pdata$__acrt_lowio_ensure_fh_exists$fin$0 0000000180040fbc     libucrt:osfinfo.obj
 0004:00001fbc       $pdata$__acrt_initialize_lowio$fin$0 0000000180040fbc     libucrt:ioinit.obj
 0004:00001fc8       $pdata$?fin$0@?0???$?RV<lambda_b521505b218e5242e90febf6bfebc422>@@AEAV<lambda_6978c1fb23f02e42e1d9e99668cc68aa>@@V<lambda_314360699dd331753a4119843814e9a7>@@@?$__crt_seh_guarded_call@H@@QEAAH$$QEAV<lambda_b521505b218e5242e90febf6bfebc422>@@AEAV<lambda_6978c1fb23f02e42e1d9e99668cc68aa>@@$$QEAV<lambda_314360699dd331753a4119843814e9a7>@@@Z@4HA 0000000180040fc8     libucrt:commit.obj
 0004:00001fc8       $pdata$?fin$0@?0???$?RV<lambda_bfedae4ebbf01fab1bb6dcc6a9e276e0>@@AEAV<lambda_2fe9b910cf3cbf4a0ab98a02ba45b3ec>@@V<lambda_237c231691f317818eb88cc1d5d642d6>@@@?$__crt_seh_guarded_call@H@@QEAAH$$QEAV<lambda_bfedae4ebbf01fab1bb6dcc6a9e276e0>@@AEAV<lambda_2fe9b910cf3cbf4a0ab98a02ba45b3ec>@@$$QEAV<lambda_237c231691f317818eb88cc1d5d642d6>@@@Z@4HA 0000000180040fc8     libucrt:close.obj
 0004:00001fd4       $pdata$__acrt_update_thread_multibyte_data$fin$0 0000000180040fd4     libucrt:mbctype.obj
 0004:00001fe0       $pdata$_write$fin$0        0000000180040fe0     libucrt:write.obj
 0004:00001fe0       $pdata$?fin$0@?0???$common_lseek@_J@@YA_JH_JH@Z@4HA 0000000180040fe0     libucrt:lseek.obj
 0004:00001fe0       $pdata$_read$fin$0         0000000180040fe0     libucrt:read.obj
 0004:00001fec       $pdata$_IsNonwritableInCurrentImage$filt$0 0000000180040fec     LIBCMT:pesect.obj
 0004:00001ff8       $pdata$??__Fcout@std@@YAXXZ 0000000180040ff8     libcpmt:cout.obj
 0004:00002004       $pdata$??__F_Fac_tidy_reg@std@@YAXXZ 0000000180041004     libcpmt:locale0.obj
 0004:00002010       $pdata$??__Fclassic_locale@std@@YAXXZ 0000000180041010     libcpmt:locale0.obj
 0004:0000201c       $pdata$??__Fcin@std@@YAXXZ 000000018004101c     libcpmt:cin.obj
 0004:00002028       $pdata$??__Finit_atexit@@YAXXZ 0000000180041028     libcpmt:iosptrs.obj
 0005:00000000       __guard_fids__             0000000180042000     libucrt:initialization.obj
 0005:00000060       __guard_fids___acrt_initialize_ptd 0000000180042060     libucrt:per_thread_data.obj
 0005:00000064       __guard_fids__             0000000180042064     libucrt:wsetlocale.obj
 0005:0000007c       __guard_fids_??$?RV<lambda_630b2aca97f6d20d5b5ea6529ea6b6af>@@AEAV<lambda_af91936f1d075d609f72d9d8cba980af>@@V<lambda_e82fa975f615b5c7c7b0e4d178fdae67>@@@?$__crt_seh_guarded_call@H@@QEAAH$$QEAV<lambda_630b2aca97f6d20d5b5ea6529ea6b6af>@@AEAV<lambda_af91936f1d075d609f72d9d8cba980af>@@$$QEAV<lambda_e82fa975f615b5c7c7b0e4d178fdae67>@@@Z 000000018004207c     libucrt:winapi_thunks.obj
 0005:00000080       __guard_fids__             0000000180042080     libucrt:stdio_initializer.obj
 0005:00000084       __guard_fids__             0000000180042084     libucrt:stdio_initializer.obj
 0005:00000088       __guard_fids_??$expand_argument_wildcards@D@@YAHQEAD0AEAV?$argument_list@D@?A0xca0879c4@@@Z 0000000180042088     libucrt:argv_wildcards.obj
 0005:0000008c       __guard_fids__             000000018004208c     libucrt:locale_initializer.obj
 0005:00000090       __guard_fids_GetLocaleNameFromLangCountry 0000000180042090     libucrt:get_qualified_locale.obj
 0005:00000094       __guard_fids_GetLocaleNameFromLanguage 0000000180042094     libucrt:get_qualified_locale.obj
 0005:00000098       __guard_fids___acrt_get_qualified_locale_downlevel 0000000180042098     libucrt:getqloc_downlevel.obj
 0005:0000009c       __guard_fids_GetLcidFromLangCountry 000000018004209c     libucrt:getqloc_downlevel.obj
 0005:000000a0       __guard_fids_GetLcidFromLanguage 00000001800420a0     libucrt:getqloc_downlevel.obj
 0005:000000a4       __guard_fids__             00000001800420a4     libucrt:fma3_initializer.obj
 0005:000000a8       __guard_fids__             00000001800420a8     libucrt:timeset_initializer.obj
 0005:000000ac       __guard_fids__             00000001800420ac     libucrt:multibyte_initializer.obj
 0005:000000b0       __guard_fids__             00000001800420b0     libucrt:console_output_initializer.obj
 0005:000000b4       __guard_fids_??__Einitlocks@std@@YAXXZ 00000001800420b4     libcpmt:xlock.obj
 0005:000000b8       __guard_fids__             00000001800420b8     libcpmt:xlock.obj
 0005:000000bc       __guard_fids_??__Einitlocks@@YAXXZ 00000001800420bc     libcpmt:cout.obj
 0005:000000c0       __guard_fids_??__Efout@std@@YAXXZ 00000001800420c0     libcpmt:cout.obj
 0005:000000c4       __guard_fids_??__Ecout@std@@YAXXZ 00000001800420c4     libcpmt:cout.obj
 0005:000000c8       __guard_fids__             00000001800420c8     libcpmt:cout.obj
 0005:000000d0       __guard_fids__             00000001800420d0     libcpmt:cout.obj
 0005:000000d8       __guard_fids__             00000001800420d8     libcpmt:cout.obj
 0005:000000e0       __guard_fids__             00000001800420e0     libcpmt:cout.obj
 0005:000000ec       __guard_fids__             00000001800420ec     libcpmt:cout.obj
 0005:00000118       __guard_fids__             0000000180042118     libcpmt:cout.obj
 0005:00000130       __guard_fids__             0000000180042130     libcpmt:cout.obj
 0005:00000138       __guard_fids__             0000000180042138     libcpmt:cout.obj
 0005:00000150       __guard_fids__             0000000180042150     libcpmt:cout.obj
 0005:00000158       __guard_fids__             0000000180042158     libcpmt:cout.obj
 0005:0000015c       __guard_fids__             000000018004215c     libcpmt:cout.obj
 0005:00000198       __guard_fids__             0000000180042198     libcpmt:cout.obj
 0005:000001d4       __guard_fids__             00000001800421d4     libcpmt:cout.obj
 0005:000001d8       __guard_fids__             00000001800421d8     libcpmt:cout.obj
 0005:000001dc       __guard_fids__             00000001800421dc     libcpmt:cout.obj
 0005:00000204       __guard_fids__             0000000180042204     libcpmt:cout.obj
 0005:00000208       __guard_fids__             0000000180042208     libcpmt:cout.obj
 0005:0000020c       __guard_fids__             000000018004220c     libcpmt:cout.obj
 0005:00000210       __guard_fids__             0000000180042210     libcpmt:cout.obj
 0005:00000214       __guard_fids_??__E_Fac_tidy_reg@std@@YAXXZ 0000000180042214     libcpmt:locale0.obj
 0005:00000218       __guard_fids_?_Setgloballocale@locale@std@@CAXPEAX@Z 0000000180042218     libcpmt:locale0.obj
 0005:0000021c       __guard_fids_??__Eclassic_locale@std@@YAXXZ 000000018004221c     libcpmt:locale0.obj
 0005:00000220       __guard_fids__             0000000180042220     libcpmt:locale0.obj
 0005:0000022c       __guard_fids__             000000018004222c     libcpmt:locale0.obj
 0005:00000230       __guard_fids__             0000000180042230     libcpmt:locale0.obj
 0005:00000234       __guard_fids_??__Einitlocks@@YAXXZ 0000000180042234     libcpmt:cin.obj
 0005:00000238       __guard_fids_??__Efin@std@@YAXXZ 0000000180042238     libcpmt:cin.obj
 0005:0000023c       __guard_fids_??__Ecin@std@@YAXXZ 000000018004223c     libcpmt:cin.obj
 0005:00000240       __guard_fids__             0000000180042240     libcpmt:cin.obj
 0005:00000244       __guard_fids__             0000000180042244     libcpmt:cin.obj
 0005:00000248       __guard_fids__             0000000180042248     libcpmt:cin.obj
 0005:0000024c       __guard_fids__             000000018004224c     libcpmt:cin.obj
 0005:00000250       __guard_fids__             0000000180042250     libcpmt:cin.obj
 0005:00000254       __guard_fids__             0000000180042254     libcpmt:xthrow.obj
 0005:0000025c       __guard_fids__             000000018004225c     libcpmt:xthrow.obj
 0005:00000264       __guard_fids__             0000000180042264     libcpmt:xthrow.obj
 0005:0000026c       __guard_fids__             000000018004226c     libcpmt:xthrow.obj
 0005:00000274       __guard_fids_??__Einitlocks@std@@YAXXZ 0000000180042274     libcpmt:iosptrs.obj
 0005:00000278       __guard_fids_??__Einit_atexit@@YAXXZ 0000000180042278     libcpmt:iosptrs.obj
 0005:0000027c       __guard_fids__             000000018004227c     libcpmt:iosptrs.obj
 0005:00000280       __guard_fids__             0000000180042280     libcpmt:iosptrs.obj
 0005:00000284       __guard_fids__             0000000180042284     libcpmt:locale.obj
 0005:000002bc       __guard_fids__             00000001800422bc     libcpmt:locale.obj
 0005:000002dc       __guard_fids__             00000001800422dc     libcpmt:winapisupp.obj
 0005:000002e0       __guard_fids__             00000001800422e0     LIBCMT:thread_safe_statics.obj
 0005:000002e4       __guard_fids_?__scrt_initialize_thread_safe_statics@@YAHXZ 00000001800422e4     LIBCMT:thread_safe_statics.obj
 0005:000002e8       __guard_fids_?dllmain_crt_process_attach@@YAHQEAUHINSTANCE__@@QEAX@Z 00000001800422e8     LIBCMT:dll_dllmain.obj
 0005:000002f0       __guard_fids_?dllmain_dispatch@@YAHQEAUHINSTANCE__@@KQEAX@Z 00000001800422f0     LIBCMT:dll_dllmain.obj
 0005:000002f4       __guard_fids__             00000001800422f4     LIBCMT:std_type_info_static.obj
 0005:000002f8       __guard_fids__             00000001800422f8     LIBCMT:throw_bad_alloc.obj
 0005:00000300       __guard_fids__             0000000180042300     LIBCMT:guard_support.obj
 0005:00000304       __guard_fids__             0000000180042304     libvcruntime:frame.obj
 0005:00000308       __guard_fids__             0000000180042308     libvcruntime:frame.obj
 0005:00000310       __guard_fids__UnwindNestedFrames 0000000180042310     libvcruntime:trnsctrl.obj
 0005:00000314       __guard_fids___vcrt_initialize_ptd 0000000180042314     libvcruntime:per_thread_data.obj
 0007:00000060       $R000000                   0000000180044060     * linker generated manifest res *

 Exports

  ordinal    name

        1    _register_cio_
